
E77-tBeacon.elf:     file format elf32-littlearm

Sections:
Idx Name          Size      VMA       LMA       File off  Algn
  0 .isr_vector   00000138  08000000  08000000  00010000  2**0
                  CONTENTS, ALLOC, LOAD, READONLY, DATA
  1 .text         0000e6f8  08000140  08000140  00010140  2**4
                  CONTENTS, ALLOC, LOAD, READONLY, CODE
  2 .rodata       00002c28  0800e838  0800e838  0001e838  2**3
                  CONTENTS, ALLOC, LOAD, READONLY, DATA
  3 .ARM.extab    00000000  08011460  08011460  000300d4  2**0
                  CONTENTS
  4 .ARM          00000008  08011460  08011460  00021460  2**2
                  CONTENTS, ALLOC, LOAD, READONLY, DATA
  5 .preinit_array 00000000  08011468  08011468  000300d4  2**0
                  CONTENTS, ALLOC, LOAD, DATA
  6 .init_array   00000004  08011468  08011468  00021468  2**2
                  CONTENTS, ALLOC, LOAD, DATA
  7 .fini_array   00000004  0801146c  0801146c  0002146c  2**2
                  CONTENTS, ALLOC, LOAD, DATA
  8 .data         000000d4  20000000  08011470  00030000  2**2
                  CONTENTS, ALLOC, LOAD, DATA
  9 .bss          00001140  200000d8  08011544  000300d8  2**3
                  ALLOC
 10 ._user_heap_stack 00000600  20001218  08011544  00031218  2**0
                  ALLOC
 11 .ARM.attributes 0000002a  00000000  00000000  000300d4  2**0
                  CONTENTS, READONLY
 12 .comment      00000050  00000000  00000000  000300fe  2**0
                  CONTENTS, READONLY
 13 .debug_frame  00001284  00000000  00000000  00030150  2**2
                  CONTENTS, READONLY, DEBUGGING, OCTETS
 14 .stab         000000cc  00000000  00000000  000313d4  2**2
                  CONTENTS, READONLY, DEBUGGING
 15 .stabstr      000001b9  00000000  00000000  000314a0  2**0
                  CONTENTS, READONLY, DEBUGGING

Disassembly of section .text:

08000140 <__do_global_dtors_aux>:
 8000140:	b510      	push	{r4, lr}
 8000142:	4c05      	ldr	r4, [pc, #20]	; (8000158 <__do_global_dtors_aux+0x18>)
 8000144:	7823      	ldrb	r3, [r4, #0]
 8000146:	b933      	cbnz	r3, 8000156 <__do_global_dtors_aux+0x16>
 8000148:	4b04      	ldr	r3, [pc, #16]	; (800015c <__do_global_dtors_aux+0x1c>)
 800014a:	b113      	cbz	r3, 8000152 <__do_global_dtors_aux+0x12>
 800014c:	4804      	ldr	r0, [pc, #16]	; (8000160 <__do_global_dtors_aux+0x20>)
 800014e:	f3af 8000 	nop.w
 8000152:	2301      	movs	r3, #1
 8000154:	7023      	strb	r3, [r4, #0]
 8000156:	bd10      	pop	{r4, pc}
 8000158:	200000d8 	.word	0x200000d8
 800015c:	00000000 	.word	0x00000000
 8000160:	0800e820 	.word	0x0800e820

08000164 <frame_dummy>:
 8000164:	b508      	push	{r3, lr}
 8000166:	4b03      	ldr	r3, [pc, #12]	; (8000174 <frame_dummy+0x10>)
 8000168:	b11b      	cbz	r3, 8000172 <frame_dummy+0xe>
 800016a:	4903      	ldr	r1, [pc, #12]	; (8000178 <frame_dummy+0x14>)
 800016c:	4803      	ldr	r0, [pc, #12]	; (800017c <frame_dummy+0x18>)
 800016e:	f3af 8000 	nop.w
 8000172:	bd08      	pop	{r3, pc}
 8000174:	00000000 	.word	0x00000000
 8000178:	200000dc 	.word	0x200000dc
 800017c:	0800e820 	.word	0x0800e820

08000180 <memchr>:
 8000180:	f001 01ff 	and.w	r1, r1, #255	; 0xff
 8000184:	2a10      	cmp	r2, #16
 8000186:	db2b      	blt.n	80001e0 <memchr+0x60>
 8000188:	f010 0f07 	tst.w	r0, #7
 800018c:	d008      	beq.n	80001a0 <memchr+0x20>
 800018e:	f810 3b01 	ldrb.w	r3, [r0], #1
 8000192:	3a01      	subs	r2, #1
 8000194:	428b      	cmp	r3, r1
 8000196:	d02d      	beq.n	80001f4 <memchr+0x74>
 8000198:	f010 0f07 	tst.w	r0, #7
 800019c:	b342      	cbz	r2, 80001f0 <memchr+0x70>
 800019e:	d1f6      	bne.n	800018e <memchr+0xe>
 80001a0:	b4f0      	push	{r4, r5, r6, r7}
 80001a2:	ea41 2101 	orr.w	r1, r1, r1, lsl #8
 80001a6:	ea41 4101 	orr.w	r1, r1, r1, lsl #16
 80001aa:	f022 0407 	bic.w	r4, r2, #7
 80001ae:	f07f 0700 	mvns.w	r7, #0
 80001b2:	2300      	movs	r3, #0
 80001b4:	e8f0 5602 	ldrd	r5, r6, [r0], #8
 80001b8:	3c08      	subs	r4, #8
 80001ba:	ea85 0501 	eor.w	r5, r5, r1
 80001be:	ea86 0601 	eor.w	r6, r6, r1
 80001c2:	fa85 f547 	uadd8	r5, r5, r7
 80001c6:	faa3 f587 	sel	r5, r3, r7
 80001ca:	fa86 f647 	uadd8	r6, r6, r7
 80001ce:	faa5 f687 	sel	r6, r5, r7
 80001d2:	b98e      	cbnz	r6, 80001f8 <memchr+0x78>
 80001d4:	d1ee      	bne.n	80001b4 <memchr+0x34>
 80001d6:	bcf0      	pop	{r4, r5, r6, r7}
 80001d8:	f001 01ff 	and.w	r1, r1, #255	; 0xff
 80001dc:	f002 0207 	and.w	r2, r2, #7
 80001e0:	b132      	cbz	r2, 80001f0 <memchr+0x70>
 80001e2:	f810 3b01 	ldrb.w	r3, [r0], #1
 80001e6:	3a01      	subs	r2, #1
 80001e8:	ea83 0301 	eor.w	r3, r3, r1
 80001ec:	b113      	cbz	r3, 80001f4 <memchr+0x74>
 80001ee:	d1f8      	bne.n	80001e2 <memchr+0x62>
 80001f0:	2000      	movs	r0, #0
 80001f2:	4770      	bx	lr
 80001f4:	3801      	subs	r0, #1
 80001f6:	4770      	bx	lr
 80001f8:	2d00      	cmp	r5, #0
 80001fa:	bf06      	itte	eq
 80001fc:	4635      	moveq	r5, r6
 80001fe:	3803      	subeq	r0, #3
 8000200:	3807      	subne	r0, #7
 8000202:	f015 0f01 	tst.w	r5, #1
 8000206:	d107      	bne.n	8000218 <memchr+0x98>
 8000208:	3001      	adds	r0, #1
 800020a:	f415 7f80 	tst.w	r5, #256	; 0x100
 800020e:	bf02      	ittt	eq
 8000210:	3001      	addeq	r0, #1
 8000212:	f415 3fc0 	tsteq.w	r5, #98304	; 0x18000
 8000216:	3001      	addeq	r0, #1
 8000218:	bcf0      	pop	{r4, r5, r6, r7}
 800021a:	3801      	subs	r0, #1
 800021c:	4770      	bx	lr
 800021e:	bf00      	nop

08000220 <__aeabi_drsub>:
 8000220:	f081 4100 	eor.w	r1, r1, #2147483648	; 0x80000000
 8000224:	e002      	b.n	800022c <__adddf3>
 8000226:	bf00      	nop

08000228 <__aeabi_dsub>:
 8000228:	f083 4300 	eor.w	r3, r3, #2147483648	; 0x80000000

0800022c <__adddf3>:
 800022c:	b530      	push	{r4, r5, lr}
 800022e:	ea4f 0441 	mov.w	r4, r1, lsl #1
 8000232:	ea4f 0543 	mov.w	r5, r3, lsl #1
 8000236:	ea94 0f05 	teq	r4, r5
 800023a:	bf08      	it	eq
 800023c:	ea90 0f02 	teqeq	r0, r2
 8000240:	bf1f      	itttt	ne
 8000242:	ea54 0c00 	orrsne.w	ip, r4, r0
 8000246:	ea55 0c02 	orrsne.w	ip, r5, r2
 800024a:	ea7f 5c64 	mvnsne.w	ip, r4, asr #21
 800024e:	ea7f 5c65 	mvnsne.w	ip, r5, asr #21
 8000252:	f000 80e2 	beq.w	800041a <__adddf3+0x1ee>
 8000256:	ea4f 5454 	mov.w	r4, r4, lsr #21
 800025a:	ebd4 5555 	rsbs	r5, r4, r5, lsr #21
 800025e:	bfb8      	it	lt
 8000260:	426d      	neglt	r5, r5
 8000262:	dd0c      	ble.n	800027e <__adddf3+0x52>
 8000264:	442c      	add	r4, r5
 8000266:	ea80 0202 	eor.w	r2, r0, r2
 800026a:	ea81 0303 	eor.w	r3, r1, r3
 800026e:	ea82 0000 	eor.w	r0, r2, r0
 8000272:	ea83 0101 	eor.w	r1, r3, r1
 8000276:	ea80 0202 	eor.w	r2, r0, r2
 800027a:	ea81 0303 	eor.w	r3, r1, r3
 800027e:	2d36      	cmp	r5, #54	; 0x36
 8000280:	bf88      	it	hi
 8000282:	bd30      	pophi	{r4, r5, pc}
 8000284:	f011 4f00 	tst.w	r1, #2147483648	; 0x80000000
 8000288:	ea4f 3101 	mov.w	r1, r1, lsl #12
 800028c:	f44f 1c80 	mov.w	ip, #1048576	; 0x100000
 8000290:	ea4c 3111 	orr.w	r1, ip, r1, lsr #12
 8000294:	d002      	beq.n	800029c <__adddf3+0x70>
 8000296:	4240      	negs	r0, r0
 8000298:	eb61 0141 	sbc.w	r1, r1, r1, lsl #1
 800029c:	f013 4f00 	tst.w	r3, #2147483648	; 0x80000000
 80002a0:	ea4f 3303 	mov.w	r3, r3, lsl #12
 80002a4:	ea4c 3313 	orr.w	r3, ip, r3, lsr #12
 80002a8:	d002      	beq.n	80002b0 <__adddf3+0x84>
 80002aa:	4252      	negs	r2, r2
 80002ac:	eb63 0343 	sbc.w	r3, r3, r3, lsl #1
 80002b0:	ea94 0f05 	teq	r4, r5
 80002b4:	f000 80a7 	beq.w	8000406 <__adddf3+0x1da>
 80002b8:	f1a4 0401 	sub.w	r4, r4, #1
 80002bc:	f1d5 0e20 	rsbs	lr, r5, #32
 80002c0:	db0d      	blt.n	80002de <__adddf3+0xb2>
 80002c2:	fa02 fc0e 	lsl.w	ip, r2, lr
 80002c6:	fa22 f205 	lsr.w	r2, r2, r5
 80002ca:	1880      	adds	r0, r0, r2
 80002cc:	f141 0100 	adc.w	r1, r1, #0
 80002d0:	fa03 f20e 	lsl.w	r2, r3, lr
 80002d4:	1880      	adds	r0, r0, r2
 80002d6:	fa43 f305 	asr.w	r3, r3, r5
 80002da:	4159      	adcs	r1, r3
 80002dc:	e00e      	b.n	80002fc <__adddf3+0xd0>
 80002de:	f1a5 0520 	sub.w	r5, r5, #32
 80002e2:	f10e 0e20 	add.w	lr, lr, #32
 80002e6:	2a01      	cmp	r2, #1
 80002e8:	fa03 fc0e 	lsl.w	ip, r3, lr
 80002ec:	bf28      	it	cs
 80002ee:	f04c 0c02 	orrcs.w	ip, ip, #2
 80002f2:	fa43 f305 	asr.w	r3, r3, r5
 80002f6:	18c0      	adds	r0, r0, r3
 80002f8:	eb51 71e3 	adcs.w	r1, r1, r3, asr #31
 80002fc:	f001 4500 	and.w	r5, r1, #2147483648	; 0x80000000
 8000300:	d507      	bpl.n	8000312 <__adddf3+0xe6>
 8000302:	f04f 0e00 	mov.w	lr, #0
 8000306:	f1dc 0c00 	rsbs	ip, ip, #0
 800030a:	eb7e 0000 	sbcs.w	r0, lr, r0
 800030e:	eb6e 0101 	sbc.w	r1, lr, r1
 8000312:	f5b1 1f80 	cmp.w	r1, #1048576	; 0x100000
 8000316:	d31b      	bcc.n	8000350 <__adddf3+0x124>
 8000318:	f5b1 1f00 	cmp.w	r1, #2097152	; 0x200000
 800031c:	d30c      	bcc.n	8000338 <__adddf3+0x10c>
 800031e:	0849      	lsrs	r1, r1, #1
 8000320:	ea5f 0030 	movs.w	r0, r0, rrx
 8000324:	ea4f 0c3c 	mov.w	ip, ip, rrx
 8000328:	f104 0401 	add.w	r4, r4, #1
 800032c:	ea4f 5244 	mov.w	r2, r4, lsl #21
 8000330:	f512 0f80 	cmn.w	r2, #4194304	; 0x400000
 8000334:	f080 809a 	bcs.w	800046c <__adddf3+0x240>
 8000338:	f1bc 4f00 	cmp.w	ip, #2147483648	; 0x80000000
 800033c:	bf08      	it	eq
 800033e:	ea5f 0c50 	movseq.w	ip, r0, lsr #1
 8000342:	f150 0000 	adcs.w	r0, r0, #0
 8000346:	eb41 5104 	adc.w	r1, r1, r4, lsl #20
 800034a:	ea41 0105 	orr.w	r1, r1, r5
 800034e:	bd30      	pop	{r4, r5, pc}
 8000350:	ea5f 0c4c 	movs.w	ip, ip, lsl #1
 8000354:	4140      	adcs	r0, r0
 8000356:	eb41 0101 	adc.w	r1, r1, r1
 800035a:	3c01      	subs	r4, #1
 800035c:	bf28      	it	cs
 800035e:	f5b1 1f80 	cmpcs.w	r1, #1048576	; 0x100000
 8000362:	d2e9      	bcs.n	8000338 <__adddf3+0x10c>
 8000364:	f091 0f00 	teq	r1, #0
 8000368:	bf04      	itt	eq
 800036a:	4601      	moveq	r1, r0
 800036c:	2000      	moveq	r0, #0
 800036e:	fab1 f381 	clz	r3, r1
 8000372:	bf08      	it	eq
 8000374:	3320      	addeq	r3, #32
 8000376:	f1a3 030b 	sub.w	r3, r3, #11
 800037a:	f1b3 0220 	subs.w	r2, r3, #32
 800037e:	da0c      	bge.n	800039a <__adddf3+0x16e>
 8000380:	320c      	adds	r2, #12
 8000382:	dd08      	ble.n	8000396 <__adddf3+0x16a>
 8000384:	f102 0c14 	add.w	ip, r2, #20
 8000388:	f1c2 020c 	rsb	r2, r2, #12
 800038c:	fa01 f00c 	lsl.w	r0, r1, ip
 8000390:	fa21 f102 	lsr.w	r1, r1, r2
 8000394:	e00c      	b.n	80003b0 <__adddf3+0x184>
 8000396:	f102 0214 	add.w	r2, r2, #20
 800039a:	bfd8      	it	le
 800039c:	f1c2 0c20 	rsble	ip, r2, #32
 80003a0:	fa01 f102 	lsl.w	r1, r1, r2
 80003a4:	fa20 fc0c 	lsr.w	ip, r0, ip
 80003a8:	bfdc      	itt	le
 80003aa:	ea41 010c 	orrle.w	r1, r1, ip
 80003ae:	4090      	lslle	r0, r2
 80003b0:	1ae4      	subs	r4, r4, r3
 80003b2:	bfa2      	ittt	ge
 80003b4:	eb01 5104 	addge.w	r1, r1, r4, lsl #20
 80003b8:	4329      	orrge	r1, r5
 80003ba:	bd30      	popge	{r4, r5, pc}
 80003bc:	ea6f 0404 	mvn.w	r4, r4
 80003c0:	3c1f      	subs	r4, #31
 80003c2:	da1c      	bge.n	80003fe <__adddf3+0x1d2>
 80003c4:	340c      	adds	r4, #12
 80003c6:	dc0e      	bgt.n	80003e6 <__adddf3+0x1ba>
 80003c8:	f104 0414 	add.w	r4, r4, #20
 80003cc:	f1c4 0220 	rsb	r2, r4, #32
 80003d0:	fa20 f004 	lsr.w	r0, r0, r4
 80003d4:	fa01 f302 	lsl.w	r3, r1, r2
 80003d8:	ea40 0003 	orr.w	r0, r0, r3
 80003dc:	fa21 f304 	lsr.w	r3, r1, r4
 80003e0:	ea45 0103 	orr.w	r1, r5, r3
 80003e4:	bd30      	pop	{r4, r5, pc}
 80003e6:	f1c4 040c 	rsb	r4, r4, #12
 80003ea:	f1c4 0220 	rsb	r2, r4, #32
 80003ee:	fa20 f002 	lsr.w	r0, r0, r2
 80003f2:	fa01 f304 	lsl.w	r3, r1, r4
 80003f6:	ea40 0003 	orr.w	r0, r0, r3
 80003fa:	4629      	mov	r1, r5
 80003fc:	bd30      	pop	{r4, r5, pc}
 80003fe:	fa21 f004 	lsr.w	r0, r1, r4
 8000402:	4629      	mov	r1, r5
 8000404:	bd30      	pop	{r4, r5, pc}
 8000406:	f094 0f00 	teq	r4, #0
 800040a:	f483 1380 	eor.w	r3, r3, #1048576	; 0x100000
 800040e:	bf06      	itte	eq
 8000410:	f481 1180 	eoreq.w	r1, r1, #1048576	; 0x100000
 8000414:	3401      	addeq	r4, #1
 8000416:	3d01      	subne	r5, #1
 8000418:	e74e      	b.n	80002b8 <__adddf3+0x8c>
 800041a:	ea7f 5c64 	mvns.w	ip, r4, asr #21
 800041e:	bf18      	it	ne
 8000420:	ea7f 5c65 	mvnsne.w	ip, r5, asr #21
 8000424:	d029      	beq.n	800047a <__adddf3+0x24e>
 8000426:	ea94 0f05 	teq	r4, r5
 800042a:	bf08      	it	eq
 800042c:	ea90 0f02 	teqeq	r0, r2
 8000430:	d005      	beq.n	800043e <__adddf3+0x212>
 8000432:	ea54 0c00 	orrs.w	ip, r4, r0
 8000436:	bf04      	itt	eq
 8000438:	4619      	moveq	r1, r3
 800043a:	4610      	moveq	r0, r2
 800043c:	bd30      	pop	{r4, r5, pc}
 800043e:	ea91 0f03 	teq	r1, r3
 8000442:	bf1e      	ittt	ne
 8000444:	2100      	movne	r1, #0
 8000446:	2000      	movne	r0, #0
 8000448:	bd30      	popne	{r4, r5, pc}
 800044a:	ea5f 5c54 	movs.w	ip, r4, lsr #21
 800044e:	d105      	bne.n	800045c <__adddf3+0x230>
 8000450:	0040      	lsls	r0, r0, #1
 8000452:	4149      	adcs	r1, r1
 8000454:	bf28      	it	cs
 8000456:	f041 4100 	orrcs.w	r1, r1, #2147483648	; 0x80000000
 800045a:	bd30      	pop	{r4, r5, pc}
 800045c:	f514 0480 	adds.w	r4, r4, #4194304	; 0x400000
 8000460:	bf3c      	itt	cc
 8000462:	f501 1180 	addcc.w	r1, r1, #1048576	; 0x100000
 8000466:	bd30      	popcc	{r4, r5, pc}
 8000468:	f001 4500 	and.w	r5, r1, #2147483648	; 0x80000000
 800046c:	f045 41fe 	orr.w	r1, r5, #2130706432	; 0x7f000000
 8000470:	f441 0170 	orr.w	r1, r1, #15728640	; 0xf00000
 8000474:	f04f 0000 	mov.w	r0, #0
 8000478:	bd30      	pop	{r4, r5, pc}
 800047a:	ea7f 5c64 	mvns.w	ip, r4, asr #21
 800047e:	bf1a      	itte	ne
 8000480:	4619      	movne	r1, r3
 8000482:	4610      	movne	r0, r2
 8000484:	ea7f 5c65 	mvnseq.w	ip, r5, asr #21
 8000488:	bf1c      	itt	ne
 800048a:	460b      	movne	r3, r1
 800048c:	4602      	movne	r2, r0
 800048e:	ea50 3401 	orrs.w	r4, r0, r1, lsl #12
 8000492:	bf06      	itte	eq
 8000494:	ea52 3503 	orrseq.w	r5, r2, r3, lsl #12
 8000498:	ea91 0f03 	teqeq	r1, r3
 800049c:	f441 2100 	orrne.w	r1, r1, #524288	; 0x80000
 80004a0:	bd30      	pop	{r4, r5, pc}
 80004a2:	bf00      	nop

080004a4 <__aeabi_ui2d>:
 80004a4:	f090 0f00 	teq	r0, #0
 80004a8:	bf04      	itt	eq
 80004aa:	2100      	moveq	r1, #0
 80004ac:	4770      	bxeq	lr
 80004ae:	b530      	push	{r4, r5, lr}
 80004b0:	f44f 6480 	mov.w	r4, #1024	; 0x400
 80004b4:	f104 0432 	add.w	r4, r4, #50	; 0x32
 80004b8:	f04f 0500 	mov.w	r5, #0
 80004bc:	f04f 0100 	mov.w	r1, #0
 80004c0:	e750      	b.n	8000364 <__adddf3+0x138>
 80004c2:	bf00      	nop

080004c4 <__aeabi_i2d>:
 80004c4:	f090 0f00 	teq	r0, #0
 80004c8:	bf04      	itt	eq
 80004ca:	2100      	moveq	r1, #0
 80004cc:	4770      	bxeq	lr
 80004ce:	b530      	push	{r4, r5, lr}
 80004d0:	f44f 6480 	mov.w	r4, #1024	; 0x400
 80004d4:	f104 0432 	add.w	r4, r4, #50	; 0x32
 80004d8:	f010 4500 	ands.w	r5, r0, #2147483648	; 0x80000000
 80004dc:	bf48      	it	mi
 80004de:	4240      	negmi	r0, r0
 80004e0:	f04f 0100 	mov.w	r1, #0
 80004e4:	e73e      	b.n	8000364 <__adddf3+0x138>
 80004e6:	bf00      	nop

080004e8 <__aeabi_f2d>:
 80004e8:	0042      	lsls	r2, r0, #1
 80004ea:	ea4f 01e2 	mov.w	r1, r2, asr #3
 80004ee:	ea4f 0131 	mov.w	r1, r1, rrx
 80004f2:	ea4f 7002 	mov.w	r0, r2, lsl #28
 80004f6:	bf1f      	itttt	ne
 80004f8:	f012 437f 	andsne.w	r3, r2, #4278190080	; 0xff000000
 80004fc:	f093 4f7f 	teqne	r3, #4278190080	; 0xff000000
 8000500:	f081 5160 	eorne.w	r1, r1, #939524096	; 0x38000000
 8000504:	4770      	bxne	lr
 8000506:	f032 427f 	bics.w	r2, r2, #4278190080	; 0xff000000
 800050a:	bf08      	it	eq
 800050c:	4770      	bxeq	lr
 800050e:	f093 4f7f 	teq	r3, #4278190080	; 0xff000000
 8000512:	bf04      	itt	eq
 8000514:	f441 2100 	orreq.w	r1, r1, #524288	; 0x80000
 8000518:	4770      	bxeq	lr
 800051a:	b530      	push	{r4, r5, lr}
 800051c:	f44f 7460 	mov.w	r4, #896	; 0x380
 8000520:	f001 4500 	and.w	r5, r1, #2147483648	; 0x80000000
 8000524:	f021 4100 	bic.w	r1, r1, #2147483648	; 0x80000000
 8000528:	e71c      	b.n	8000364 <__adddf3+0x138>
 800052a:	bf00      	nop

0800052c <__aeabi_ul2d>:
 800052c:	ea50 0201 	orrs.w	r2, r0, r1
 8000530:	bf08      	it	eq
 8000532:	4770      	bxeq	lr
 8000534:	b530      	push	{r4, r5, lr}
 8000536:	f04f 0500 	mov.w	r5, #0
 800053a:	e00a      	b.n	8000552 <__aeabi_l2d+0x16>

0800053c <__aeabi_l2d>:
 800053c:	ea50 0201 	orrs.w	r2, r0, r1
 8000540:	bf08      	it	eq
 8000542:	4770      	bxeq	lr
 8000544:	b530      	push	{r4, r5, lr}
 8000546:	f011 4500 	ands.w	r5, r1, #2147483648	; 0x80000000
 800054a:	d502      	bpl.n	8000552 <__aeabi_l2d+0x16>
 800054c:	4240      	negs	r0, r0
 800054e:	eb61 0141 	sbc.w	r1, r1, r1, lsl #1
 8000552:	f44f 6480 	mov.w	r4, #1024	; 0x400
 8000556:	f104 0432 	add.w	r4, r4, #50	; 0x32
 800055a:	ea5f 5c91 	movs.w	ip, r1, lsr #22
 800055e:	f43f aed8 	beq.w	8000312 <__adddf3+0xe6>
 8000562:	f04f 0203 	mov.w	r2, #3
 8000566:	ea5f 0cdc 	movs.w	ip, ip, lsr #3
 800056a:	bf18      	it	ne
 800056c:	3203      	addne	r2, #3
 800056e:	ea5f 0cdc 	movs.w	ip, ip, lsr #3
 8000572:	bf18      	it	ne
 8000574:	3203      	addne	r2, #3
 8000576:	eb02 02dc 	add.w	r2, r2, ip, lsr #3
 800057a:	f1c2 0320 	rsb	r3, r2, #32
 800057e:	fa00 fc03 	lsl.w	ip, r0, r3
 8000582:	fa20 f002 	lsr.w	r0, r0, r2
 8000586:	fa01 fe03 	lsl.w	lr, r1, r3
 800058a:	ea40 000e 	orr.w	r0, r0, lr
 800058e:	fa21 f102 	lsr.w	r1, r1, r2
 8000592:	4414      	add	r4, r2
 8000594:	e6bd      	b.n	8000312 <__adddf3+0xe6>
 8000596:	bf00      	nop

08000598 <__aeabi_dmul>:
 8000598:	b570      	push	{r4, r5, r6, lr}
 800059a:	f04f 0cff 	mov.w	ip, #255	; 0xff
 800059e:	f44c 6ce0 	orr.w	ip, ip, #1792	; 0x700
 80005a2:	ea1c 5411 	ands.w	r4, ip, r1, lsr #20
 80005a6:	bf1d      	ittte	ne
 80005a8:	ea1c 5513 	andsne.w	r5, ip, r3, lsr #20
 80005ac:	ea94 0f0c 	teqne	r4, ip
 80005b0:	ea95 0f0c 	teqne	r5, ip
 80005b4:	f000 f8de 	bleq	8000774 <__aeabi_dmul+0x1dc>
 80005b8:	442c      	add	r4, r5
 80005ba:	ea81 0603 	eor.w	r6, r1, r3
 80005be:	ea21 514c 	bic.w	r1, r1, ip, lsl #21
 80005c2:	ea23 534c 	bic.w	r3, r3, ip, lsl #21
 80005c6:	ea50 3501 	orrs.w	r5, r0, r1, lsl #12
 80005ca:	bf18      	it	ne
 80005cc:	ea52 3503 	orrsne.w	r5, r2, r3, lsl #12
 80005d0:	f441 1180 	orr.w	r1, r1, #1048576	; 0x100000
 80005d4:	f443 1380 	orr.w	r3, r3, #1048576	; 0x100000
 80005d8:	d038      	beq.n	800064c <__aeabi_dmul+0xb4>
 80005da:	fba0 ce02 	umull	ip, lr, r0, r2
 80005de:	f04f 0500 	mov.w	r5, #0
 80005e2:	fbe1 e502 	umlal	lr, r5, r1, r2
 80005e6:	f006 4200 	and.w	r2, r6, #2147483648	; 0x80000000
 80005ea:	fbe0 e503 	umlal	lr, r5, r0, r3
 80005ee:	f04f 0600 	mov.w	r6, #0
 80005f2:	fbe1 5603 	umlal	r5, r6, r1, r3
 80005f6:	f09c 0f00 	teq	ip, #0
 80005fa:	bf18      	it	ne
 80005fc:	f04e 0e01 	orrne.w	lr, lr, #1
 8000600:	f1a4 04ff 	sub.w	r4, r4, #255	; 0xff
 8000604:	f5b6 7f00 	cmp.w	r6, #512	; 0x200
 8000608:	f564 7440 	sbc.w	r4, r4, #768	; 0x300
 800060c:	d204      	bcs.n	8000618 <__aeabi_dmul+0x80>
 800060e:	ea5f 0e4e 	movs.w	lr, lr, lsl #1
 8000612:	416d      	adcs	r5, r5
 8000614:	eb46 0606 	adc.w	r6, r6, r6
 8000618:	ea42 21c6 	orr.w	r1, r2, r6, lsl #11
 800061c:	ea41 5155 	orr.w	r1, r1, r5, lsr #21
 8000620:	ea4f 20c5 	mov.w	r0, r5, lsl #11
 8000624:	ea40 505e 	orr.w	r0, r0, lr, lsr #21
 8000628:	ea4f 2ece 	mov.w	lr, lr, lsl #11
 800062c:	f1b4 0cfd 	subs.w	ip, r4, #253	; 0xfd
 8000630:	bf88      	it	hi
 8000632:	f5bc 6fe0 	cmphi.w	ip, #1792	; 0x700
 8000636:	d81e      	bhi.n	8000676 <__aeabi_dmul+0xde>
 8000638:	f1be 4f00 	cmp.w	lr, #2147483648	; 0x80000000
 800063c:	bf08      	it	eq
 800063e:	ea5f 0e50 	movseq.w	lr, r0, lsr #1
 8000642:	f150 0000 	adcs.w	r0, r0, #0
 8000646:	eb41 5104 	adc.w	r1, r1, r4, lsl #20
 800064a:	bd70      	pop	{r4, r5, r6, pc}
 800064c:	f006 4600 	and.w	r6, r6, #2147483648	; 0x80000000
 8000650:	ea46 0101 	orr.w	r1, r6, r1
 8000654:	ea40 0002 	orr.w	r0, r0, r2
 8000658:	ea81 0103 	eor.w	r1, r1, r3
 800065c:	ebb4 045c 	subs.w	r4, r4, ip, lsr #1
 8000660:	bfc2      	ittt	gt
 8000662:	ebd4 050c 	rsbsgt	r5, r4, ip
 8000666:	ea41 5104 	orrgt.w	r1, r1, r4, lsl #20
 800066a:	bd70      	popgt	{r4, r5, r6, pc}
 800066c:	f441 1180 	orr.w	r1, r1, #1048576	; 0x100000
 8000670:	f04f 0e00 	mov.w	lr, #0
 8000674:	3c01      	subs	r4, #1
 8000676:	f300 80ab 	bgt.w	80007d0 <__aeabi_dmul+0x238>
 800067a:	f114 0f36 	cmn.w	r4, #54	; 0x36
 800067e:	bfde      	ittt	le
 8000680:	2000      	movle	r0, #0
 8000682:	f001 4100 	andle.w	r1, r1, #2147483648	; 0x80000000
 8000686:	bd70      	pople	{r4, r5, r6, pc}
 8000688:	f1c4 0400 	rsb	r4, r4, #0
 800068c:	3c20      	subs	r4, #32
 800068e:	da35      	bge.n	80006fc <__aeabi_dmul+0x164>
 8000690:	340c      	adds	r4, #12
 8000692:	dc1b      	bgt.n	80006cc <__aeabi_dmul+0x134>
 8000694:	f104 0414 	add.w	r4, r4, #20
 8000698:	f1c4 0520 	rsb	r5, r4, #32
 800069c:	fa00 f305 	lsl.w	r3, r0, r5
 80006a0:	fa20 f004 	lsr.w	r0, r0, r4
 80006a4:	fa01 f205 	lsl.w	r2, r1, r5
 80006a8:	ea40 0002 	orr.w	r0, r0, r2
 80006ac:	f001 4200 	and.w	r2, r1, #2147483648	; 0x80000000
 80006b0:	f021 4100 	bic.w	r1, r1, #2147483648	; 0x80000000
 80006b4:	eb10 70d3 	adds.w	r0, r0, r3, lsr #31
 80006b8:	fa21 f604 	lsr.w	r6, r1, r4
 80006bc:	eb42 0106 	adc.w	r1, r2, r6
 80006c0:	ea5e 0e43 	orrs.w	lr, lr, r3, lsl #1
 80006c4:	bf08      	it	eq
 80006c6:	ea20 70d3 	biceq.w	r0, r0, r3, lsr #31
 80006ca:	bd70      	pop	{r4, r5, r6, pc}
 80006cc:	f1c4 040c 	rsb	r4, r4, #12
 80006d0:	f1c4 0520 	rsb	r5, r4, #32
 80006d4:	fa00 f304 	lsl.w	r3, r0, r4
 80006d8:	fa20 f005 	lsr.w	r0, r0, r5
 80006dc:	fa01 f204 	lsl.w	r2, r1, r4
 80006e0:	ea40 0002 	orr.w	r0, r0, r2
 80006e4:	f001 4100 	and.w	r1, r1, #2147483648	; 0x80000000
 80006e8:	eb10 70d3 	adds.w	r0, r0, r3, lsr #31
 80006ec:	f141 0100 	adc.w	r1, r1, #0
 80006f0:	ea5e 0e43 	orrs.w	lr, lr, r3, lsl #1
 80006f4:	bf08      	it	eq
 80006f6:	ea20 70d3 	biceq.w	r0, r0, r3, lsr #31
 80006fa:	bd70      	pop	{r4, r5, r6, pc}
 80006fc:	f1c4 0520 	rsb	r5, r4, #32
 8000700:	fa00 f205 	lsl.w	r2, r0, r5
 8000704:	ea4e 0e02 	orr.w	lr, lr, r2
 8000708:	fa20 f304 	lsr.w	r3, r0, r4
 800070c:	fa01 f205 	lsl.w	r2, r1, r5
 8000710:	ea43 0302 	orr.w	r3, r3, r2
 8000714:	fa21 f004 	lsr.w	r0, r1, r4
 8000718:	f001 4100 	and.w	r1, r1, #2147483648	; 0x80000000
 800071c:	fa21 f204 	lsr.w	r2, r1, r4
 8000720:	ea20 0002 	bic.w	r0, r0, r2
 8000724:	eb00 70d3 	add.w	r0, r0, r3, lsr #31
 8000728:	ea5e 0e43 	orrs.w	lr, lr, r3, lsl #1
 800072c:	bf08      	it	eq
 800072e:	ea20 70d3 	biceq.w	r0, r0, r3, lsr #31
 8000732:	bd70      	pop	{r4, r5, r6, pc}
 8000734:	f094 0f00 	teq	r4, #0
 8000738:	d10f      	bne.n	800075a <__aeabi_dmul+0x1c2>
 800073a:	f001 4600 	and.w	r6, r1, #2147483648	; 0x80000000
 800073e:	0040      	lsls	r0, r0, #1
 8000740:	eb41 0101 	adc.w	r1, r1, r1
 8000744:	f411 1f80 	tst.w	r1, #1048576	; 0x100000
 8000748:	bf08      	it	eq
 800074a:	3c01      	subeq	r4, #1
 800074c:	d0f7      	beq.n	800073e <__aeabi_dmul+0x1a6>
 800074e:	ea41 0106 	orr.w	r1, r1, r6
 8000752:	f095 0f00 	teq	r5, #0
 8000756:	bf18      	it	ne
 8000758:	4770      	bxne	lr
 800075a:	f003 4600 	and.w	r6, r3, #2147483648	; 0x80000000
 800075e:	0052      	lsls	r2, r2, #1
 8000760:	eb43 0303 	adc.w	r3, r3, r3
 8000764:	f413 1f80 	tst.w	r3, #1048576	; 0x100000
 8000768:	bf08      	it	eq
 800076a:	3d01      	subeq	r5, #1
 800076c:	d0f7      	beq.n	800075e <__aeabi_dmul+0x1c6>
 800076e:	ea43 0306 	orr.w	r3, r3, r6
 8000772:	4770      	bx	lr
 8000774:	ea94 0f0c 	teq	r4, ip
 8000778:	ea0c 5513 	and.w	r5, ip, r3, lsr #20
 800077c:	bf18      	it	ne
 800077e:	ea95 0f0c 	teqne	r5, ip
 8000782:	d00c      	beq.n	800079e <__aeabi_dmul+0x206>
 8000784:	ea50 0641 	orrs.w	r6, r0, r1, lsl #1
 8000788:	bf18      	it	ne
 800078a:	ea52 0643 	orrsne.w	r6, r2, r3, lsl #1
 800078e:	d1d1      	bne.n	8000734 <__aeabi_dmul+0x19c>
 8000790:	ea81 0103 	eor.w	r1, r1, r3
 8000794:	f001 4100 	and.w	r1, r1, #2147483648	; 0x80000000
 8000798:	f04f 0000 	mov.w	r0, #0
 800079c:	bd70      	pop	{r4, r5, r6, pc}
 800079e:	ea50 0641 	orrs.w	r6, r0, r1, lsl #1
 80007a2:	bf06      	itte	eq
 80007a4:	4610      	moveq	r0, r2
 80007a6:	4619      	moveq	r1, r3
 80007a8:	ea52 0643 	orrsne.w	r6, r2, r3, lsl #1
 80007ac:	d019      	beq.n	80007e2 <__aeabi_dmul+0x24a>
 80007ae:	ea94 0f0c 	teq	r4, ip
 80007b2:	d102      	bne.n	80007ba <__aeabi_dmul+0x222>
 80007b4:	ea50 3601 	orrs.w	r6, r0, r1, lsl #12
 80007b8:	d113      	bne.n	80007e2 <__aeabi_dmul+0x24a>
 80007ba:	ea95 0f0c 	teq	r5, ip
 80007be:	d105      	bne.n	80007cc <__aeabi_dmul+0x234>
 80007c0:	ea52 3603 	orrs.w	r6, r2, r3, lsl #12
 80007c4:	bf1c      	itt	ne
 80007c6:	4610      	movne	r0, r2
 80007c8:	4619      	movne	r1, r3
 80007ca:	d10a      	bne.n	80007e2 <__aeabi_dmul+0x24a>
 80007cc:	ea81 0103 	eor.w	r1, r1, r3
 80007d0:	f001 4100 	and.w	r1, r1, #2147483648	; 0x80000000
 80007d4:	f041 41fe 	orr.w	r1, r1, #2130706432	; 0x7f000000
 80007d8:	f441 0170 	orr.w	r1, r1, #15728640	; 0xf00000
 80007dc:	f04f 0000 	mov.w	r0, #0
 80007e0:	bd70      	pop	{r4, r5, r6, pc}
 80007e2:	f041 41fe 	orr.w	r1, r1, #2130706432	; 0x7f000000
 80007e6:	f441 0178 	orr.w	r1, r1, #16252928	; 0xf80000
 80007ea:	bd70      	pop	{r4, r5, r6, pc}

080007ec <__aeabi_ddiv>:
 80007ec:	b570      	push	{r4, r5, r6, lr}
 80007ee:	f04f 0cff 	mov.w	ip, #255	; 0xff
 80007f2:	f44c 6ce0 	orr.w	ip, ip, #1792	; 0x700
 80007f6:	ea1c 5411 	ands.w	r4, ip, r1, lsr #20
 80007fa:	bf1d      	ittte	ne
 80007fc:	ea1c 5513 	andsne.w	r5, ip, r3, lsr #20
 8000800:	ea94 0f0c 	teqne	r4, ip
 8000804:	ea95 0f0c 	teqne	r5, ip
 8000808:	f000 f8a7 	bleq	800095a <__aeabi_ddiv+0x16e>
 800080c:	eba4 0405 	sub.w	r4, r4, r5
 8000810:	ea81 0e03 	eor.w	lr, r1, r3
 8000814:	ea52 3503 	orrs.w	r5, r2, r3, lsl #12
 8000818:	ea4f 3101 	mov.w	r1, r1, lsl #12
 800081c:	f000 8088 	beq.w	8000930 <__aeabi_ddiv+0x144>
 8000820:	ea4f 3303 	mov.w	r3, r3, lsl #12
 8000824:	f04f 5580 	mov.w	r5, #268435456	; 0x10000000
 8000828:	ea45 1313 	orr.w	r3, r5, r3, lsr #4
 800082c:	ea43 6312 	orr.w	r3, r3, r2, lsr #24
 8000830:	ea4f 2202 	mov.w	r2, r2, lsl #8
 8000834:	ea45 1511 	orr.w	r5, r5, r1, lsr #4
 8000838:	ea45 6510 	orr.w	r5, r5, r0, lsr #24
 800083c:	ea4f 2600 	mov.w	r6, r0, lsl #8
 8000840:	f00e 4100 	and.w	r1, lr, #2147483648	; 0x80000000
 8000844:	429d      	cmp	r5, r3
 8000846:	bf08      	it	eq
 8000848:	4296      	cmpeq	r6, r2
 800084a:	f144 04fd 	adc.w	r4, r4, #253	; 0xfd
 800084e:	f504 7440 	add.w	r4, r4, #768	; 0x300
 8000852:	d202      	bcs.n	800085a <__aeabi_ddiv+0x6e>
 8000854:	085b      	lsrs	r3, r3, #1
 8000856:	ea4f 0232 	mov.w	r2, r2, rrx
 800085a:	1ab6      	subs	r6, r6, r2
 800085c:	eb65 0503 	sbc.w	r5, r5, r3
 8000860:	085b      	lsrs	r3, r3, #1
 8000862:	ea4f 0232 	mov.w	r2, r2, rrx
 8000866:	f44f 1080 	mov.w	r0, #1048576	; 0x100000
 800086a:	f44f 2c00 	mov.w	ip, #524288	; 0x80000
 800086e:	ebb6 0e02 	subs.w	lr, r6, r2
 8000872:	eb75 0e03 	sbcs.w	lr, r5, r3
 8000876:	bf22      	ittt	cs
 8000878:	1ab6      	subcs	r6, r6, r2
 800087a:	4675      	movcs	r5, lr
 800087c:	ea40 000c 	orrcs.w	r0, r0, ip
 8000880:	085b      	lsrs	r3, r3, #1
 8000882:	ea4f 0232 	mov.w	r2, r2, rrx
 8000886:	ebb6 0e02 	subs.w	lr, r6, r2
 800088a:	eb75 0e03 	sbcs.w	lr, r5, r3
 800088e:	bf22      	ittt	cs
 8000890:	1ab6      	subcs	r6, r6, r2
 8000892:	4675      	movcs	r5, lr
 8000894:	ea40 005c 	orrcs.w	r0, r0, ip, lsr #1
 8000898:	085b      	lsrs	r3, r3, #1
 800089a:	ea4f 0232 	mov.w	r2, r2, rrx
 800089e:	ebb6 0e02 	subs.w	lr, r6, r2
 80008a2:	eb75 0e03 	sbcs.w	lr, r5, r3
 80008a6:	bf22      	ittt	cs
 80008a8:	1ab6      	subcs	r6, r6, r2
 80008aa:	4675      	movcs	r5, lr
 80008ac:	ea40 009c 	orrcs.w	r0, r0, ip, lsr #2
 80008b0:	085b      	lsrs	r3, r3, #1
 80008b2:	ea4f 0232 	mov.w	r2, r2, rrx
 80008b6:	ebb6 0e02 	subs.w	lr, r6, r2
 80008ba:	eb75 0e03 	sbcs.w	lr, r5, r3
 80008be:	bf22      	ittt	cs
 80008c0:	1ab6      	subcs	r6, r6, r2
 80008c2:	4675      	movcs	r5, lr
 80008c4:	ea40 00dc 	orrcs.w	r0, r0, ip, lsr #3
 80008c8:	ea55 0e06 	orrs.w	lr, r5, r6
 80008cc:	d018      	beq.n	8000900 <__aeabi_ddiv+0x114>
 80008ce:	ea4f 1505 	mov.w	r5, r5, lsl #4
 80008d2:	ea45 7516 	orr.w	r5, r5, r6, lsr #28
 80008d6:	ea4f 1606 	mov.w	r6, r6, lsl #4
 80008da:	ea4f 03c3 	mov.w	r3, r3, lsl #3
 80008de:	ea43 7352 	orr.w	r3, r3, r2, lsr #29
 80008e2:	ea4f 02c2 	mov.w	r2, r2, lsl #3
 80008e6:	ea5f 1c1c 	movs.w	ip, ip, lsr #4
 80008ea:	d1c0      	bne.n	800086e <__aeabi_ddiv+0x82>
 80008ec:	f411 1f80 	tst.w	r1, #1048576	; 0x100000
 80008f0:	d10b      	bne.n	800090a <__aeabi_ddiv+0x11e>
 80008f2:	ea41 0100 	orr.w	r1, r1, r0
 80008f6:	f04f 0000 	mov.w	r0, #0
 80008fa:	f04f 4c00 	mov.w	ip, #2147483648	; 0x80000000
 80008fe:	e7b6      	b.n	800086e <__aeabi_ddiv+0x82>
 8000900:	f411 1f80 	tst.w	r1, #1048576	; 0x100000
 8000904:	bf04      	itt	eq
 8000906:	4301      	orreq	r1, r0
 8000908:	2000      	moveq	r0, #0
 800090a:	f1b4 0cfd 	subs.w	ip, r4, #253	; 0xfd
 800090e:	bf88      	it	hi
 8000910:	f5bc 6fe0 	cmphi.w	ip, #1792	; 0x700
 8000914:	f63f aeaf 	bhi.w	8000676 <__aeabi_dmul+0xde>
 8000918:	ebb5 0c03 	subs.w	ip, r5, r3
 800091c:	bf04      	itt	eq
 800091e:	ebb6 0c02 	subseq.w	ip, r6, r2
 8000922:	ea5f 0c50 	movseq.w	ip, r0, lsr #1
 8000926:	f150 0000 	adcs.w	r0, r0, #0
 800092a:	eb41 5104 	adc.w	r1, r1, r4, lsl #20
 800092e:	bd70      	pop	{r4, r5, r6, pc}
 8000930:	f00e 4e00 	and.w	lr, lr, #2147483648	; 0x80000000
 8000934:	ea4e 3111 	orr.w	r1, lr, r1, lsr #12
 8000938:	eb14 045c 	adds.w	r4, r4, ip, lsr #1
 800093c:	bfc2      	ittt	gt
 800093e:	ebd4 050c 	rsbsgt	r5, r4, ip
 8000942:	ea41 5104 	orrgt.w	r1, r1, r4, lsl #20
 8000946:	bd70      	popgt	{r4, r5, r6, pc}
 8000948:	f441 1180 	orr.w	r1, r1, #1048576	; 0x100000
 800094c:	f04f 0e00 	mov.w	lr, #0
 8000950:	3c01      	subs	r4, #1
 8000952:	e690      	b.n	8000676 <__aeabi_dmul+0xde>
 8000954:	ea45 0e06 	orr.w	lr, r5, r6
 8000958:	e68d      	b.n	8000676 <__aeabi_dmul+0xde>
 800095a:	ea0c 5513 	and.w	r5, ip, r3, lsr #20
 800095e:	ea94 0f0c 	teq	r4, ip
 8000962:	bf08      	it	eq
 8000964:	ea95 0f0c 	teqeq	r5, ip
 8000968:	f43f af3b 	beq.w	80007e2 <__aeabi_dmul+0x24a>
 800096c:	ea94 0f0c 	teq	r4, ip
 8000970:	d10a      	bne.n	8000988 <__aeabi_ddiv+0x19c>
 8000972:	ea50 3401 	orrs.w	r4, r0, r1, lsl #12
 8000976:	f47f af34 	bne.w	80007e2 <__aeabi_dmul+0x24a>
 800097a:	ea95 0f0c 	teq	r5, ip
 800097e:	f47f af25 	bne.w	80007cc <__aeabi_dmul+0x234>
 8000982:	4610      	mov	r0, r2
 8000984:	4619      	mov	r1, r3
 8000986:	e72c      	b.n	80007e2 <__aeabi_dmul+0x24a>
 8000988:	ea95 0f0c 	teq	r5, ip
 800098c:	d106      	bne.n	800099c <__aeabi_ddiv+0x1b0>
 800098e:	ea52 3503 	orrs.w	r5, r2, r3, lsl #12
 8000992:	f43f aefd 	beq.w	8000790 <__aeabi_dmul+0x1f8>
 8000996:	4610      	mov	r0, r2
 8000998:	4619      	mov	r1, r3
 800099a:	e722      	b.n	80007e2 <__aeabi_dmul+0x24a>
 800099c:	ea50 0641 	orrs.w	r6, r0, r1, lsl #1
 80009a0:	bf18      	it	ne
 80009a2:	ea52 0643 	orrsne.w	r6, r2, r3, lsl #1
 80009a6:	f47f aec5 	bne.w	8000734 <__aeabi_dmul+0x19c>
 80009aa:	ea50 0441 	orrs.w	r4, r0, r1, lsl #1
 80009ae:	f47f af0d 	bne.w	80007cc <__aeabi_dmul+0x234>
 80009b2:	ea52 0543 	orrs.w	r5, r2, r3, lsl #1
 80009b6:	f47f aeeb 	bne.w	8000790 <__aeabi_dmul+0x1f8>
 80009ba:	e712      	b.n	80007e2 <__aeabi_dmul+0x24a>

080009bc <__gedf2>:
 80009bc:	f04f 3cff 	mov.w	ip, #4294967295	; 0xffffffff
 80009c0:	e006      	b.n	80009d0 <__cmpdf2+0x4>
 80009c2:	bf00      	nop

080009c4 <__ledf2>:
 80009c4:	f04f 0c01 	mov.w	ip, #1
 80009c8:	e002      	b.n	80009d0 <__cmpdf2+0x4>
 80009ca:	bf00      	nop

080009cc <__cmpdf2>:
 80009cc:	f04f 0c01 	mov.w	ip, #1
 80009d0:	f84d cd04 	str.w	ip, [sp, #-4]!
 80009d4:	ea4f 0c41 	mov.w	ip, r1, lsl #1
 80009d8:	ea7f 5c6c 	mvns.w	ip, ip, asr #21
 80009dc:	ea4f 0c43 	mov.w	ip, r3, lsl #1
 80009e0:	bf18      	it	ne
 80009e2:	ea7f 5c6c 	mvnsne.w	ip, ip, asr #21
 80009e6:	d01b      	beq.n	8000a20 <__cmpdf2+0x54>
 80009e8:	b001      	add	sp, #4
 80009ea:	ea50 0c41 	orrs.w	ip, r0, r1, lsl #1
 80009ee:	bf0c      	ite	eq
 80009f0:	ea52 0c43 	orrseq.w	ip, r2, r3, lsl #1
 80009f4:	ea91 0f03 	teqne	r1, r3
 80009f8:	bf02      	ittt	eq
 80009fa:	ea90 0f02 	teqeq	r0, r2
 80009fe:	2000      	moveq	r0, #0
 8000a00:	4770      	bxeq	lr
 8000a02:	f110 0f00 	cmn.w	r0, #0
 8000a06:	ea91 0f03 	teq	r1, r3
 8000a0a:	bf58      	it	pl
 8000a0c:	4299      	cmppl	r1, r3
 8000a0e:	bf08      	it	eq
 8000a10:	4290      	cmpeq	r0, r2
 8000a12:	bf2c      	ite	cs
 8000a14:	17d8      	asrcs	r0, r3, #31
 8000a16:	ea6f 70e3 	mvncc.w	r0, r3, asr #31
 8000a1a:	f040 0001 	orr.w	r0, r0, #1
 8000a1e:	4770      	bx	lr
 8000a20:	ea4f 0c41 	mov.w	ip, r1, lsl #1
 8000a24:	ea7f 5c6c 	mvns.w	ip, ip, asr #21
 8000a28:	d102      	bne.n	8000a30 <__cmpdf2+0x64>
 8000a2a:	ea50 3c01 	orrs.w	ip, r0, r1, lsl #12
 8000a2e:	d107      	bne.n	8000a40 <__cmpdf2+0x74>
 8000a30:	ea4f 0c43 	mov.w	ip, r3, lsl #1
 8000a34:	ea7f 5c6c 	mvns.w	ip, ip, asr #21
 8000a38:	d1d6      	bne.n	80009e8 <__cmpdf2+0x1c>
 8000a3a:	ea52 3c03 	orrs.w	ip, r2, r3, lsl #12
 8000a3e:	d0d3      	beq.n	80009e8 <__cmpdf2+0x1c>
 8000a40:	f85d 0b04 	ldr.w	r0, [sp], #4
 8000a44:	4770      	bx	lr
 8000a46:	bf00      	nop

08000a48 <__aeabi_cdrcmple>:
 8000a48:	4684      	mov	ip, r0
 8000a4a:	4610      	mov	r0, r2
 8000a4c:	4662      	mov	r2, ip
 8000a4e:	468c      	mov	ip, r1
 8000a50:	4619      	mov	r1, r3
 8000a52:	4663      	mov	r3, ip
 8000a54:	e000      	b.n	8000a58 <__aeabi_cdcmpeq>
 8000a56:	bf00      	nop

08000a58 <__aeabi_cdcmpeq>:
 8000a58:	b501      	push	{r0, lr}
 8000a5a:	f7ff ffb7 	bl	80009cc <__cmpdf2>
 8000a5e:	2800      	cmp	r0, #0
 8000a60:	bf48      	it	mi
 8000a62:	f110 0f00 	cmnmi.w	r0, #0
 8000a66:	bd01      	pop	{r0, pc}

08000a68 <__aeabi_dcmpeq>:
 8000a68:	f84d ed08 	str.w	lr, [sp, #-8]!
 8000a6c:	f7ff fff4 	bl	8000a58 <__aeabi_cdcmpeq>
 8000a70:	bf0c      	ite	eq
 8000a72:	2001      	moveq	r0, #1
 8000a74:	2000      	movne	r0, #0
 8000a76:	f85d fb08 	ldr.w	pc, [sp], #8
 8000a7a:	bf00      	nop

08000a7c <__aeabi_dcmplt>:
 8000a7c:	f84d ed08 	str.w	lr, [sp, #-8]!
 8000a80:	f7ff ffea 	bl	8000a58 <__aeabi_cdcmpeq>
 8000a84:	bf34      	ite	cc
 8000a86:	2001      	movcc	r0, #1
 8000a88:	2000      	movcs	r0, #0
 8000a8a:	f85d fb08 	ldr.w	pc, [sp], #8
 8000a8e:	bf00      	nop

08000a90 <__aeabi_dcmple>:
 8000a90:	f84d ed08 	str.w	lr, [sp, #-8]!
 8000a94:	f7ff ffe0 	bl	8000a58 <__aeabi_cdcmpeq>
 8000a98:	bf94      	ite	ls
 8000a9a:	2001      	movls	r0, #1
 8000a9c:	2000      	movhi	r0, #0
 8000a9e:	f85d fb08 	ldr.w	pc, [sp], #8
 8000aa2:	bf00      	nop

08000aa4 <__aeabi_dcmpge>:
 8000aa4:	f84d ed08 	str.w	lr, [sp, #-8]!
 8000aa8:	f7ff ffce 	bl	8000a48 <__aeabi_cdrcmple>
 8000aac:	bf94      	ite	ls
 8000aae:	2001      	movls	r0, #1
 8000ab0:	2000      	movhi	r0, #0
 8000ab2:	f85d fb08 	ldr.w	pc, [sp], #8
 8000ab6:	bf00      	nop

08000ab8 <__aeabi_dcmpgt>:
 8000ab8:	f84d ed08 	str.w	lr, [sp, #-8]!
 8000abc:	f7ff ffc4 	bl	8000a48 <__aeabi_cdrcmple>
 8000ac0:	bf34      	ite	cc
 8000ac2:	2001      	movcc	r0, #1
 8000ac4:	2000      	movcs	r0, #0
 8000ac6:	f85d fb08 	ldr.w	pc, [sp], #8
 8000aca:	bf00      	nop

08000acc <__aeabi_dcmpun>:
 8000acc:	ea4f 0c41 	mov.w	ip, r1, lsl #1
 8000ad0:	ea7f 5c6c 	mvns.w	ip, ip, asr #21
 8000ad4:	d102      	bne.n	8000adc <__aeabi_dcmpun+0x10>
 8000ad6:	ea50 3c01 	orrs.w	ip, r0, r1, lsl #12
 8000ada:	d10a      	bne.n	8000af2 <__aeabi_dcmpun+0x26>
 8000adc:	ea4f 0c43 	mov.w	ip, r3, lsl #1
 8000ae0:	ea7f 5c6c 	mvns.w	ip, ip, asr #21
 8000ae4:	d102      	bne.n	8000aec <__aeabi_dcmpun+0x20>
 8000ae6:	ea52 3c03 	orrs.w	ip, r2, r3, lsl #12
 8000aea:	d102      	bne.n	8000af2 <__aeabi_dcmpun+0x26>
 8000aec:	f04f 0000 	mov.w	r0, #0
 8000af0:	4770      	bx	lr
 8000af2:	f04f 0001 	mov.w	r0, #1
 8000af6:	4770      	bx	lr

08000af8 <__aeabi_d2iz>:
 8000af8:	ea4f 0241 	mov.w	r2, r1, lsl #1
 8000afc:	f512 1200 	adds.w	r2, r2, #2097152	; 0x200000
 8000b00:	d215      	bcs.n	8000b2e <__aeabi_d2iz+0x36>
 8000b02:	d511      	bpl.n	8000b28 <__aeabi_d2iz+0x30>
 8000b04:	f46f 7378 	mvn.w	r3, #992	; 0x3e0
 8000b08:	ebb3 5262 	subs.w	r2, r3, r2, asr #21
 8000b0c:	d912      	bls.n	8000b34 <__aeabi_d2iz+0x3c>
 8000b0e:	ea4f 23c1 	mov.w	r3, r1, lsl #11
 8000b12:	f043 4300 	orr.w	r3, r3, #2147483648	; 0x80000000
 8000b16:	ea43 5350 	orr.w	r3, r3, r0, lsr #21
 8000b1a:	f011 4f00 	tst.w	r1, #2147483648	; 0x80000000
 8000b1e:	fa23 f002 	lsr.w	r0, r3, r2
 8000b22:	bf18      	it	ne
 8000b24:	4240      	negne	r0, r0
 8000b26:	4770      	bx	lr
 8000b28:	f04f 0000 	mov.w	r0, #0
 8000b2c:	4770      	bx	lr
 8000b2e:	ea50 3001 	orrs.w	r0, r0, r1, lsl #12
 8000b32:	d105      	bne.n	8000b40 <__aeabi_d2iz+0x48>
 8000b34:	f011 4000 	ands.w	r0, r1, #2147483648	; 0x80000000
 8000b38:	bf08      	it	eq
 8000b3a:	f06f 4000 	mvneq.w	r0, #2147483648	; 0x80000000
 8000b3e:	4770      	bx	lr
 8000b40:	f04f 0000 	mov.w	r0, #0
 8000b44:	4770      	bx	lr
 8000b46:	bf00      	nop

08000b48 <__aeabi_d2uiz>:
 8000b48:	004a      	lsls	r2, r1, #1
 8000b4a:	d211      	bcs.n	8000b70 <__aeabi_d2uiz+0x28>
 8000b4c:	f512 1200 	adds.w	r2, r2, #2097152	; 0x200000
 8000b50:	d211      	bcs.n	8000b76 <__aeabi_d2uiz+0x2e>
 8000b52:	d50d      	bpl.n	8000b70 <__aeabi_d2uiz+0x28>
 8000b54:	f46f 7378 	mvn.w	r3, #992	; 0x3e0
 8000b58:	ebb3 5262 	subs.w	r2, r3, r2, asr #21
 8000b5c:	d40e      	bmi.n	8000b7c <__aeabi_d2uiz+0x34>
 8000b5e:	ea4f 23c1 	mov.w	r3, r1, lsl #11
 8000b62:	f043 4300 	orr.w	r3, r3, #2147483648	; 0x80000000
 8000b66:	ea43 5350 	orr.w	r3, r3, r0, lsr #21
 8000b6a:	fa23 f002 	lsr.w	r0, r3, r2
 8000b6e:	4770      	bx	lr
 8000b70:	f04f 0000 	mov.w	r0, #0
 8000b74:	4770      	bx	lr
 8000b76:	ea50 3001 	orrs.w	r0, r0, r1, lsl #12
 8000b7a:	d102      	bne.n	8000b82 <__aeabi_d2uiz+0x3a>
 8000b7c:	f04f 30ff 	mov.w	r0, #4294967295	; 0xffffffff
 8000b80:	4770      	bx	lr
 8000b82:	f04f 0000 	mov.w	r0, #0
 8000b86:	4770      	bx	lr

08000b88 <__aeabi_uldivmod>:
 8000b88:	b953      	cbnz	r3, 8000ba0 <__aeabi_uldivmod+0x18>
 8000b8a:	b94a      	cbnz	r2, 8000ba0 <__aeabi_uldivmod+0x18>
 8000b8c:	2900      	cmp	r1, #0
 8000b8e:	bf08      	it	eq
 8000b90:	2800      	cmpeq	r0, #0
 8000b92:	bf1c      	itt	ne
 8000b94:	f04f 31ff 	movne.w	r1, #4294967295	; 0xffffffff
 8000b98:	f04f 30ff 	movne.w	r0, #4294967295	; 0xffffffff
 8000b9c:	f000 b974 	b.w	8000e88 <__aeabi_idiv0>
 8000ba0:	f1ad 0c08 	sub.w	ip, sp, #8
 8000ba4:	e96d ce04 	strd	ip, lr, [sp, #-16]!
 8000ba8:	f000 f806 	bl	8000bb8 <__udivmoddi4>
 8000bac:	f8dd e004 	ldr.w	lr, [sp, #4]
 8000bb0:	e9dd 2302 	ldrd	r2, r3, [sp, #8]
 8000bb4:	b004      	add	sp, #16
 8000bb6:	4770      	bx	lr

08000bb8 <__udivmoddi4>:
 8000bb8:	e92d 47f0 	stmdb	sp!, {r4, r5, r6, r7, r8, r9, sl, lr}
 8000bbc:	9e08      	ldr	r6, [sp, #32]
 8000bbe:	460d      	mov	r5, r1
 8000bc0:	4604      	mov	r4, r0
 8000bc2:	4688      	mov	r8, r1
 8000bc4:	2b00      	cmp	r3, #0
 8000bc6:	d14d      	bne.n	8000c64 <__udivmoddi4+0xac>
 8000bc8:	428a      	cmp	r2, r1
 8000bca:	4694      	mov	ip, r2
 8000bcc:	d968      	bls.n	8000ca0 <__udivmoddi4+0xe8>
 8000bce:	fab2 f282 	clz	r2, r2
 8000bd2:	b152      	cbz	r2, 8000bea <__udivmoddi4+0x32>
 8000bd4:	fa01 f302 	lsl.w	r3, r1, r2
 8000bd8:	f1c2 0120 	rsb	r1, r2, #32
 8000bdc:	fa20 f101 	lsr.w	r1, r0, r1
 8000be0:	fa0c fc02 	lsl.w	ip, ip, r2
 8000be4:	ea41 0803 	orr.w	r8, r1, r3
 8000be8:	4094      	lsls	r4, r2
 8000bea:	ea4f 451c 	mov.w	r5, ip, lsr #16
 8000bee:	0c21      	lsrs	r1, r4, #16
 8000bf0:	fbb8 fef5 	udiv	lr, r8, r5
 8000bf4:	fa1f f78c 	uxth.w	r7, ip
 8000bf8:	fb05 831e 	mls	r3, r5, lr, r8
 8000bfc:	ea41 4303 	orr.w	r3, r1, r3, lsl #16
 8000c00:	fb0e f107 	mul.w	r1, lr, r7
 8000c04:	4299      	cmp	r1, r3
 8000c06:	d90b      	bls.n	8000c20 <__udivmoddi4+0x68>
 8000c08:	eb1c 0303 	adds.w	r3, ip, r3
 8000c0c:	f10e 30ff 	add.w	r0, lr, #4294967295	; 0xffffffff
 8000c10:	f080 811e 	bcs.w	8000e50 <__udivmoddi4+0x298>
 8000c14:	4299      	cmp	r1, r3
 8000c16:	f240 811b 	bls.w	8000e50 <__udivmoddi4+0x298>
 8000c1a:	f1ae 0e02 	sub.w	lr, lr, #2
 8000c1e:	4463      	add	r3, ip
 8000c20:	1a5b      	subs	r3, r3, r1
 8000c22:	b2a4      	uxth	r4, r4
 8000c24:	fbb3 f0f5 	udiv	r0, r3, r5
 8000c28:	fb05 3310 	mls	r3, r5, r0, r3
 8000c2c:	ea44 4403 	orr.w	r4, r4, r3, lsl #16
 8000c30:	fb00 f707 	mul.w	r7, r0, r7
 8000c34:	42a7      	cmp	r7, r4
 8000c36:	d90a      	bls.n	8000c4e <__udivmoddi4+0x96>
 8000c38:	eb1c 0404 	adds.w	r4, ip, r4
 8000c3c:	f100 33ff 	add.w	r3, r0, #4294967295	; 0xffffffff
 8000c40:	f080 8108 	bcs.w	8000e54 <__udivmoddi4+0x29c>
 8000c44:	42a7      	cmp	r7, r4
 8000c46:	f240 8105 	bls.w	8000e54 <__udivmoddi4+0x29c>
 8000c4a:	4464      	add	r4, ip
 8000c4c:	3802      	subs	r0, #2
 8000c4e:	1be4      	subs	r4, r4, r7
 8000c50:	ea40 400e 	orr.w	r0, r0, lr, lsl #16
 8000c54:	2100      	movs	r1, #0
 8000c56:	b11e      	cbz	r6, 8000c60 <__udivmoddi4+0xa8>
 8000c58:	40d4      	lsrs	r4, r2
 8000c5a:	2300      	movs	r3, #0
 8000c5c:	e9c6 4300 	strd	r4, r3, [r6]
 8000c60:	e8bd 87f0 	ldmia.w	sp!, {r4, r5, r6, r7, r8, r9, sl, pc}
 8000c64:	428b      	cmp	r3, r1
 8000c66:	d908      	bls.n	8000c7a <__udivmoddi4+0xc2>
 8000c68:	2e00      	cmp	r6, #0
 8000c6a:	f000 80ee 	beq.w	8000e4a <__udivmoddi4+0x292>
 8000c6e:	2100      	movs	r1, #0
 8000c70:	e9c6 0500 	strd	r0, r5, [r6]
 8000c74:	4608      	mov	r0, r1
 8000c76:	e8bd 87f0 	ldmia.w	sp!, {r4, r5, r6, r7, r8, r9, sl, pc}
 8000c7a:	fab3 f183 	clz	r1, r3
 8000c7e:	2900      	cmp	r1, #0
 8000c80:	d14a      	bne.n	8000d18 <__udivmoddi4+0x160>
 8000c82:	42ab      	cmp	r3, r5
 8000c84:	d302      	bcc.n	8000c8c <__udivmoddi4+0xd4>
 8000c86:	4282      	cmp	r2, r0
 8000c88:	f200 80f9 	bhi.w	8000e7e <__udivmoddi4+0x2c6>
 8000c8c:	1a84      	subs	r4, r0, r2
 8000c8e:	eb65 0303 	sbc.w	r3, r5, r3
 8000c92:	2001      	movs	r0, #1
 8000c94:	4698      	mov	r8, r3
 8000c96:	2e00      	cmp	r6, #0
 8000c98:	d0e2      	beq.n	8000c60 <__udivmoddi4+0xa8>
 8000c9a:	e9c6 4800 	strd	r4, r8, [r6]
 8000c9e:	e7df      	b.n	8000c60 <__udivmoddi4+0xa8>
 8000ca0:	b902      	cbnz	r2, 8000ca4 <__udivmoddi4+0xec>
 8000ca2:	deff      	udf	#255	; 0xff
 8000ca4:	fab2 f282 	clz	r2, r2
 8000ca8:	2a00      	cmp	r2, #0
 8000caa:	f040 8091 	bne.w	8000dd0 <__udivmoddi4+0x218>
 8000cae:	eba1 050c 	sub.w	r5, r1, ip
 8000cb2:	ea4f 471c 	mov.w	r7, ip, lsr #16
 8000cb6:	fa1f fe8c 	uxth.w	lr, ip
 8000cba:	2101      	movs	r1, #1
 8000cbc:	fbb5 f3f7 	udiv	r3, r5, r7
 8000cc0:	fb07 5013 	mls	r0, r7, r3, r5
 8000cc4:	0c25      	lsrs	r5, r4, #16
 8000cc6:	ea45 4500 	orr.w	r5, r5, r0, lsl #16
 8000cca:	fb0e f003 	mul.w	r0, lr, r3
 8000cce:	42a8      	cmp	r0, r5
 8000cd0:	d908      	bls.n	8000ce4 <__udivmoddi4+0x12c>
 8000cd2:	eb1c 0505 	adds.w	r5, ip, r5
 8000cd6:	f103 38ff 	add.w	r8, r3, #4294967295	; 0xffffffff
 8000cda:	d202      	bcs.n	8000ce2 <__udivmoddi4+0x12a>
 8000cdc:	42a8      	cmp	r0, r5
 8000cde:	f200 80cb 	bhi.w	8000e78 <__udivmoddi4+0x2c0>
 8000ce2:	4643      	mov	r3, r8
 8000ce4:	1a2d      	subs	r5, r5, r0
 8000ce6:	b2a4      	uxth	r4, r4
 8000ce8:	fbb5 f0f7 	udiv	r0, r5, r7
 8000cec:	fb07 5510 	mls	r5, r7, r0, r5
 8000cf0:	ea44 4405 	orr.w	r4, r4, r5, lsl #16
 8000cf4:	fb0e fe00 	mul.w	lr, lr, r0
 8000cf8:	45a6      	cmp	lr, r4
 8000cfa:	d908      	bls.n	8000d0e <__udivmoddi4+0x156>
 8000cfc:	eb1c 0404 	adds.w	r4, ip, r4
 8000d00:	f100 35ff 	add.w	r5, r0, #4294967295	; 0xffffffff
 8000d04:	d202      	bcs.n	8000d0c <__udivmoddi4+0x154>
 8000d06:	45a6      	cmp	lr, r4
 8000d08:	f200 80bb 	bhi.w	8000e82 <__udivmoddi4+0x2ca>
 8000d0c:	4628      	mov	r0, r5
 8000d0e:	eba4 040e 	sub.w	r4, r4, lr
 8000d12:	ea40 4003 	orr.w	r0, r0, r3, lsl #16
 8000d16:	e79e      	b.n	8000c56 <__udivmoddi4+0x9e>
 8000d18:	f1c1 0720 	rsb	r7, r1, #32
 8000d1c:	408b      	lsls	r3, r1
 8000d1e:	fa22 fc07 	lsr.w	ip, r2, r7
 8000d22:	ea4c 0c03 	orr.w	ip, ip, r3
 8000d26:	fa20 f407 	lsr.w	r4, r0, r7
 8000d2a:	fa05 f301 	lsl.w	r3, r5, r1
 8000d2e:	431c      	orrs	r4, r3
 8000d30:	40fd      	lsrs	r5, r7
 8000d32:	ea4f 491c 	mov.w	r9, ip, lsr #16
 8000d36:	fa00 f301 	lsl.w	r3, r0, r1
 8000d3a:	fbb5 f8f9 	udiv	r8, r5, r9
 8000d3e:	0c20      	lsrs	r0, r4, #16
 8000d40:	fa1f fe8c 	uxth.w	lr, ip
 8000d44:	fb09 5518 	mls	r5, r9, r8, r5
 8000d48:	ea40 4505 	orr.w	r5, r0, r5, lsl #16
 8000d4c:	fb08 f00e 	mul.w	r0, r8, lr
 8000d50:	42a8      	cmp	r0, r5
 8000d52:	fa02 f201 	lsl.w	r2, r2, r1
 8000d56:	d90b      	bls.n	8000d70 <__udivmoddi4+0x1b8>
 8000d58:	eb1c 0505 	adds.w	r5, ip, r5
 8000d5c:	f108 3aff 	add.w	sl, r8, #4294967295	; 0xffffffff
 8000d60:	f080 8088 	bcs.w	8000e74 <__udivmoddi4+0x2bc>
 8000d64:	42a8      	cmp	r0, r5
 8000d66:	f240 8085 	bls.w	8000e74 <__udivmoddi4+0x2bc>
 8000d6a:	f1a8 0802 	sub.w	r8, r8, #2
 8000d6e:	4465      	add	r5, ip
 8000d70:	1a2d      	subs	r5, r5, r0
 8000d72:	b2a4      	uxth	r4, r4
 8000d74:	fbb5 f0f9 	udiv	r0, r5, r9
 8000d78:	fb09 5510 	mls	r5, r9, r0, r5
 8000d7c:	ea44 4505 	orr.w	r5, r4, r5, lsl #16
 8000d80:	fb00 fe0e 	mul.w	lr, r0, lr
 8000d84:	45ae      	cmp	lr, r5
 8000d86:	d908      	bls.n	8000d9a <__udivmoddi4+0x1e2>
 8000d88:	eb1c 0505 	adds.w	r5, ip, r5
 8000d8c:	f100 34ff 	add.w	r4, r0, #4294967295	; 0xffffffff
 8000d90:	d26c      	bcs.n	8000e6c <__udivmoddi4+0x2b4>
 8000d92:	45ae      	cmp	lr, r5
 8000d94:	d96a      	bls.n	8000e6c <__udivmoddi4+0x2b4>
 8000d96:	3802      	subs	r0, #2
 8000d98:	4465      	add	r5, ip
 8000d9a:	ea40 4008 	orr.w	r0, r0, r8, lsl #16
 8000d9e:	fba0 9402 	umull	r9, r4, r0, r2
 8000da2:	eba5 050e 	sub.w	r5, r5, lr
 8000da6:	42a5      	cmp	r5, r4
 8000da8:	46c8      	mov	r8, r9
 8000daa:	46a6      	mov	lr, r4
 8000dac:	d356      	bcc.n	8000e5c <__udivmoddi4+0x2a4>
 8000dae:	d053      	beq.n	8000e58 <__udivmoddi4+0x2a0>
 8000db0:	b15e      	cbz	r6, 8000dca <__udivmoddi4+0x212>
 8000db2:	ebb3 0208 	subs.w	r2, r3, r8
 8000db6:	eb65 050e 	sbc.w	r5, r5, lr
 8000dba:	fa05 f707 	lsl.w	r7, r5, r7
 8000dbe:	fa22 f301 	lsr.w	r3, r2, r1
 8000dc2:	40cd      	lsrs	r5, r1
 8000dc4:	431f      	orrs	r7, r3
 8000dc6:	e9c6 7500 	strd	r7, r5, [r6]
 8000dca:	2100      	movs	r1, #0
 8000dcc:	e8bd 87f0 	ldmia.w	sp!, {r4, r5, r6, r7, r8, r9, sl, pc}
 8000dd0:	f1c2 0320 	rsb	r3, r2, #32
 8000dd4:	fa20 f103 	lsr.w	r1, r0, r3
 8000dd8:	fa0c fc02 	lsl.w	ip, ip, r2
 8000ddc:	fa25 f303 	lsr.w	r3, r5, r3
 8000de0:	4095      	lsls	r5, r2
 8000de2:	430d      	orrs	r5, r1
 8000de4:	ea4f 471c 	mov.w	r7, ip, lsr #16
 8000de8:	fa1f fe8c 	uxth.w	lr, ip
 8000dec:	fbb3 f1f7 	udiv	r1, r3, r7
 8000df0:	fb07 3011 	mls	r0, r7, r1, r3
 8000df4:	0c2b      	lsrs	r3, r5, #16
 8000df6:	ea43 4300 	orr.w	r3, r3, r0, lsl #16
 8000dfa:	fb01 f00e 	mul.w	r0, r1, lr
 8000dfe:	4298      	cmp	r0, r3
 8000e00:	fa04 f402 	lsl.w	r4, r4, r2
 8000e04:	d908      	bls.n	8000e18 <__udivmoddi4+0x260>
 8000e06:	eb1c 0303 	adds.w	r3, ip, r3
 8000e0a:	f101 38ff 	add.w	r8, r1, #4294967295	; 0xffffffff
 8000e0e:	d22f      	bcs.n	8000e70 <__udivmoddi4+0x2b8>
 8000e10:	4298      	cmp	r0, r3
 8000e12:	d92d      	bls.n	8000e70 <__udivmoddi4+0x2b8>
 8000e14:	3902      	subs	r1, #2
 8000e16:	4463      	add	r3, ip
 8000e18:	1a1b      	subs	r3, r3, r0
 8000e1a:	b2ad      	uxth	r5, r5
 8000e1c:	fbb3 f0f7 	udiv	r0, r3, r7
 8000e20:	fb07 3310 	mls	r3, r7, r0, r3
 8000e24:	ea45 4503 	orr.w	r5, r5, r3, lsl #16
 8000e28:	fb00 f30e 	mul.w	r3, r0, lr
 8000e2c:	42ab      	cmp	r3, r5
 8000e2e:	d908      	bls.n	8000e42 <__udivmoddi4+0x28a>
 8000e30:	eb1c 0505 	adds.w	r5, ip, r5
 8000e34:	f100 38ff 	add.w	r8, r0, #4294967295	; 0xffffffff
 8000e38:	d216      	bcs.n	8000e68 <__udivmoddi4+0x2b0>
 8000e3a:	42ab      	cmp	r3, r5
 8000e3c:	d914      	bls.n	8000e68 <__udivmoddi4+0x2b0>
 8000e3e:	3802      	subs	r0, #2
 8000e40:	4465      	add	r5, ip
 8000e42:	1aed      	subs	r5, r5, r3
 8000e44:	ea40 4101 	orr.w	r1, r0, r1, lsl #16
 8000e48:	e738      	b.n	8000cbc <__udivmoddi4+0x104>
 8000e4a:	4631      	mov	r1, r6
 8000e4c:	4630      	mov	r0, r6
 8000e4e:	e707      	b.n	8000c60 <__udivmoddi4+0xa8>
 8000e50:	4686      	mov	lr, r0
 8000e52:	e6e5      	b.n	8000c20 <__udivmoddi4+0x68>
 8000e54:	4618      	mov	r0, r3
 8000e56:	e6fa      	b.n	8000c4e <__udivmoddi4+0x96>
 8000e58:	454b      	cmp	r3, r9
 8000e5a:	d2a9      	bcs.n	8000db0 <__udivmoddi4+0x1f8>
 8000e5c:	ebb9 0802 	subs.w	r8, r9, r2
 8000e60:	eb64 0e0c 	sbc.w	lr, r4, ip
 8000e64:	3801      	subs	r0, #1
 8000e66:	e7a3      	b.n	8000db0 <__udivmoddi4+0x1f8>
 8000e68:	4640      	mov	r0, r8
 8000e6a:	e7ea      	b.n	8000e42 <__udivmoddi4+0x28a>
 8000e6c:	4620      	mov	r0, r4
 8000e6e:	e794      	b.n	8000d9a <__udivmoddi4+0x1e2>
 8000e70:	4641      	mov	r1, r8
 8000e72:	e7d1      	b.n	8000e18 <__udivmoddi4+0x260>
 8000e74:	46d0      	mov	r8, sl
 8000e76:	e77b      	b.n	8000d70 <__udivmoddi4+0x1b8>
 8000e78:	3b02      	subs	r3, #2
 8000e7a:	4465      	add	r5, ip
 8000e7c:	e732      	b.n	8000ce4 <__udivmoddi4+0x12c>
 8000e7e:	4608      	mov	r0, r1
 8000e80:	e709      	b.n	8000c96 <__udivmoddi4+0xde>
 8000e82:	4464      	add	r4, ip
 8000e84:	3802      	subs	r0, #2
 8000e86:	e742      	b.n	8000d0e <__udivmoddi4+0x156>

08000e88 <__aeabi_idiv0>:
 8000e88:	4770      	bx	lr
 8000e8a:	bf00      	nop

08000e8c <sendCmd>:
 8000e8c:	f04f 4390 	mov.w	r3, #1207959552	; 0x48000000
 8000e90:	f04f 6200 	mov.w	r2, #134217728	; 0x8000000
 8000e94:	619a      	str	r2, [r3, #24]
 8000e96:	f102 2238 	add.w	r2, r2, #939538432	; 0x38003800
 8000e9a:	6893      	ldr	r3, [r2, #8]
 8000e9c:	079b      	lsls	r3, r3, #30
 8000e9e:	d5fc      	bpl.n	8000e9a <sendCmd+0xe>
 8000ea0:	7310      	strb	r0, [r2, #12]
 8000ea2:	6893      	ldr	r3, [r2, #8]
 8000ea4:	f003 0382 	and.w	r3, r3, #130	; 0x82
 8000ea8:	2b02      	cmp	r3, #2
 8000eaa:	d1fa      	bne.n	8000ea2 <sendCmd+0x16>
 8000eac:	f04f 4390 	mov.w	r3, #1207959552	; 0x48000000
 8000eb0:	f44f 6200 	mov.w	r2, #2048	; 0x800
 8000eb4:	619a      	str	r2, [r3, #24]
 8000eb6:	4770      	bx	lr

08000eb8 <sendData>:
 8000eb8:	4a05      	ldr	r2, [pc, #20]	; (8000ed0 <sendData+0x18>)
 8000eba:	6893      	ldr	r3, [r2, #8]
 8000ebc:	079b      	lsls	r3, r3, #30
 8000ebe:	d5fc      	bpl.n	8000eba <sendData+0x2>
 8000ec0:	7310      	strb	r0, [r2, #12]
 8000ec2:	6893      	ldr	r3, [r2, #8]
 8000ec4:	f003 0382 	and.w	r3, r3, #130	; 0x82
 8000ec8:	2b02      	cmp	r3, #2
 8000eca:	d1fa      	bne.n	8000ec2 <sendData+0xa>
 8000ecc:	4770      	bx	lr
 8000ece:	bf00      	nop
 8000ed0:	40003800 	.word	0x40003800

08000ed4 <setWindow>:
 8000ed4:	4290      	cmp	r0, r2
 8000ed6:	b570      	push	{r4, r5, r6, lr}
 8000ed8:	461c      	mov	r4, r3
 8000eda:	d816      	bhi.n	8000f0a <setWindow+0x36>
 8000edc:	2a80      	cmp	r2, #128	; 0x80
 8000ede:	d814      	bhi.n	8000f0a <setWindow+0x36>
 8000ee0:	4b19      	ldr	r3, [pc, #100]	; (8000f48 <setWindow+0x74>)
 8000ee2:	781d      	ldrb	r5, [r3, #0]
 8000ee4:	4428      	add	r0, r5
 8000ee6:	442a      	add	r2, r5
 8000ee8:	b2c6      	uxtb	r6, r0
 8000eea:	202a      	movs	r0, #42	; 0x2a
 8000eec:	b2d5      	uxtb	r5, r2
 8000eee:	f7ff ffcd 	bl	8000e8c <sendCmd>
 8000ef2:	2000      	movs	r0, #0
 8000ef4:	f7ff ffe0 	bl	8000eb8 <sendData>
 8000ef8:	4630      	mov	r0, r6
 8000efa:	f7ff ffdd 	bl	8000eb8 <sendData>
 8000efe:	2000      	movs	r0, #0
 8000f00:	f7ff ffda 	bl	8000eb8 <sendData>
 8000f04:	4628      	mov	r0, r5
 8000f06:	f7ff ffd7 	bl	8000eb8 <sendData>
 8000f0a:	42a1      	cmp	r1, r4
 8000f0c:	d816      	bhi.n	8000f3c <setWindow+0x68>
 8000f0e:	2ca0      	cmp	r4, #160	; 0xa0
 8000f10:	d814      	bhi.n	8000f3c <setWindow+0x68>
 8000f12:	4b0e      	ldr	r3, [pc, #56]	; (8000f4c <setWindow+0x78>)
 8000f14:	781b      	ldrb	r3, [r3, #0]
 8000f16:	202b      	movs	r0, #43	; 0x2b
 8000f18:	4419      	add	r1, r3
 8000f1a:	441c      	add	r4, r3
 8000f1c:	b2c9      	uxtb	r1, r1
 8000f1e:	f7ff ffb5 	bl	8000e8c <sendCmd>
 8000f22:	2000      	movs	r0, #0
 8000f24:	f7ff ffc8 	bl	8000eb8 <sendData>
 8000f28:	4608      	mov	r0, r1
 8000f2a:	f7ff ffc5 	bl	8000eb8 <sendData>
 8000f2e:	b2e4      	uxtb	r4, r4
 8000f30:	2000      	movs	r0, #0
 8000f32:	f7ff ffc1 	bl	8000eb8 <sendData>
 8000f36:	4620      	mov	r0, r4
 8000f38:	f7ff ffbe 	bl	8000eb8 <sendData>
 8000f3c:	e8bd 4070 	ldmia.w	sp!, {r4, r5, r6, lr}
 8000f40:	202c      	movs	r0, #44	; 0x2c
 8000f42:	f7ff bfa3 	b.w	8000e8c <sendCmd>
 8000f46:	bf00      	nop
 8000f48:	200000f4 	.word	0x200000f4
 8000f4c:	200000f8 	.word	0x200000f8

08000f50 <ST7735_Reset>:
 8000f50:	b508      	push	{r3, lr}
 8000f52:	2200      	movs	r2, #0
 8000f54:	f44f 5180 	mov.w	r1, #4096	; 0x1000
 8000f58:	f04f 4090 	mov.w	r0, #1207959552	; 0x48000000
 8000f5c:	f005 fea0 	bl	8006ca0 <HAL_GPIO_WritePin>
 8000f60:	2005      	movs	r0, #5
 8000f62:	f004 fdf1 	bl	8005b48 <HAL_Delay>
 8000f66:	e8bd 4008 	ldmia.w	sp!, {r3, lr}
 8000f6a:	2201      	movs	r2, #1
 8000f6c:	f44f 5180 	mov.w	r1, #4096	; 0x1000
 8000f70:	f04f 4090 	mov.w	r0, #1207959552	; 0x48000000
 8000f74:	f005 be94 	b.w	8006ca0 <HAL_GPIO_WritePin>

08000f78 <ST7735_WriteCommand>:
 8000f78:	b507      	push	{r0, r1, r2, lr}
 8000f7a:	2200      	movs	r2, #0
 8000f7c:	f88d 0007 	strb.w	r0, [sp, #7]
 8000f80:	f44f 6100 	mov.w	r1, #2048	; 0x800
 8000f84:	f04f 4090 	mov.w	r0, #1207959552	; 0x48000000
 8000f88:	f005 fe8a 	bl	8006ca0 <HAL_GPIO_WritePin>
 8000f8c:	f04f 33ff 	mov.w	r3, #4294967295	; 0xffffffff
 8000f90:	2201      	movs	r2, #1
 8000f92:	f10d 0107 	add.w	r1, sp, #7
 8000f96:	4803      	ldr	r0, [pc, #12]	; (8000fa4 <ST7735_WriteCommand+0x2c>)
 8000f98:	f006 ffe4 	bl	8007f64 <HAL_SPI_Transmit>
 8000f9c:	b003      	add	sp, #12
 8000f9e:	f85d fb04 	ldr.w	pc, [sp], #4
 8000fa2:	bf00      	nop
 8000fa4:	200009c0 	.word	0x200009c0

08000fa8 <ST7735_WriteData>:
 8000fa8:	b570      	push	{r4, r5, r6, lr}
 8000faa:	2201      	movs	r2, #1
 8000fac:	4604      	mov	r4, r0
 8000fae:	460d      	mov	r5, r1
 8000fb0:	f04f 4090 	mov.w	r0, #1207959552	; 0x48000000
 8000fb4:	f44f 6100 	mov.w	r1, #2048	; 0x800
 8000fb8:	f005 fe72 	bl	8006ca0 <HAL_GPIO_WritePin>
 8000fbc:	b2aa      	uxth	r2, r5
 8000fbe:	4621      	mov	r1, r4
 8000fc0:	4803      	ldr	r0, [pc, #12]	; (8000fd0 <ST7735_WriteData+0x28>)
 8000fc2:	e8bd 4070 	ldmia.w	sp!, {r4, r5, r6, lr}
 8000fc6:	f04f 33ff 	mov.w	r3, #4294967295	; 0xffffffff
 8000fca:	f006 bfcb 	b.w	8007f64 <HAL_SPI_Transmit>
 8000fce:	bf00      	nop
 8000fd0:	200009c0 	.word	0x200009c0

08000fd4 <DisplayInit>:
 8000fd4:	b5f8      	push	{r3, r4, r5, r6, r7, lr}
 8000fd6:	4605      	mov	r5, r0
 8000fd8:	f815 6b01 	ldrb.w	r6, [r5], #1
 8000fdc:	b906      	cbnz	r6, 8000fe0 <DisplayInit+0xc>
 8000fde:	bdf8      	pop	{r3, r4, r5, r6, r7, pc}
 8000fe0:	462c      	mov	r4, r5
 8000fe2:	f814 0b02 	ldrb.w	r0, [r4], #2
 8000fe6:	f7ff ffc7 	bl	8000f78 <ST7735_WriteCommand>
 8000fea:	786d      	ldrb	r5, [r5, #1]
 8000fec:	f015 077f 	ands.w	r7, r5, #127	; 0x7f
 8000ff0:	d004      	beq.n	8000ffc <DisplayInit+0x28>
 8000ff2:	4620      	mov	r0, r4
 8000ff4:	4639      	mov	r1, r7
 8000ff6:	f7ff ffd7 	bl	8000fa8 <ST7735_WriteData>
 8000ffa:	443c      	add	r4, r7
 8000ffc:	062b      	lsls	r3, r5, #24
 8000ffe:	d507      	bpl.n	8001010 <DisplayInit+0x3c>
 8001000:	f814 0b01 	ldrb.w	r0, [r4], #1
 8001004:	28ff      	cmp	r0, #255	; 0xff
 8001006:	bf08      	it	eq
 8001008:	f44f 70fa 	moveq.w	r0, #500	; 0x1f4
 800100c:	f004 fd9c 	bl	8005b48 <HAL_Delay>
 8001010:	3e01      	subs	r6, #1
 8001012:	b2f6      	uxtb	r6, r6
 8001014:	4625      	mov	r5, r4
 8001016:	e7e1      	b.n	8000fdc <DisplayInit+0x8>

08001018 <ST7735_SetAddressWindow>:
 8001018:	b5f7      	push	{r0, r1, r2, r4, r5, r6, r7, lr}
 800101a:	4605      	mov	r5, r0
 800101c:	202a      	movs	r0, #42	; 0x2a
 800101e:	4616      	mov	r6, r2
 8001020:	461f      	mov	r7, r3
 8001022:	460c      	mov	r4, r1
 8001024:	f7ff ffa8 	bl	8000f78 <ST7735_WriteCommand>
 8001028:	4a13      	ldr	r2, [pc, #76]	; (8001078 <ST7735_SetAddressWindow+0x60>)
 800102a:	7811      	ldrb	r1, [r2, #0]
 800102c:	440d      	add	r5, r1
 800102e:	4431      	add	r1, r6
 8001030:	f88d 1007 	strb.w	r1, [sp, #7]
 8001034:	2104      	movs	r1, #4
 8001036:	2300      	movs	r3, #0
 8001038:	eb0d 0001 	add.w	r0, sp, r1
 800103c:	f88d 3004 	strb.w	r3, [sp, #4]
 8001040:	f88d 3006 	strb.w	r3, [sp, #6]
 8001044:	f88d 5005 	strb.w	r5, [sp, #5]
 8001048:	f7ff ffae 	bl	8000fa8 <ST7735_WriteData>
 800104c:	202b      	movs	r0, #43	; 0x2b
 800104e:	f7ff ff93 	bl	8000f78 <ST7735_WriteCommand>
 8001052:	4b0a      	ldr	r3, [pc, #40]	; (800107c <ST7735_SetAddressWindow+0x64>)
 8001054:	781a      	ldrb	r2, [r3, #0]
 8001056:	2104      	movs	r1, #4
 8001058:	eb0d 0001 	add.w	r0, sp, r1
 800105c:	4414      	add	r4, r2
 800105e:	443a      	add	r2, r7
 8001060:	f88d 2007 	strb.w	r2, [sp, #7]
 8001064:	f88d 4005 	strb.w	r4, [sp, #5]
 8001068:	f7ff ff9e 	bl	8000fa8 <ST7735_WriteData>
 800106c:	202c      	movs	r0, #44	; 0x2c
 800106e:	f7ff ff83 	bl	8000f78 <ST7735_WriteCommand>
 8001072:	b003      	add	sp, #12
 8001074:	bdf0      	pop	{r4, r5, r6, r7, pc}
 8001076:	bf00      	nop
 8001078:	200000fc 	.word	0x200000fc
 800107c:	200000fd 	.word	0x200000fd

08001080 <ST7735_SetRotation>:
 8001080:	b5f7      	push	{r0, r1, r2, r4, r5, r6, r7, lr}
 8001082:	2300      	movs	r3, #0
 8001084:	f88d 3007 	strb.w	r3, [sp, #7]
 8001088:	4b1a      	ldr	r3, [pc, #104]	; (80010f4 <ST7735_SetRotation+0x74>)
 800108a:	4d1b      	ldr	r5, [pc, #108]	; (80010f8 <ST7735_SetRotation+0x78>)
 800108c:	4e1b      	ldr	r6, [pc, #108]	; (80010fc <ST7735_SetRotation+0x7c>)
 800108e:	491c      	ldr	r1, [pc, #112]	; (8001100 <ST7735_SetRotation+0x80>)
 8001090:	f000 0003 	and.w	r0, r0, #3
 8001094:	7018      	strb	r0, [r3, #0]
 8001096:	4b1b      	ldr	r3, [pc, #108]	; (8001104 <ST7735_SetRotation+0x84>)
 8001098:	781c      	ldrb	r4, [r3, #0]
 800109a:	4b1b      	ldr	r3, [pc, #108]	; (8001108 <ST7735_SetRotation+0x88>)
 800109c:	2802      	cmp	r0, #2
 800109e:	781a      	ldrb	r2, [r3, #0]
 80010a0:	4b1a      	ldr	r3, [pc, #104]	; (800110c <ST7735_SetRotation+0x8c>)
 80010a2:	d01f      	beq.n	80010e4 <ST7735_SetRotation+0x64>
 80010a4:	2803      	cmp	r0, #3
 80010a6:	f04f 07a0 	mov.w	r7, #160	; 0xa0
 80010aa:	d01e      	beq.n	80010ea <ST7735_SetRotation+0x6a>
 80010ac:	2801      	cmp	r0, #1
 80010ae:	d011      	beq.n	80010d4 <ST7735_SetRotation+0x54>
 80010b0:	20c0      	movs	r0, #192	; 0xc0
 80010b2:	f88d 0007 	strb.w	r0, [sp, #7]
 80010b6:	802f      	strh	r7, [r5, #0]
 80010b8:	2080      	movs	r0, #128	; 0x80
 80010ba:	8030      	strh	r0, [r6, #0]
 80010bc:	701c      	strb	r4, [r3, #0]
 80010be:	700a      	strb	r2, [r1, #0]
 80010c0:	2036      	movs	r0, #54	; 0x36
 80010c2:	f7ff ff59 	bl	8000f78 <ST7735_WriteCommand>
 80010c6:	2101      	movs	r1, #1
 80010c8:	f10d 0007 	add.w	r0, sp, #7
 80010cc:	f7ff ff6c 	bl	8000fa8 <ST7735_WriteData>
 80010d0:	b003      	add	sp, #12
 80010d2:	bdf0      	pop	{r4, r5, r6, r7, pc}
 80010d4:	f88d 7007 	strb.w	r7, [sp, #7]
 80010d8:	2080      	movs	r0, #128	; 0x80
 80010da:	8037      	strh	r7, [r6, #0]
 80010dc:	8028      	strh	r0, [r5, #0]
 80010de:	700c      	strb	r4, [r1, #0]
 80010e0:	701a      	strb	r2, [r3, #0]
 80010e2:	e7ed      	b.n	80010c0 <ST7735_SetRotation+0x40>
 80010e4:	20a0      	movs	r0, #160	; 0xa0
 80010e6:	8028      	strh	r0, [r5, #0]
 80010e8:	e7e6      	b.n	80010b8 <ST7735_SetRotation+0x38>
 80010ea:	2060      	movs	r0, #96	; 0x60
 80010ec:	f88d 0007 	strb.w	r0, [sp, #7]
 80010f0:	e7f2      	b.n	80010d8 <ST7735_SetRotation+0x58>
 80010f2:	bf00      	nop
 80010f4:	2000028a 	.word	0x2000028a
 80010f8:	200000f6 	.word	0x200000f6
 80010fc:	200000fa 	.word	0x200000fa
 8001100:	200000fd 	.word	0x200000fd
 8001104:	200000f4 	.word	0x200000f4
 8001108:	200000f8 	.word	0x200000f8
 800110c:	200000fc 	.word	0x200000fc

08001110 <ST7735_Init>:
 8001110:	f04f 4390 	mov.w	r3, #1207959552	; 0x48000000
 8001114:	f04f 7200 	mov.w	r2, #33554432	; 0x2000000
 8001118:	b510      	push	{r4, lr}
 800111a:	619a      	str	r2, [r3, #24]
 800111c:	4604      	mov	r4, r0
 800111e:	f7ff ff17 	bl	8000f50 <ST7735_Reset>
 8001122:	4809      	ldr	r0, [pc, #36]	; (8001148 <ST7735_Init+0x38>)
 8001124:	f7ff ff56 	bl	8000fd4 <DisplayInit>
 8001128:	4808      	ldr	r0, [pc, #32]	; (800114c <ST7735_Init+0x3c>)
 800112a:	f7ff ff53 	bl	8000fd4 <DisplayInit>
 800112e:	4808      	ldr	r0, [pc, #32]	; (8001150 <ST7735_Init+0x40>)
 8001130:	f7ff ff50 	bl	8000fd4 <DisplayInit>
 8001134:	4a07      	ldr	r2, [pc, #28]	; (8001154 <ST7735_Init+0x44>)
 8001136:	2300      	movs	r3, #0
 8001138:	7013      	strb	r3, [r2, #0]
 800113a:	4a07      	ldr	r2, [pc, #28]	; (8001158 <ST7735_Init+0x48>)
 800113c:	7013      	strb	r3, [r2, #0]
 800113e:	4620      	mov	r0, r4
 8001140:	e8bd 4010 	ldmia.w	sp!, {r4, lr}
 8001144:	f7ff bf9c 	b.w	8001080 <ST7735_SetRotation>
 8001148:	0800e87a 	.word	0x0800e87a
 800114c:	0800e8b2 	.word	0x0800e8b2
 8001150:	0800e8bf 	.word	0x0800e8bf
 8001154:	200000f4 	.word	0x200000f4
 8001158:	200000f8 	.word	0x200000f8

0800115c <ST7735_DrawPixel>:
 800115c:	4b0f      	ldr	r3, [pc, #60]	; (800119c <ST7735_DrawPixel+0x40>)
 800115e:	f9b3 3000 	ldrsh.w	r3, [r3]
 8001162:	4298      	cmp	r0, r3
 8001164:	b513      	push	{r0, r1, r4, lr}
 8001166:	4614      	mov	r4, r2
 8001168:	da15      	bge.n	8001196 <ST7735_DrawPixel+0x3a>
 800116a:	4b0d      	ldr	r3, [pc, #52]	; (80011a0 <ST7735_DrawPixel+0x44>)
 800116c:	f9b3 3000 	ldrsh.w	r3, [r3]
 8001170:	4299      	cmp	r1, r3
 8001172:	da10      	bge.n	8001196 <ST7735_DrawPixel+0x3a>
 8001174:	b2c0      	uxtb	r0, r0
 8001176:	b2c9      	uxtb	r1, r1
 8001178:	1c4b      	adds	r3, r1, #1
 800117a:	1c42      	adds	r2, r0, #1
 800117c:	b2db      	uxtb	r3, r3
 800117e:	b2d2      	uxtb	r2, r2
 8001180:	f7ff ff4a 	bl	8001018 <ST7735_SetAddressWindow>
 8001184:	0a23      	lsrs	r3, r4, #8
 8001186:	2102      	movs	r1, #2
 8001188:	a801      	add	r0, sp, #4
 800118a:	f88d 3004 	strb.w	r3, [sp, #4]
 800118e:	f88d 4005 	strb.w	r4, [sp, #5]
 8001192:	f7ff ff09 	bl	8000fa8 <ST7735_WriteData>
 8001196:	b002      	add	sp, #8
 8001198:	bd10      	pop	{r4, pc}
 800119a:	bf00      	nop
 800119c:	200000fa 	.word	0x200000fa
 80011a0:	200000f6 	.word	0x200000f6

080011a4 <ST7735_WriteChar>:
 80011a4:	b082      	sub	sp, #8
 80011a6:	e92d 4ff0 	stmdb	sp!, {r4, r5, r6, r7, r8, r9, sl, fp, lr}
 80011aa:	b085      	sub	sp, #20
 80011ac:	b2de      	uxtb	r6, r3
 80011ae:	f3c3 2507 	ubfx	r5, r3, #8, #8
 80011b2:	4614      	mov	r4, r2
 80011b4:	930f      	str	r3, [sp, #60]	; 0x3c
 80011b6:	1e72      	subs	r2, r6, #1
 80011b8:	1e6b      	subs	r3, r5, #1
 80011ba:	f8bd 8048 	ldrh.w	r8, [sp, #72]	; 0x48
 80011be:	f8bd 7044 	ldrh.w	r7, [sp, #68]	; 0x44
 80011c2:	fa53 f381 	uxtab	r3, r3, r1
 80011c6:	fa52 f280 	uxtab	r2, r2, r0
 80011ca:	b2db      	uxtb	r3, r3
 80011cc:	b2d2      	uxtb	r2, r2
 80011ce:	b2c9      	uxtb	r1, r1
 80011d0:	b2c0      	uxtb	r0, r0
 80011d2:	f7ff ff21 	bl	8001018 <ST7735_SetAddressWindow>
 80011d6:	3c20      	subs	r4, #32
 80011d8:	ea4f 2318 	mov.w	r3, r8, lsr #8
 80011dc:	9301      	str	r3, [sp, #4]
 80011de:	436c      	muls	r4, r5
 80011e0:	0a3b      	lsrs	r3, r7, #8
 80011e2:	9300      	str	r3, [sp, #0]
 80011e4:	0064      	lsls	r4, r4, #1
 80011e6:	f04f 0900 	mov.w	r9, #0
 80011ea:	45a9      	cmp	r9, r5
 80011ec:	d304      	bcc.n	80011f8 <ST7735_WriteChar+0x54>
 80011ee:	b005      	add	sp, #20
 80011f0:	e8bd 4ff0 	ldmia.w	sp!, {r4, r5, r6, r7, r8, r9, sl, fp, lr}
 80011f4:	b002      	add	sp, #8
 80011f6:	4770      	bx	lr
 80011f8:	9b10      	ldr	r3, [sp, #64]	; 0x40
 80011fa:	f833 b004 	ldrh.w	fp, [r3, r4]
 80011fe:	f04f 0a00 	mov.w	sl, #0
 8001202:	4556      	cmp	r6, sl
 8001204:	d803      	bhi.n	800120e <ST7735_WriteChar+0x6a>
 8001206:	f109 0901 	add.w	r9, r9, #1
 800120a:	3402      	adds	r4, #2
 800120c:	e7ed      	b.n	80011ea <ST7735_WriteChar+0x46>
 800120e:	fa0b f10a 	lsl.w	r1, fp, sl
 8001212:	040b      	lsls	r3, r1, #16
 8001214:	bf4a      	itet	mi
 8001216:	9b00      	ldrmi	r3, [sp, #0]
 8001218:	9b01      	ldrpl	r3, [sp, #4]
 800121a:	f88d 300c 	strbmi.w	r3, [sp, #12]
 800121e:	f04f 0102 	mov.w	r1, #2
 8001222:	a803      	add	r0, sp, #12
 8001224:	bf4e      	itee	mi
 8001226:	f88d 700d 	strbmi.w	r7, [sp, #13]
 800122a:	f88d 300c 	strbpl.w	r3, [sp, #12]
 800122e:	f88d 800d 	strbpl.w	r8, [sp, #13]
 8001232:	f10a 0a01 	add.w	sl, sl, #1
 8001236:	f7ff feb7 	bl	8000fa8 <ST7735_WriteData>
 800123a:	e7e2      	b.n	8001202 <ST7735_WriteChar+0x5e>

0800123c <ST7735_WriteString>:
 800123c:	b082      	sub	sp, #8
 800123e:	e92d 4ff0 	stmdb	sp!, {r4, r5, r6, r7, r8, r9, sl, fp, lr}
 8001242:	b087      	sub	sp, #28
 8001244:	f8df a06c 	ldr.w	sl, [pc, #108]	; 80012b4 <ST7735_WriteString+0x78>
 8001248:	f8bd 804c 	ldrh.w	r8, [sp, #76]	; 0x4c
 800124c:	f8bd 9050 	ldrh.w	r9, [sp, #80]	; 0x50
 8001250:	f8df b064 	ldr.w	fp, [pc, #100]	; 80012b8 <ST7735_WriteString+0x7c>
 8001254:	9311      	str	r3, [sp, #68]	; 0x44
 8001256:	4604      	mov	r4, r0
 8001258:	b2de      	uxtb	r6, r3
 800125a:	f3c3 2507 	ubfx	r5, r3, #8, #8
 800125e:	4617      	mov	r7, r2
 8001260:	f817 2b01 	ldrb.w	r2, [r7], #1
 8001264:	b922      	cbnz	r2, 8001270 <ST7735_WriteString+0x34>
 8001266:	b007      	add	sp, #28
 8001268:	e8bd 4ff0 	ldmia.w	sp!, {r4, r5, r6, r7, r8, r9, sl, fp, lr}
 800126c:	b002      	add	sp, #8
 800126e:	4770      	bx	lr
 8001270:	f9ba 0000 	ldrsh.w	r0, [sl]
 8001274:	19a3      	adds	r3, r4, r6
 8001276:	4283      	cmp	r3, r0
 8001278:	db0b      	blt.n	8001292 <ST7735_WriteString+0x56>
 800127a:	194b      	adds	r3, r1, r5
 800127c:	f9bb 0000 	ldrsh.w	r0, [fp]
 8001280:	b299      	uxth	r1, r3
 8001282:	fa15 f383 	uxtah	r3, r5, r3
 8001286:	4283      	cmp	r3, r0
 8001288:	daed      	bge.n	8001266 <ST7735_WriteString+0x2a>
 800128a:	2a20      	cmp	r2, #32
 800128c:	f04f 0400 	mov.w	r4, #0
 8001290:	d0e6      	beq.n	8001260 <ST7735_WriteString+0x24>
 8001292:	9b12      	ldr	r3, [sp, #72]	; 0x48
 8001294:	f88d 6044 	strb.w	r6, [sp, #68]	; 0x44
 8001298:	f88d 5045 	strb.w	r5, [sp, #69]	; 0x45
 800129c:	9300      	str	r3, [sp, #0]
 800129e:	4620      	mov	r0, r4
 80012a0:	e9cd 8901 	strd	r8, r9, [sp, #4]
 80012a4:	9b11      	ldr	r3, [sp, #68]	; 0x44
 80012a6:	9105      	str	r1, [sp, #20]
 80012a8:	4434      	add	r4, r6
 80012aa:	f7ff ff7b 	bl	80011a4 <ST7735_WriteChar>
 80012ae:	b2a4      	uxth	r4, r4
 80012b0:	9905      	ldr	r1, [sp, #20]
 80012b2:	e7d5      	b.n	8001260 <ST7735_WriteString+0x24>
 80012b4:	200000fa 	.word	0x200000fa
 80012b8:	200000f6 	.word	0x200000f6

080012bc <ST7735_FillRectangle>:
 80012bc:	b5f7      	push	{r0, r1, r2, r4, r5, r6, r7, lr}
 80012be:	461c      	mov	r4, r3
 80012c0:	4b20      	ldr	r3, [pc, #128]	; (8001344 <ST7735_FillRectangle+0x88>)
 80012c2:	f8bd 6020 	ldrh.w	r6, [sp, #32]
 80012c6:	4615      	mov	r5, r2
 80012c8:	f9b3 2000 	ldrsh.w	r2, [r3]
 80012cc:	4290      	cmp	r0, r2
 80012ce:	da27      	bge.n	8001320 <ST7735_FillRectangle+0x64>
 80012d0:	4b1d      	ldr	r3, [pc, #116]	; (8001348 <ST7735_FillRectangle+0x8c>)
 80012d2:	f9b3 3000 	ldrsh.w	r3, [r3]
 80012d6:	4299      	cmp	r1, r3
 80012d8:	da22      	bge.n	8001320 <ST7735_FillRectangle+0x64>
 80012da:	182f      	adds	r7, r5, r0
 80012dc:	42ba      	cmp	r2, r7
 80012de:	bfbc      	itt	lt
 80012e0:	1a12      	sublt	r2, r2, r0
 80012e2:	b295      	uxthlt	r5, r2
 80012e4:	1862      	adds	r2, r4, r1
 80012e6:	4293      	cmp	r3, r2
 80012e8:	bfb8      	it	lt
 80012ea:	1a5b      	sublt	r3, r3, r1
 80012ec:	b2c0      	uxtb	r0, r0
 80012ee:	b2c9      	uxtb	r1, r1
 80012f0:	bfb8      	it	lt
 80012f2:	b29c      	uxthlt	r4, r3
 80012f4:	1e42      	subs	r2, r0, #1
 80012f6:	1e4b      	subs	r3, r1, #1
 80012f8:	4423      	add	r3, r4
 80012fa:	442a      	add	r2, r5
 80012fc:	b2db      	uxtb	r3, r3
 80012fe:	b2d2      	uxtb	r2, r2
 8001300:	f7ff fe8a 	bl	8001018 <ST7735_SetAddressWindow>
 8001304:	0a33      	lsrs	r3, r6, #8
 8001306:	2201      	movs	r2, #1
 8001308:	f44f 6100 	mov.w	r1, #2048	; 0x800
 800130c:	f04f 4090 	mov.w	r0, #1207959552	; 0x48000000
 8001310:	f88d 3004 	strb.w	r3, [sp, #4]
 8001314:	f88d 6005 	strb.w	r6, [sp, #5]
 8001318:	f005 fcc2 	bl	8006ca0 <HAL_GPIO_WritePin>
 800131c:	4f0b      	ldr	r7, [pc, #44]	; (800134c <ST7735_FillRectangle+0x90>)
 800131e:	b97c      	cbnz	r4, 8001340 <ST7735_FillRectangle+0x84>
 8001320:	b003      	add	sp, #12
 8001322:	bdf0      	pop	{r4, r5, r6, r7, pc}
 8001324:	f04f 33ff 	mov.w	r3, #4294967295	; 0xffffffff
 8001328:	2202      	movs	r2, #2
 800132a:	a901      	add	r1, sp, #4
 800132c:	4638      	mov	r0, r7
 800132e:	f006 fe19 	bl	8007f64 <HAL_SPI_Transmit>
 8001332:	3e01      	subs	r6, #1
 8001334:	b2b6      	uxth	r6, r6
 8001336:	2e00      	cmp	r6, #0
 8001338:	d1f4      	bne.n	8001324 <ST7735_FillRectangle+0x68>
 800133a:	3c01      	subs	r4, #1
 800133c:	b2a4      	uxth	r4, r4
 800133e:	e7ee      	b.n	800131e <ST7735_FillRectangle+0x62>
 8001340:	462e      	mov	r6, r5
 8001342:	e7f8      	b.n	8001336 <ST7735_FillRectangle+0x7a>
 8001344:	200000fa 	.word	0x200000fa
 8001348:	200000f6 	.word	0x200000f6
 800134c:	200009c0 	.word	0x200009c0

08001350 <writeLine>:
 8001350:	e92d 4ff0 	stmdb	sp!, {r4, r5, r6, r7, r8, r9, sl, fp, lr}
 8001354:	eba3 0901 	sub.w	r9, r3, r1
 8001358:	eba2 0a00 	sub.w	sl, r2, r0
 800135c:	f1b9 0f00 	cmp.w	r9, #0
 8001360:	bfb8      	it	lt
 8001362:	f1c9 0900 	rsblt	r9, r9, #0
 8001366:	f1ba 0f00 	cmp.w	sl, #0
 800136a:	b085      	sub	sp, #20
 800136c:	bfb8      	it	lt
 800136e:	f1ca 0a00 	rsblt	sl, sl, #0
 8001372:	45d1      	cmp	r9, sl
 8001374:	f8bd 6038 	ldrh.w	r6, [sp, #56]	; 0x38
 8001378:	460f      	mov	r7, r1
 800137a:	4690      	mov	r8, r2
 800137c:	dd04      	ble.n	8001388 <writeLine+0x38>
 800137e:	4601      	mov	r1, r0
 8001380:	4698      	mov	r8, r3
 8001382:	4638      	mov	r0, r7
 8001384:	4613      	mov	r3, r2
 8001386:	460f      	mov	r7, r1
 8001388:	4540      	cmp	r0, r8
 800138a:	dd05      	ble.n	8001398 <writeLine+0x48>
 800138c:	4639      	mov	r1, r7
 800138e:	461f      	mov	r7, r3
 8001390:	460b      	mov	r3, r1
 8001392:	4601      	mov	r1, r0
 8001394:	4640      	mov	r0, r8
 8001396:	4688      	mov	r8, r1
 8001398:	eba8 0500 	sub.w	r5, r8, r0
 800139c:	b2aa      	uxth	r2, r5
 800139e:	eba3 0b07 	sub.w	fp, r3, r7
 80013a2:	9201      	str	r2, [sp, #4]
 80013a4:	f3c5 31c0 	ubfx	r1, r5, #15, #1
 80013a8:	ea8b 72eb 	eor.w	r2, fp, fp, asr #31
 80013ac:	eba2 72eb 	sub.w	r2, r2, fp, asr #31
 80013b0:	fa01 f585 	sxtah	r5, r1, r5
 80013b4:	429f      	cmp	r7, r3
 80013b6:	bfb4      	ite	lt
 80013b8:	2301      	movlt	r3, #1
 80013ba:	f04f 33ff 	movge.w	r3, #4294967295	; 0xffffffff
 80013be:	9202      	str	r2, [sp, #8]
 80013c0:	106d      	asrs	r5, r5, #1
 80013c2:	9303      	str	r3, [sp, #12]
 80013c4:	4540      	cmp	r0, r8
 80013c6:	dd02      	ble.n	80013ce <writeLine+0x7e>
 80013c8:	b005      	add	sp, #20
 80013ca:	e8bd 8ff0 	ldmia.w	sp!, {r4, r5, r6, r7, r8, r9, sl, fp, pc}
 80013ce:	45d1      	cmp	r9, sl
 80013d0:	b284      	uxth	r4, r0
 80013d2:	fa1f fb87 	uxth.w	fp, r7
 80013d6:	bfcb      	itete	gt
 80013d8:	4621      	movgt	r1, r4
 80013da:	4659      	movle	r1, fp
 80013dc:	4658      	movgt	r0, fp
 80013de:	4620      	movle	r0, r4
 80013e0:	4632      	mov	r2, r6
 80013e2:	f7ff febb 	bl	800115c <ST7735_DrawPixel>
 80013e6:	9b02      	ldr	r3, [sp, #8]
 80013e8:	1aed      	subs	r5, r5, r3
 80013ea:	b2a9      	uxth	r1, r5
 80013ec:	b22d      	sxth	r5, r5
 80013ee:	2d00      	cmp	r5, #0
 80013f0:	da05      	bge.n	80013fe <writeLine+0xae>
 80013f2:	9b03      	ldr	r3, [sp, #12]
 80013f4:	445b      	add	r3, fp
 80013f6:	b21f      	sxth	r7, r3
 80013f8:	9b01      	ldr	r3, [sp, #4]
 80013fa:	185d      	adds	r5, r3, r1
 80013fc:	b22d      	sxth	r5, r5
 80013fe:	3401      	adds	r4, #1
 8001400:	b220      	sxth	r0, r4
 8001402:	e7df      	b.n	80013c4 <writeLine+0x74>

08001404 <drawFastVLine>:
 8001404:	b507      	push	{r0, r1, r2, lr}
 8001406:	3a01      	subs	r2, #1
 8001408:	440a      	add	r2, r1
 800140a:	9300      	str	r3, [sp, #0]
 800140c:	b213      	sxth	r3, r2
 800140e:	4602      	mov	r2, r0
 8001410:	f7ff ff9e 	bl	8001350 <writeLine>
 8001414:	b003      	add	sp, #12
 8001416:	f85d fb04 	ldr.w	pc, [sp], #4

0800141a <drawFastHLine>:
 800141a:	b507      	push	{r0, r1, r2, lr}
 800141c:	3a01      	subs	r2, #1
 800141e:	4402      	add	r2, r0
 8001420:	9300      	str	r3, [sp, #0]
 8001422:	b212      	sxth	r2, r2
 8001424:	460b      	mov	r3, r1
 8001426:	f7ff ff93 	bl	8001350 <writeLine>
 800142a:	b003      	add	sp, #12
 800142c:	f85d fb04 	ldr.w	pc, [sp], #4

08001430 <drawLine>:
 8001430:	b4f0      	push	{r4, r5, r6, r7}
 8001432:	4290      	cmp	r0, r2
 8001434:	f8bd c010 	ldrh.w	ip, [sp, #16]
 8001438:	4606      	mov	r6, r0
 800143a:	460f      	mov	r7, r1
 800143c:	4614      	mov	r4, r2
 800143e:	461d      	mov	r5, r3
 8001440:	d10c      	bne.n	800145c <drawLine+0x2c>
 8001442:	4299      	cmp	r1, r3
 8001444:	bfc2      	ittt	gt
 8001446:	460b      	movgt	r3, r1
 8001448:	462f      	movgt	r7, r5
 800144a:	461d      	movgt	r5, r3
 800144c:	1c6a      	adds	r2, r5, #1
 800144e:	1bd2      	subs	r2, r2, r7
 8001450:	4639      	mov	r1, r7
 8001452:	4663      	mov	r3, ip
 8001454:	bcf0      	pop	{r4, r5, r6, r7}
 8001456:	b212      	sxth	r2, r2
 8001458:	f7ff bfd4 	b.w	8001404 <drawFastVLine>
 800145c:	4299      	cmp	r1, r3
 800145e:	d10c      	bne.n	800147a <drawLine+0x4a>
 8001460:	4290      	cmp	r0, r2
 8001462:	bfc2      	ittt	gt
 8001464:	4603      	movgt	r3, r0
 8001466:	461c      	movgt	r4, r3
 8001468:	4616      	movgt	r6, r2
 800146a:	1c62      	adds	r2, r4, #1
 800146c:	1b92      	subs	r2, r2, r6
 800146e:	4630      	mov	r0, r6
 8001470:	4663      	mov	r3, ip
 8001472:	bcf0      	pop	{r4, r5, r6, r7}
 8001474:	b212      	sxth	r2, r2
 8001476:	f7ff bfd0 	b.w	800141a <drawFastHLine>
 800147a:	f8cd c010 	str.w	ip, [sp, #16]
 800147e:	bcf0      	pop	{r4, r5, r6, r7}
 8001480:	f7ff bf66 	b.w	8001350 <writeLine>
 8001484:	0000      	movs	r0, r0
	...

08001488 <drawArrow>:
 8001488:	e92d 4ff0 	stmdb	sp!, {r4, r5, r6, r7, r8, r9, sl, fp, lr}
 800148c:	b0a3      	sub	sp, #140	; 0x8c
 800148e:	e9dd 672c 	ldrd	r6, r7, [sp, #176]	; 0xb0
 8001492:	f9bd 30b8 	ldrsh.w	r3, [sp, #184]	; 0xb8
 8001496:	9310      	str	r3, [sp, #64]	; 0x40
 8001498:	f8bd 30bc 	ldrh.w	r3, [sp, #188]	; 0xbc
 800149c:	9306      	str	r3, [sp, #24]
 800149e:	4681      	mov	r9, r0
 80014a0:	f8bd 30c0 	ldrh.w	r3, [sp, #192]	; 0xc0
 80014a4:	920c      	str	r2, [sp, #48]	; 0x30
 80014a6:	4688      	mov	r8, r1
 80014a8:	4630      	mov	r0, r6
 80014aa:	4639      	mov	r1, r7
 80014ac:	9318      	str	r3, [sp, #96]	; 0x60
 80014ae:	f00b fe31 	bl	800d114 <sin>
 80014b2:	4682      	mov	sl, r0
 80014b4:	460c      	mov	r4, r1
 80014b6:	4630      	mov	r0, r6
 80014b8:	4639      	mov	r1, r7
 80014ba:	f00b fde5 	bl	800d088 <cos>
 80014be:	a3bc      	add	r3, pc, #752	; (adr r3, 80017b0 <drawArrow+0x328>)
 80014c0:	e9d3 2300 	ldrd	r2, r3, [r3]
 80014c4:	4683      	mov	fp, r0
 80014c6:	460d      	mov	r5, r1
 80014c8:	4630      	mov	r0, r6
 80014ca:	4639      	mov	r1, r7
 80014cc:	f7ff fad6 	bl	8000a7c <__aeabi_dcmplt>
 80014d0:	a3b7      	add	r3, pc, #732	; (adr r3, 80017b0 <drawArrow+0x328>)
 80014d2:	e9d3 2300 	ldrd	r2, r3, [r3]
 80014d6:	2800      	cmp	r0, #0
 80014d8:	f000 82c0 	beq.w	8001a5c <drawArrow+0x5d4>
 80014dc:	4630      	mov	r0, r6
 80014de:	4639      	mov	r1, r7
 80014e0:	f7fe fea4 	bl	800022c <__adddf3>
 80014e4:	f104 4300 	add.w	r3, r4, #2147483648	; 0x80000000
 80014e8:	4606      	mov	r6, r0
 80014ea:	9320      	str	r3, [sp, #128]	; 0x80
 80014ec:	4648      	mov	r0, r9
 80014ee:	f105 4300 	add.w	r3, r5, #2147483648	; 0x80000000
 80014f2:	460f      	mov	r7, r1
 80014f4:	9321      	str	r3, [sp, #132]	; 0x84
 80014f6:	f7fe ffe5 	bl	80004c4 <__aeabi_i2d>
 80014fa:	e9cd 0102 	strd	r0, r1, [sp, #8]
 80014fe:	980c      	ldr	r0, [sp, #48]	; 0x30
 8001500:	f7fe ffe0 	bl	80004c4 <__aeabi_i2d>
 8001504:	4602      	mov	r2, r0
 8001506:	460b      	mov	r3, r1
 8001508:	e9cd 2314 	strd	r2, r3, [sp, #80]	; 0x50
 800150c:	4652      	mov	r2, sl
 800150e:	4623      	mov	r3, r4
 8001510:	f7ff f842 	bl	8000598 <__aeabi_dmul>
 8001514:	e9dd 2302 	ldrd	r2, r3, [sp, #8]
 8001518:	f7fe fe88 	bl	800022c <__adddf3>
 800151c:	e9cd 0108 	strd	r0, r1, [sp, #32]
 8001520:	4640      	mov	r0, r8
 8001522:	f7fe ffcf 	bl	80004c4 <__aeabi_i2d>
 8001526:	465a      	mov	r2, fp
 8001528:	e9cd 0104 	strd	r0, r1, [sp, #16]
 800152c:	462b      	mov	r3, r5
 800152e:	e9dd 0114 	ldrd	r0, r1, [sp, #80]	; 0x50
 8001532:	f7ff f831 	bl	8000598 <__aeabi_dmul>
 8001536:	4602      	mov	r2, r0
 8001538:	460b      	mov	r3, r1
 800153a:	e9dd 0104 	ldrd	r0, r1, [sp, #16]
 800153e:	f7fe fe73 	bl	8000228 <__aeabi_dsub>
 8001542:	4b9d      	ldr	r3, [pc, #628]	; (80017b8 <drawArrow+0x330>)
 8001544:	4680      	mov	r8, r0
 8001546:	4689      	mov	r9, r1
 8001548:	2200      	movs	r2, #0
 800154a:	4630      	mov	r0, r6
 800154c:	4639      	mov	r1, r7
 800154e:	f7fe fe6d 	bl	800022c <__adddf3>
 8001552:	4602      	mov	r2, r0
 8001554:	460b      	mov	r3, r1
 8001556:	e9cd 230e 	strd	r2, r3, [sp, #56]	; 0x38
 800155a:	f00b fddb 	bl	800d114 <sin>
 800155e:	e9dd 230e 	ldrd	r2, r3, [sp, #56]	; 0x38
 8001562:	e9cd 010a 	strd	r0, r1, [sp, #40]	; 0x28
 8001566:	4610      	mov	r0, r2
 8001568:	4619      	mov	r1, r3
 800156a:	f00b fd8d 	bl	800d088 <cos>
 800156e:	4b92      	ldr	r3, [pc, #584]	; (80017b8 <drawArrow+0x330>)
 8001570:	e9cd 010e 	strd	r0, r1, [sp, #56]	; 0x38
 8001574:	2200      	movs	r2, #0
 8001576:	4630      	mov	r0, r6
 8001578:	4639      	mov	r1, r7
 800157a:	f7fe fe55 	bl	8000228 <__aeabi_dsub>
 800157e:	4606      	mov	r6, r0
 8001580:	460f      	mov	r7, r1
 8001582:	f00b fdc7 	bl	800d114 <sin>
 8001586:	4b8d      	ldr	r3, [pc, #564]	; (80017bc <drawArrow+0x334>)
 8001588:	2200      	movs	r2, #0
 800158a:	f7ff f805 	bl	8000598 <__aeabi_dmul>
 800158e:	e9dd 2308 	ldrd	r2, r3, [sp, #32]
 8001592:	f7fe fe4b 	bl	800022c <__adddf3>
 8001596:	e9cd 0112 	strd	r0, r1, [sp, #72]	; 0x48
 800159a:	4630      	mov	r0, r6
 800159c:	4639      	mov	r1, r7
 800159e:	f00b fd73 	bl	800d088 <cos>
 80015a2:	4b86      	ldr	r3, [pc, #536]	; (80017bc <drawArrow+0x334>)
 80015a4:	2200      	movs	r2, #0
 80015a6:	f7fe fff7 	bl	8000598 <__aeabi_dmul>
 80015aa:	4602      	mov	r2, r0
 80015ac:	460b      	mov	r3, r1
 80015ae:	4640      	mov	r0, r8
 80015b0:	4649      	mov	r1, r9
 80015b2:	f7fe fe39 	bl	8000228 <__aeabi_dsub>
 80015b6:	e9cd 0116 	strd	r0, r1, [sp, #88]	; 0x58
 80015ba:	e9dd 0108 	ldrd	r0, r1, [sp, #32]
 80015be:	f7ff fa9b 	bl	8000af8 <__aeabi_d2iz>
 80015c2:	4649      	mov	r1, r9
 80015c4:	b206      	sxth	r6, r0
 80015c6:	4640      	mov	r0, r8
 80015c8:	f7ff fa96 	bl	8000af8 <__aeabi_d2iz>
 80015cc:	4b7b      	ldr	r3, [pc, #492]	; (80017bc <drawArrow+0x334>)
 80015ce:	b207      	sxth	r7, r0
 80015d0:	2200      	movs	r2, #0
 80015d2:	e9dd 010e 	ldrd	r0, r1, [sp, #56]	; 0x38
 80015d6:	f7fe ffdf 	bl	8000598 <__aeabi_dmul>
 80015da:	4602      	mov	r2, r0
 80015dc:	460b      	mov	r3, r1
 80015de:	4640      	mov	r0, r8
 80015e0:	4649      	mov	r1, r9
 80015e2:	f7fe fe21 	bl	8000228 <__aeabi_dsub>
 80015e6:	f7ff fa87 	bl	8000af8 <__aeabi_d2iz>
 80015ea:	4b74      	ldr	r3, [pc, #464]	; (80017bc <drawArrow+0x334>)
 80015ec:	fa0f f880 	sxth.w	r8, r0
 80015f0:	2200      	movs	r2, #0
 80015f2:	e9dd 010a 	ldrd	r0, r1, [sp, #40]	; 0x28
 80015f6:	f7fe ffcf 	bl	8000598 <__aeabi_dmul>
 80015fa:	e9dd 2308 	ldrd	r2, r3, [sp, #32]
 80015fe:	f7fe fe15 	bl	800022c <__adddf3>
 8001602:	f7ff fa79 	bl	8000af8 <__aeabi_d2iz>
 8001606:	9b06      	ldr	r3, [sp, #24]
 8001608:	9300      	str	r3, [sp, #0]
 800160a:	b202      	sxth	r2, r0
 800160c:	4643      	mov	r3, r8
 800160e:	4639      	mov	r1, r7
 8001610:	4630      	mov	r0, r6
 8001612:	f7ff ff0d 	bl	8001430 <drawLine>
 8001616:	e9dd 0116 	ldrd	r0, r1, [sp, #88]	; 0x58
 800161a:	f7ff fa6d 	bl	8000af8 <__aeabi_d2iz>
 800161e:	fa0f f880 	sxth.w	r8, r0
 8001622:	e9dd 0112 	ldrd	r0, r1, [sp, #72]	; 0x48
 8001626:	f7ff fa67 	bl	8000af8 <__aeabi_d2iz>
 800162a:	9b06      	ldr	r3, [sp, #24]
 800162c:	9300      	str	r3, [sp, #0]
 800162e:	b202      	sxth	r2, r0
 8001630:	4643      	mov	r3, r8
 8001632:	4639      	mov	r1, r7
 8001634:	4630      	mov	r0, r6
 8001636:	f7ff fefb 	bl	8001430 <drawLine>
 800163a:	9a10      	ldr	r2, [sp, #64]	; 0x40
 800163c:	9b0c      	ldr	r3, [sp, #48]	; 0x30
 800163e:	1a9b      	subs	r3, r3, r2
 8001640:	4618      	mov	r0, r3
 8001642:	9319      	str	r3, [sp, #100]	; 0x64
 8001644:	f7fe ff3e 	bl	80004c4 <__aeabi_i2d>
 8001648:	4652      	mov	r2, sl
 800164a:	4623      	mov	r3, r4
 800164c:	4680      	mov	r8, r0
 800164e:	4689      	mov	r9, r1
 8001650:	f7fe ffa2 	bl	8000598 <__aeabi_dmul>
 8001654:	465a      	mov	r2, fp
 8001656:	e9cd 0108 	strd	r0, r1, [sp, #32]
 800165a:	462b      	mov	r3, r5
 800165c:	4640      	mov	r0, r8
 800165e:	4649      	mov	r1, r9
 8001660:	f7fe ff9a 	bl	8000598 <__aeabi_dmul>
 8001664:	4602      	mov	r2, r0
 8001666:	460b      	mov	r3, r1
 8001668:	e9cd 010a 	strd	r0, r1, [sp, #40]	; 0x28
 800166c:	e9dd 0104 	ldrd	r0, r1, [sp, #16]
 8001670:	f7fe fdda 	bl	8000228 <__aeabi_dsub>
 8001674:	f7ff fa40 	bl	8000af8 <__aeabi_d2iz>
 8001678:	e9dd 2308 	ldrd	r2, r3, [sp, #32]
 800167c:	fa0f f880 	sxth.w	r8, r0
 8001680:	e9dd 0102 	ldrd	r0, r1, [sp, #8]
 8001684:	f7fe fdd2 	bl	800022c <__adddf3>
 8001688:	f7ff fa36 	bl	8000af8 <__aeabi_d2iz>
 800168c:	9b06      	ldr	r3, [sp, #24]
 800168e:	9300      	str	r3, [sp, #0]
 8001690:	4632      	mov	r2, r6
 8001692:	463b      	mov	r3, r7
 8001694:	4641      	mov	r1, r8
 8001696:	b200      	sxth	r0, r0
 8001698:	f7ff feca 	bl	8001430 <drawLine>
 800169c:	e9dd 0102 	ldrd	r0, r1, [sp, #8]
 80016a0:	465a      	mov	r2, fp
 80016a2:	462b      	mov	r3, r5
 80016a4:	f7fe fdc2 	bl	800022c <__adddf3>
 80016a8:	4652      	mov	r2, sl
 80016aa:	e9cd 010e 	strd	r0, r1, [sp, #56]	; 0x38
 80016ae:	4623      	mov	r3, r4
 80016b0:	e9dd 0104 	ldrd	r0, r1, [sp, #16]
 80016b4:	f7fe fdba 	bl	800022c <__adddf3>
 80016b8:	9b0c      	ldr	r3, [sp, #48]	; 0x30
 80016ba:	e9cd 0110 	strd	r0, r1, [sp, #64]	; 0x40
 80016be:	1e98      	subs	r0, r3, #2
 80016c0:	f7fe ff00 	bl	80004c4 <__aeabi_i2d>
 80016c4:	4652      	mov	r2, sl
 80016c6:	4623      	mov	r3, r4
 80016c8:	4606      	mov	r6, r0
 80016ca:	460f      	mov	r7, r1
 80016cc:	f7fe ff64 	bl	8000598 <__aeabi_dmul>
 80016d0:	465a      	mov	r2, fp
 80016d2:	e9cd 011a 	strd	r0, r1, [sp, #104]	; 0x68
 80016d6:	462b      	mov	r3, r5
 80016d8:	4630      	mov	r0, r6
 80016da:	4639      	mov	r1, r7
 80016dc:	f7fe ff5c 	bl	8000598 <__aeabi_dmul>
 80016e0:	4602      	mov	r2, r0
 80016e2:	460b      	mov	r3, r1
 80016e4:	4606      	mov	r6, r0
 80016e6:	460f      	mov	r7, r1
 80016e8:	e9dd 0110 	ldrd	r0, r1, [sp, #64]	; 0x40
 80016ec:	f7fe fd9c 	bl	8000228 <__aeabi_dsub>
 80016f0:	f7ff fa02 	bl	8000af8 <__aeabi_d2iz>
 80016f4:	b203      	sxth	r3, r0
 80016f6:	9312      	str	r3, [sp, #72]	; 0x48
 80016f8:	e9dd 011a 	ldrd	r0, r1, [sp, #104]	; 0x68
 80016fc:	e9dd 230e 	ldrd	r2, r3, [sp, #56]	; 0x38
 8001700:	f7fe fd94 	bl	800022c <__adddf3>
 8001704:	f7ff f9f8 	bl	8000af8 <__aeabi_d2iz>
 8001708:	e9dd 230a 	ldrd	r2, r3, [sp, #40]	; 0x28
 800170c:	fa0f f980 	sxth.w	r9, r0
 8001710:	e9dd 0110 	ldrd	r0, r1, [sp, #64]	; 0x40
 8001714:	f7fe fd88 	bl	8000228 <__aeabi_dsub>
 8001718:	f7ff f9ee 	bl	8000af8 <__aeabi_d2iz>
 800171c:	e9dd 230e 	ldrd	r2, r3, [sp, #56]	; 0x38
 8001720:	fa0f f880 	sxth.w	r8, r0
 8001724:	e9dd 0108 	ldrd	r0, r1, [sp, #32]
 8001728:	f7fe fd80 	bl	800022c <__adddf3>
 800172c:	f7ff f9e4 	bl	8000af8 <__aeabi_d2iz>
 8001730:	9b06      	ldr	r3, [sp, #24]
 8001732:	9300      	str	r3, [sp, #0]
 8001734:	464a      	mov	r2, r9
 8001736:	9b12      	ldr	r3, [sp, #72]	; 0x48
 8001738:	4641      	mov	r1, r8
 800173a:	b200      	sxth	r0, r0
 800173c:	f7ff fe78 	bl	8001430 <drawLine>
 8001740:	e9dd 0102 	ldrd	r0, r1, [sp, #8]
 8001744:	465a      	mov	r2, fp
 8001746:	462b      	mov	r3, r5
 8001748:	f7fe fd6e 	bl	8000228 <__aeabi_dsub>
 800174c:	4652      	mov	r2, sl
 800174e:	e9cd 0112 	strd	r0, r1, [sp, #72]	; 0x48
 8001752:	4623      	mov	r3, r4
 8001754:	e9dd 0104 	ldrd	r0, r1, [sp, #16]
 8001758:	f7fe fd66 	bl	8000228 <__aeabi_dsub>
 800175c:	4602      	mov	r2, r0
 800175e:	460b      	mov	r3, r1
 8001760:	e9cd 2316 	strd	r2, r3, [sp, #88]	; 0x58
 8001764:	4632      	mov	r2, r6
 8001766:	463b      	mov	r3, r7
 8001768:	f7fe fd5e 	bl	8000228 <__aeabi_dsub>
 800176c:	f7ff f9c4 	bl	8000af8 <__aeabi_d2iz>
 8001770:	e9dd 2312 	ldrd	r2, r3, [sp, #72]	; 0x48
 8001774:	b206      	sxth	r6, r0
 8001776:	e9dd 011a 	ldrd	r0, r1, [sp, #104]	; 0x68
 800177a:	f7fe fd57 	bl	800022c <__adddf3>
 800177e:	f7ff f9bb 	bl	8000af8 <__aeabi_d2iz>
 8001782:	e9dd 230a 	ldrd	r2, r3, [sp, #40]	; 0x28
 8001786:	fa0f f880 	sxth.w	r8, r0
 800178a:	e9dd 0116 	ldrd	r0, r1, [sp, #88]	; 0x58
 800178e:	f7fe fd4b 	bl	8000228 <__aeabi_dsub>
 8001792:	f7ff f9b1 	bl	8000af8 <__aeabi_d2iz>
 8001796:	e9dd 2312 	ldrd	r2, r3, [sp, #72]	; 0x48
 800179a:	b207      	sxth	r7, r0
 800179c:	e9dd 0108 	ldrd	r0, r1, [sp, #32]
 80017a0:	f7fe fd44 	bl	800022c <__adddf3>
 80017a4:	f7ff f9a8 	bl	8000af8 <__aeabi_d2iz>
 80017a8:	9b06      	ldr	r3, [sp, #24]
 80017aa:	9300      	str	r3, [sp, #0]
 80017ac:	e008      	b.n	80017c0 <drawArrow+0x338>
 80017ae:	bf00      	nop
 80017b0:	54442d18 	.word	0x54442d18
 80017b4:	400921fb 	.word	0x400921fb
 80017b8:	3fe00000 	.word	0x3fe00000
 80017bc:	40220000 	.word	0x40220000
 80017c0:	4642      	mov	r2, r8
 80017c2:	4633      	mov	r3, r6
 80017c4:	4639      	mov	r1, r7
 80017c6:	b200      	sxth	r0, r0
 80017c8:	f7ff fe32 	bl	8001430 <drawLine>
 80017cc:	465a      	mov	r2, fp
 80017ce:	462b      	mov	r3, r5
 80017d0:	4658      	mov	r0, fp
 80017d2:	4629      	mov	r1, r5
 80017d4:	f7fe fd2a 	bl	800022c <__adddf3>
 80017d8:	e9cd 011a 	strd	r0, r1, [sp, #104]	; 0x68
 80017dc:	4602      	mov	r2, r0
 80017de:	460b      	mov	r3, r1
 80017e0:	e9dd 0102 	ldrd	r0, r1, [sp, #8]
 80017e4:	f7fe fd22 	bl	800022c <__adddf3>
 80017e8:	4652      	mov	r2, sl
 80017ea:	e9cd 011c 	strd	r0, r1, [sp, #112]	; 0x70
 80017ee:	4623      	mov	r3, r4
 80017f0:	4650      	mov	r0, sl
 80017f2:	4621      	mov	r1, r4
 80017f4:	f7fe fd1a 	bl	800022c <__adddf3>
 80017f8:	4602      	mov	r2, r0
 80017fa:	e9cd 011e 	strd	r0, r1, [sp, #120]	; 0x78
 80017fe:	460b      	mov	r3, r1
 8001800:	e9dd 0104 	ldrd	r0, r1, [sp, #16]
 8001804:	f7fe fd12 	bl	800022c <__adddf3>
 8001808:	9b0c      	ldr	r3, [sp, #48]	; 0x30
 800180a:	4606      	mov	r6, r0
 800180c:	1f18      	subs	r0, r3, #4
 800180e:	460f      	mov	r7, r1
 8001810:	f7fe fe58 	bl	80004c4 <__aeabi_i2d>
 8001814:	4652      	mov	r2, sl
 8001816:	4623      	mov	r3, r4
 8001818:	4680      	mov	r8, r0
 800181a:	4689      	mov	r9, r1
 800181c:	f7fe febc 	bl	8000598 <__aeabi_dmul>
 8001820:	465a      	mov	r2, fp
 8001822:	e9cd 010c 	strd	r0, r1, [sp, #48]	; 0x30
 8001826:	462b      	mov	r3, r5
 8001828:	4640      	mov	r0, r8
 800182a:	4649      	mov	r1, r9
 800182c:	f7fe feb4 	bl	8000598 <__aeabi_dmul>
 8001830:	4602      	mov	r2, r0
 8001832:	460b      	mov	r3, r1
 8001834:	4680      	mov	r8, r0
 8001836:	4689      	mov	r9, r1
 8001838:	4630      	mov	r0, r6
 800183a:	4639      	mov	r1, r7
 800183c:	f7fe fcf4 	bl	8000228 <__aeabi_dsub>
 8001840:	f7ff f95a 	bl	8000af8 <__aeabi_d2iz>
 8001844:	e9dd 231c 	ldrd	r2, r3, [sp, #112]	; 0x70
 8001848:	b205      	sxth	r5, r0
 800184a:	e9dd 010c 	ldrd	r0, r1, [sp, #48]	; 0x30
 800184e:	f7fe fced 	bl	800022c <__adddf3>
 8001852:	f7ff f951 	bl	8000af8 <__aeabi_d2iz>
 8001856:	e9dd 230a 	ldrd	r2, r3, [sp, #40]	; 0x28
 800185a:	b204      	sxth	r4, r0
 800185c:	4639      	mov	r1, r7
 800185e:	4630      	mov	r0, r6
 8001860:	f7fe fce2 	bl	8000228 <__aeabi_dsub>
 8001864:	f7ff f948 	bl	8000af8 <__aeabi_d2iz>
 8001868:	e9dd 231c 	ldrd	r2, r3, [sp, #112]	; 0x70
 800186c:	b206      	sxth	r6, r0
 800186e:	e9dd 0108 	ldrd	r0, r1, [sp, #32]
 8001872:	f7fe fcdb 	bl	800022c <__adddf3>
 8001876:	f7ff f93f 	bl	8000af8 <__aeabi_d2iz>
 800187a:	9b06      	ldr	r3, [sp, #24]
 800187c:	9300      	str	r3, [sp, #0]
 800187e:	4622      	mov	r2, r4
 8001880:	462b      	mov	r3, r5
 8001882:	4631      	mov	r1, r6
 8001884:	b200      	sxth	r0, r0
 8001886:	f7ff fdd3 	bl	8001430 <drawLine>
 800188a:	e9dd 231a 	ldrd	r2, r3, [sp, #104]	; 0x68
 800188e:	e9dd 0102 	ldrd	r0, r1, [sp, #8]
 8001892:	f7fe fcc9 	bl	8000228 <__aeabi_dsub>
 8001896:	e9dd 231e 	ldrd	r2, r3, [sp, #120]	; 0x78
 800189a:	4604      	mov	r4, r0
 800189c:	460d      	mov	r5, r1
 800189e:	e9dd 0104 	ldrd	r0, r1, [sp, #16]
 80018a2:	f7fe fcc1 	bl	8000228 <__aeabi_dsub>
 80018a6:	4642      	mov	r2, r8
 80018a8:	464b      	mov	r3, r9
 80018aa:	4606      	mov	r6, r0
 80018ac:	460f      	mov	r7, r1
 80018ae:	f7fe fcbb 	bl	8000228 <__aeabi_dsub>
 80018b2:	f7ff f921 	bl	8000af8 <__aeabi_d2iz>
 80018b6:	4622      	mov	r2, r4
 80018b8:	462b      	mov	r3, r5
 80018ba:	fa0f f880 	sxth.w	r8, r0
 80018be:	e9dd 010c 	ldrd	r0, r1, [sp, #48]	; 0x30
 80018c2:	f7fe fcb3 	bl	800022c <__adddf3>
 80018c6:	f7ff f917 	bl	8000af8 <__aeabi_d2iz>
 80018ca:	e9dd 230a 	ldrd	r2, r3, [sp, #40]	; 0x28
 80018ce:	fa0f f980 	sxth.w	r9, r0
 80018d2:	4639      	mov	r1, r7
 80018d4:	4630      	mov	r0, r6
 80018d6:	f7fe fca7 	bl	8000228 <__aeabi_dsub>
 80018da:	f7ff f90d 	bl	8000af8 <__aeabi_d2iz>
 80018de:	4622      	mov	r2, r4
 80018e0:	462b      	mov	r3, r5
 80018e2:	b206      	sxth	r6, r0
 80018e4:	e9dd 0108 	ldrd	r0, r1, [sp, #32]
 80018e8:	f7fe fca0 	bl	800022c <__adddf3>
 80018ec:	f7ff f904 	bl	8000af8 <__aeabi_d2iz>
 80018f0:	9b06      	ldr	r3, [sp, #24]
 80018f2:	9300      	str	r3, [sp, #0]
 80018f4:	464a      	mov	r2, r9
 80018f6:	4643      	mov	r3, r8
 80018f8:	4631      	mov	r1, r6
 80018fa:	b200      	sxth	r0, r0
 80018fc:	f7ff fd98 	bl	8001430 <drawLine>
 8001900:	9b19      	ldr	r3, [sp, #100]	; 0x64
 8001902:	1cd8      	adds	r0, r3, #3
 8001904:	f7fe fdde 	bl	80004c4 <__aeabi_i2d>
 8001908:	9b20      	ldr	r3, [sp, #128]	; 0x80
 800190a:	4652      	mov	r2, sl
 800190c:	4604      	mov	r4, r0
 800190e:	460d      	mov	r5, r1
 8001910:	f7fe fe42 	bl	8000598 <__aeabi_dmul>
 8001914:	9b21      	ldr	r3, [sp, #132]	; 0x84
 8001916:	e9cd 0106 	strd	r0, r1, [sp, #24]
 800191a:	465a      	mov	r2, fp
 800191c:	4620      	mov	r0, r4
 800191e:	4629      	mov	r1, r5
 8001920:	f7fe fe3a 	bl	8000598 <__aeabi_dmul>
 8001924:	9b20      	ldr	r3, [sp, #128]	; 0x80
 8001926:	e9cd 0108 	strd	r0, r1, [sp, #32]
 800192a:	4652      	mov	r2, sl
 800192c:	e9dd 0114 	ldrd	r0, r1, [sp, #80]	; 0x50
 8001930:	f7fe fe32 	bl	8000598 <__aeabi_dmul>
 8001934:	9b21      	ldr	r3, [sp, #132]	; 0x84
 8001936:	4604      	mov	r4, r0
 8001938:	460d      	mov	r5, r1
 800193a:	465a      	mov	r2, fp
 800193c:	e9dd 0114 	ldrd	r0, r1, [sp, #80]	; 0x50
 8001940:	f7fe fe2a 	bl	8000598 <__aeabi_dmul>
 8001944:	4606      	mov	r6, r0
 8001946:	460f      	mov	r7, r1
 8001948:	4602      	mov	r2, r0
 800194a:	460b      	mov	r3, r1
 800194c:	e9dd 0116 	ldrd	r0, r1, [sp, #88]	; 0x58
 8001950:	f7fe fc6a 	bl	8000228 <__aeabi_dsub>
 8001954:	f7ff f8d0 	bl	8000af8 <__aeabi_d2iz>
 8001958:	e9dd 2312 	ldrd	r2, r3, [sp, #72]	; 0x48
 800195c:	fa0f fa80 	sxth.w	sl, r0
 8001960:	4629      	mov	r1, r5
 8001962:	4620      	mov	r0, r4
 8001964:	f7fe fc62 	bl	800022c <__adddf3>
 8001968:	f7ff f8c6 	bl	8000af8 <__aeabi_d2iz>
 800196c:	e9dd 2308 	ldrd	r2, r3, [sp, #32]
 8001970:	fa0f f980 	sxth.w	r9, r0
 8001974:	e9dd 0116 	ldrd	r0, r1, [sp, #88]	; 0x58
 8001978:	f7fe fc56 	bl	8000228 <__aeabi_dsub>
 800197c:	f7ff f8bc 	bl	8000af8 <__aeabi_d2iz>
 8001980:	e9dd 2312 	ldrd	r2, r3, [sp, #72]	; 0x48
 8001984:	fa0f f880 	sxth.w	r8, r0
 8001988:	e9dd 0106 	ldrd	r0, r1, [sp, #24]
 800198c:	f7fe fc4e 	bl	800022c <__adddf3>
 8001990:	f7ff f8b2 	bl	8000af8 <__aeabi_d2iz>
 8001994:	9b18      	ldr	r3, [sp, #96]	; 0x60
 8001996:	9300      	str	r3, [sp, #0]
 8001998:	464a      	mov	r2, r9
 800199a:	4653      	mov	r3, sl
 800199c:	4641      	mov	r1, r8
 800199e:	b200      	sxth	r0, r0
 80019a0:	f7ff fd46 	bl	8001430 <drawLine>
 80019a4:	4632      	mov	r2, r6
 80019a6:	463b      	mov	r3, r7
 80019a8:	e9dd 0104 	ldrd	r0, r1, [sp, #16]
 80019ac:	f7fe fc3c 	bl	8000228 <__aeabi_dsub>
 80019b0:	f7ff f8a2 	bl	8000af8 <__aeabi_d2iz>
 80019b4:	4622      	mov	r2, r4
 80019b6:	462b      	mov	r3, r5
 80019b8:	fa0f fa80 	sxth.w	sl, r0
 80019bc:	e9dd 0102 	ldrd	r0, r1, [sp, #8]
 80019c0:	f7fe fc34 	bl	800022c <__adddf3>
 80019c4:	f7ff f898 	bl	8000af8 <__aeabi_d2iz>
 80019c8:	e9dd 2308 	ldrd	r2, r3, [sp, #32]
 80019cc:	fa0f f980 	sxth.w	r9, r0
 80019d0:	e9dd 0104 	ldrd	r0, r1, [sp, #16]
 80019d4:	f7fe fc28 	bl	8000228 <__aeabi_dsub>
 80019d8:	f7ff f88e 	bl	8000af8 <__aeabi_d2iz>
 80019dc:	e9dd 2306 	ldrd	r2, r3, [sp, #24]
 80019e0:	fa0f f880 	sxth.w	r8, r0
 80019e4:	e9dd 0102 	ldrd	r0, r1, [sp, #8]
 80019e8:	f7fe fc20 	bl	800022c <__adddf3>
 80019ec:	f7ff f884 	bl	8000af8 <__aeabi_d2iz>
 80019f0:	9b18      	ldr	r3, [sp, #96]	; 0x60
 80019f2:	9300      	str	r3, [sp, #0]
 80019f4:	464a      	mov	r2, r9
 80019f6:	4653      	mov	r3, sl
 80019f8:	4641      	mov	r1, r8
 80019fa:	b200      	sxth	r0, r0
 80019fc:	f7ff fd18 	bl	8001430 <drawLine>
 8001a00:	4632      	mov	r2, r6
 8001a02:	463b      	mov	r3, r7
 8001a04:	e9dd 0110 	ldrd	r0, r1, [sp, #64]	; 0x40
 8001a08:	f7fe fc0e 	bl	8000228 <__aeabi_dsub>
 8001a0c:	f7ff f874 	bl	8000af8 <__aeabi_d2iz>
 8001a10:	e9dd 230e 	ldrd	r2, r3, [sp, #56]	; 0x38
 8001a14:	b206      	sxth	r6, r0
 8001a16:	4629      	mov	r1, r5
 8001a18:	4620      	mov	r0, r4
 8001a1a:	f7fe fc07 	bl	800022c <__adddf3>
 8001a1e:	f7ff f86b 	bl	8000af8 <__aeabi_d2iz>
 8001a22:	e9dd 2308 	ldrd	r2, r3, [sp, #32]
 8001a26:	b204      	sxth	r4, r0
 8001a28:	e9dd 0110 	ldrd	r0, r1, [sp, #64]	; 0x40
 8001a2c:	f7fe fbfc 	bl	8000228 <__aeabi_dsub>
 8001a30:	f7ff f862 	bl	8000af8 <__aeabi_d2iz>
 8001a34:	e9dd 230e 	ldrd	r2, r3, [sp, #56]	; 0x38
 8001a38:	b205      	sxth	r5, r0
 8001a3a:	e9dd 0106 	ldrd	r0, r1, [sp, #24]
 8001a3e:	f7fe fbf5 	bl	800022c <__adddf3>
 8001a42:	f7ff f859 	bl	8000af8 <__aeabi_d2iz>
 8001a46:	9b18      	ldr	r3, [sp, #96]	; 0x60
 8001a48:	932c      	str	r3, [sp, #176]	; 0xb0
 8001a4a:	4622      	mov	r2, r4
 8001a4c:	4633      	mov	r3, r6
 8001a4e:	4629      	mov	r1, r5
 8001a50:	b200      	sxth	r0, r0
 8001a52:	b023      	add	sp, #140	; 0x8c
 8001a54:	e8bd 4ff0 	ldmia.w	sp!, {r4, r5, r6, r7, r8, r9, sl, fp, lr}
 8001a58:	f7ff bcea 	b.w	8001430 <drawLine>
 8001a5c:	4630      	mov	r0, r6
 8001a5e:	4639      	mov	r1, r7
 8001a60:	f7fe fbe2 	bl	8000228 <__aeabi_dsub>
 8001a64:	e53e      	b.n	80014e4 <drawArrow+0x5c>
 8001a66:	bf00      	nop

08001a68 <drawCircle>:
 8001a68:	e92d 4ff0 	stmdb	sp!, {r4, r5, r6, r7, r8, r9, sl, fp, lr}
 8001a6c:	b297      	uxth	r7, r2
 8001a6e:	469a      	mov	sl, r3
 8001a70:	ebc7 33c7 	rsb	r3, r7, r7, lsl #15
 8001a74:	b085      	sub	sp, #20
 8001a76:	fa1f f981 	uxth.w	r9, r1
 8001a7a:	b286      	uxth	r6, r0
 8001a7c:	005b      	lsls	r3, r3, #1
 8001a7e:	fa17 f181 	uxtah	r1, r7, r1
 8001a82:	b21b      	sxth	r3, r3
 8001a84:	b289      	uxth	r1, r1
 8001a86:	4630      	mov	r0, r6
 8001a88:	4615      	mov	r5, r2
 8001a8a:	4652      	mov	r2, sl
 8001a8c:	9301      	str	r3, [sp, #4]
 8001a8e:	f7ff fb65 	bl	800115c <ST7735_DrawPixel>
 8001a92:	eba9 0107 	sub.w	r1, r9, r7
 8001a96:	4652      	mov	r2, sl
 8001a98:	b289      	uxth	r1, r1
 8001a9a:	4630      	mov	r0, r6
 8001a9c:	f7ff fb5e 	bl	800115c <ST7735_DrawPixel>
 8001aa0:	19b8      	adds	r0, r7, r6
 8001aa2:	4652      	mov	r2, sl
 8001aa4:	4649      	mov	r1, r9
 8001aa6:	b280      	uxth	r0, r0
 8001aa8:	f7ff fb58 	bl	800115c <ST7735_DrawPixel>
 8001aac:	1bf0      	subs	r0, r6, r7
 8001aae:	4652      	mov	r2, sl
 8001ab0:	4649      	mov	r1, r9
 8001ab2:	b280      	uxth	r0, r0
 8001ab4:	f7ff fb52 	bl	800115c <ST7735_DrawPixel>
 8001ab8:	f1c7 0401 	rsb	r4, r7, #1
 8001abc:	2300      	movs	r3, #0
 8001abe:	b224      	sxth	r4, r4
 8001ac0:	9300      	str	r3, [sp, #0]
 8001ac2:	9b00      	ldr	r3, [sp, #0]
 8001ac4:	42ab      	cmp	r3, r5
 8001ac6:	db02      	blt.n	8001ace <drawCircle+0x66>
 8001ac8:	b005      	add	sp, #20
 8001aca:	e8bd 8ff0 	ldmia.w	sp!, {r4, r5, r6, r7, r8, r9, sl, fp, pc}
 8001ace:	2c00      	cmp	r4, #0
 8001ad0:	db08      	blt.n	8001ae4 <drawCircle+0x7c>
 8001ad2:	9b01      	ldr	r3, [sp, #4]
 8001ad4:	3302      	adds	r3, #2
 8001ad6:	3d01      	subs	r5, #1
 8001ad8:	b21a      	sxth	r2, r3
 8001ada:	fa14 f483 	uxtah	r4, r4, r3
 8001ade:	b22d      	sxth	r5, r5
 8001ae0:	9201      	str	r2, [sp, #4]
 8001ae2:	b224      	sxth	r4, r4
 8001ae4:	9b00      	ldr	r3, [sp, #0]
 8001ae6:	3301      	adds	r3, #1
 8001ae8:	fa1f f883 	uxth.w	r8, r3
 8001aec:	b21b      	sxth	r3, r3
 8001aee:	9300      	str	r3, [sp, #0]
 8001af0:	eb06 0308 	add.w	r3, r6, r8
 8001af4:	b29b      	uxth	r3, r3
 8001af6:	eba6 0b08 	sub.w	fp, r6, r8
 8001afa:	fa19 f185 	uxtah	r1, r9, r5
 8001afe:	4618      	mov	r0, r3
 8001b00:	b289      	uxth	r1, r1
 8001b02:	4652      	mov	r2, sl
 8001b04:	fa1f fb8b 	uxth.w	fp, fp
 8001b08:	9303      	str	r3, [sp, #12]
 8001b0a:	9102      	str	r1, [sp, #8]
 8001b0c:	f7ff fb26 	bl	800115c <ST7735_DrawPixel>
 8001b10:	9902      	ldr	r1, [sp, #8]
 8001b12:	4652      	mov	r2, sl
 8001b14:	4658      	mov	r0, fp
 8001b16:	f7ff fb21 	bl	800115c <ST7735_DrawPixel>
 8001b1a:	b2af      	uxth	r7, r5
 8001b1c:	9b03      	ldr	r3, [sp, #12]
 8001b1e:	eba9 0107 	sub.w	r1, r9, r7
 8001b22:	4618      	mov	r0, r3
 8001b24:	b289      	uxth	r1, r1
 8001b26:	4652      	mov	r2, sl
 8001b28:	9102      	str	r1, [sp, #8]
 8001b2a:	f7ff fb17 	bl	800115c <ST7735_DrawPixel>
 8001b2e:	9902      	ldr	r1, [sp, #8]
 8001b30:	4652      	mov	r2, sl
 8001b32:	4658      	mov	r0, fp
 8001b34:	eb07 0b06 	add.w	fp, r7, r6
 8001b38:	f7ff fb10 	bl	800115c <ST7735_DrawPixel>
 8001b3c:	fa1f fb8b 	uxth.w	fp, fp
 8001b40:	eb09 0108 	add.w	r1, r9, r8
 8001b44:	1bf7      	subs	r7, r6, r7
 8001b46:	b289      	uxth	r1, r1
 8001b48:	4652      	mov	r2, sl
 8001b4a:	4658      	mov	r0, fp
 8001b4c:	b2bf      	uxth	r7, r7
 8001b4e:	eb04 0448 	add.w	r4, r4, r8, lsl #1
 8001b52:	eba9 0808 	sub.w	r8, r9, r8
 8001b56:	9102      	str	r1, [sp, #8]
 8001b58:	fa1f f888 	uxth.w	r8, r8
 8001b5c:	f7ff fafe 	bl	800115c <ST7735_DrawPixel>
 8001b60:	9902      	ldr	r1, [sp, #8]
 8001b62:	4652      	mov	r2, sl
 8001b64:	4638      	mov	r0, r7
 8001b66:	f7ff faf9 	bl	800115c <ST7735_DrawPixel>
 8001b6a:	4652      	mov	r2, sl
 8001b6c:	4641      	mov	r1, r8
 8001b6e:	4658      	mov	r0, fp
 8001b70:	f7ff faf4 	bl	800115c <ST7735_DrawPixel>
 8001b74:	3401      	adds	r4, #1
 8001b76:	4652      	mov	r2, sl
 8001b78:	4641      	mov	r1, r8
 8001b7a:	4638      	mov	r0, r7
 8001b7c:	b224      	sxth	r4, r4
 8001b7e:	f7ff faed 	bl	800115c <ST7735_DrawPixel>
 8001b82:	e79e      	b.n	8001ac2 <drawCircle+0x5a>

08001b84 <drawPosition>:
 8001b84:	e92d 4ff0 	stmdb	sp!, {r4, r5, r6, r7, r8, r9, sl, fp, lr}
 8001b88:	4606      	mov	r6, r0
 8001b8a:	b0d9      	sub	sp, #356	; 0x164
 8001b8c:	4610      	mov	r0, r2
 8001b8e:	e9dd 8962 	ldrd	r8, r9, [sp, #392]	; 0x188
 8001b92:	468a      	mov	sl, r1
 8001b94:	f7fe fc96 	bl	80004c4 <__aeabi_i2d>
 8001b98:	4604      	mov	r4, r0
 8001b9a:	460d      	mov	r5, r1
 8001b9c:	4640      	mov	r0, r8
 8001b9e:	4649      	mov	r1, r9
 8001ba0:	f00b fab8 	bl	800d114 <sin>
 8001ba4:	4602      	mov	r2, r0
 8001ba6:	460b      	mov	r3, r1
 8001ba8:	4630      	mov	r0, r6
 8001baa:	e9cd 2304 	strd	r2, r3, [sp, #16]
 8001bae:	f7fe fc89 	bl	80004c4 <__aeabi_i2d>
 8001bb2:	e9dd 2304 	ldrd	r2, r3, [sp, #16]
 8001bb6:	4606      	mov	r6, r0
 8001bb8:	460f      	mov	r7, r1
 8001bba:	4620      	mov	r0, r4
 8001bbc:	4629      	mov	r1, r5
 8001bbe:	f7fe fceb 	bl	8000598 <__aeabi_dmul>
 8001bc2:	4602      	mov	r2, r0
 8001bc4:	460b      	mov	r3, r1
 8001bc6:	4630      	mov	r0, r6
 8001bc8:	4639      	mov	r1, r7
 8001bca:	f7fe fb2f 	bl	800022c <__adddf3>
 8001bce:	f7fe ff93 	bl	8000af8 <__aeabi_d2iz>
 8001bd2:	4649      	mov	r1, r9
 8001bd4:	b206      	sxth	r6, r0
 8001bd6:	4640      	mov	r0, r8
 8001bd8:	f00b fa56 	bl	800d088 <cos>
 8001bdc:	4602      	mov	r2, r0
 8001bde:	460b      	mov	r3, r1
 8001be0:	4650      	mov	r0, sl
 8001be2:	e9cd 2304 	strd	r2, r3, [sp, #16]
 8001be6:	f7fe fc6d 	bl	80004c4 <__aeabi_i2d>
 8001bea:	e9dd 2304 	ldrd	r2, r3, [sp, #16]
 8001bee:	4680      	mov	r8, r0
 8001bf0:	4689      	mov	r9, r1
 8001bf2:	4620      	mov	r0, r4
 8001bf4:	4629      	mov	r1, r5
 8001bf6:	f7fe fccf 	bl	8000598 <__aeabi_dmul>
 8001bfa:	460b      	mov	r3, r1
 8001bfc:	4602      	mov	r2, r0
 8001bfe:	4649      	mov	r1, r9
 8001c00:	4640      	mov	r0, r8
 8001c02:	f7fe fb11 	bl	8000228 <__aeabi_dsub>
 8001c06:	f7fe ff77 	bl	8000af8 <__aeabi_d2iz>
 8001c0a:	f8bd b198 	ldrh.w	fp, [sp, #408]	; 0x198
 8001c0e:	f9bd 2194 	ldrsh.w	r2, [sp, #404]	; 0x194
 8001c12:	490e      	ldr	r1, [pc, #56]	; (8001c4c <drawPosition+0xc8>)
 8001c14:	b204      	sxth	r4, r0
 8001c16:	a807      	add	r0, sp, #28
 8001c18:	f00a f86e 	bl	800bcf8 <siprintf>
 8001c1c:	2200      	movs	r2, #0
 8001c1e:	e9cd b201 	strd	fp, r2, [sp, #4]
 8001c22:	4b0b      	ldr	r3, [pc, #44]	; (8001c50 <drawPosition+0xcc>)
 8001c24:	685a      	ldr	r2, [r3, #4]
 8001c26:	9200      	str	r2, [sp, #0]
 8001c28:	1ee1      	subs	r1, r4, #3
 8001c2a:	1eb0      	subs	r0, r6, #2
 8001c2c:	aa07      	add	r2, sp, #28
 8001c2e:	681b      	ldr	r3, [r3, #0]
 8001c30:	b289      	uxth	r1, r1
 8001c32:	b280      	uxth	r0, r0
 8001c34:	f7ff fb02 	bl	800123c <ST7735_WriteString>
 8001c38:	f9bd 2190 	ldrsh.w	r2, [sp, #400]	; 0x190
 8001c3c:	465b      	mov	r3, fp
 8001c3e:	4621      	mov	r1, r4
 8001c40:	4630      	mov	r0, r6
 8001c42:	f7ff ff11 	bl	8001a68 <drawCircle>
 8001c46:	b059      	add	sp, #356	; 0x164
 8001c48:	e8bd 8ff0 	ldmia.w	sp!, {r4, r5, r6, r7, r8, r9, sl, fp, pc}
 8001c4c:	0800e875 	.word	0x0800e875
 8001c50:	2000000c 	.word	0x2000000c

08001c54 <fillCircleHelper>:
 8001c54:	e92d 4ff0 	stmdb	sp!, {r4, r5, r6, r7, r8, r9, sl, fp, lr}
 8001c58:	4614      	mov	r4, r2
 8001c5a:	b292      	uxth	r2, r2
 8001c5c:	b087      	sub	sp, #28
 8001c5e:	f1c2 0501 	rsb	r5, r2, #1
 8001c62:	ebc2 32c2 	rsb	r2, r2, r2, lsl #15
 8001c66:	0052      	lsls	r2, r2, #1
 8001c68:	4682      	mov	sl, r0
 8001c6a:	4618      	mov	r0, r3
 8001c6c:	b213      	sxth	r3, r2
 8001c6e:	f9bd 2040 	ldrsh.w	r2, [sp, #64]	; 0x40
 8001c72:	9303      	str	r3, [sp, #12]
 8001c74:	3201      	adds	r2, #1
 8001c76:	b293      	uxth	r3, r2
 8001c78:	9300      	str	r3, [sp, #0]
 8001c7a:	b28b      	uxth	r3, r1
 8001c7c:	9301      	str	r3, [sp, #4]
 8001c7e:	4699      	mov	r9, r3
 8001c80:	f000 0301 	and.w	r3, r0, #1
 8001c84:	9304      	str	r3, [sp, #16]
 8001c86:	f8bd b044 	ldrh.w	fp, [sp, #68]	; 0x44
 8001c8a:	f8dd 8000 	ldr.w	r8, [sp]
 8001c8e:	f000 0302 	and.w	r3, r0, #2
 8001c92:	b22d      	sxth	r5, r5
 8001c94:	2700      	movs	r7, #0
 8001c96:	9305      	str	r3, [sp, #20]
 8001c98:	42a7      	cmp	r7, r4
 8001c9a:	db02      	blt.n	8001ca2 <fillCircleHelper+0x4e>
 8001c9c:	b007      	add	sp, #28
 8001c9e:	e8bd 8ff0 	ldmia.w	sp!, {r4, r5, r6, r7, r8, r9, sl, fp, pc}
 8001ca2:	2d00      	cmp	r5, #0
 8001ca4:	db58      	blt.n	8001d58 <fillCircleHelper+0x104>
 8001ca6:	9a03      	ldr	r2, [sp, #12]
 8001ca8:	3202      	adds	r2, #2
 8001caa:	1e66      	subs	r6, r4, #1
 8001cac:	b213      	sxth	r3, r2
 8001cae:	fa15 f582 	uxtah	r5, r5, r2
 8001cb2:	b236      	sxth	r6, r6
 8001cb4:	9303      	str	r3, [sp, #12]
 8001cb6:	b22d      	sxth	r5, r5
 8001cb8:	3701      	adds	r7, #1
 8001cba:	b2bb      	uxth	r3, r7
 8001cbc:	eb05 0543 	add.w	r5, r5, r3, lsl #1
 8001cc0:	b23f      	sxth	r7, r7
 8001cc2:	3501      	adds	r5, #1
 8001cc4:	42be      	cmp	r6, r7
 8001cc6:	9302      	str	r3, [sp, #8]
 8001cc8:	b22d      	sxth	r5, r5
 8001cca:	db21      	blt.n	8001d10 <fillCircleHelper+0xbc>
 8001ccc:	9b04      	ldr	r3, [sp, #16]
 8001cce:	b173      	cbz	r3, 8001cee <fillCircleHelper+0x9a>
 8001cd0:	9b00      	ldr	r3, [sp, #0]
 8001cd2:	b2b1      	uxth	r1, r6
 8001cd4:	eb03 0241 	add.w	r2, r3, r1, lsl #1
 8001cd8:	9b01      	ldr	r3, [sp, #4]
 8001cda:	1a59      	subs	r1, r3, r1
 8001cdc:	9b02      	ldr	r3, [sp, #8]
 8001cde:	eb03 000a 	add.w	r0, r3, sl
 8001ce2:	b212      	sxth	r2, r2
 8001ce4:	465b      	mov	r3, fp
 8001ce6:	b209      	sxth	r1, r1
 8001ce8:	b200      	sxth	r0, r0
 8001cea:	f7ff fb8b 	bl	8001404 <drawFastVLine>
 8001cee:	9b05      	ldr	r3, [sp, #20]
 8001cf0:	b173      	cbz	r3, 8001d10 <fillCircleHelper+0xbc>
 8001cf2:	9b00      	ldr	r3, [sp, #0]
 8001cf4:	b2b1      	uxth	r1, r6
 8001cf6:	eb03 0241 	add.w	r2, r3, r1, lsl #1
 8001cfa:	9b01      	ldr	r3, [sp, #4]
 8001cfc:	1a59      	subs	r1, r3, r1
 8001cfe:	9b02      	ldr	r3, [sp, #8]
 8001d00:	ebaa 0003 	sub.w	r0, sl, r3
 8001d04:	b212      	sxth	r2, r2
 8001d06:	465b      	mov	r3, fp
 8001d08:	b209      	sxth	r1, r1
 8001d0a:	b200      	sxth	r0, r0
 8001d0c:	f7ff fb7a 	bl	8001404 <drawFastVLine>
 8001d10:	42a6      	cmp	r6, r4
 8001d12:	d017      	beq.n	8001d44 <fillCircleHelper+0xf0>
 8001d14:	9b04      	ldr	r3, [sp, #16]
 8001d16:	b14b      	cbz	r3, 8001d2c <fillCircleHelper+0xd8>
 8001d18:	eb0a 0004 	add.w	r0, sl, r4
 8001d1c:	465b      	mov	r3, fp
 8001d1e:	fa0f f288 	sxth.w	r2, r8
 8001d22:	fa0f f189 	sxth.w	r1, r9
 8001d26:	b200      	sxth	r0, r0
 8001d28:	f7ff fb6c 	bl	8001404 <drawFastVLine>
 8001d2c:	9b05      	ldr	r3, [sp, #20]
 8001d2e:	b14b      	cbz	r3, 8001d44 <fillCircleHelper+0xf0>
 8001d30:	ebaa 0004 	sub.w	r0, sl, r4
 8001d34:	465b      	mov	r3, fp
 8001d36:	fa0f f288 	sxth.w	r2, r8
 8001d3a:	fa0f f189 	sxth.w	r1, r9
 8001d3e:	b200      	sxth	r0, r0
 8001d40:	f7ff fb60 	bl	8001404 <drawFastVLine>
 8001d44:	f109 39ff 	add.w	r9, r9, #4294967295	; 0xffffffff
 8001d48:	f108 0802 	add.w	r8, r8, #2
 8001d4c:	fa1f f989 	uxth.w	r9, r9
 8001d50:	fa1f f888 	uxth.w	r8, r8
 8001d54:	4634      	mov	r4, r6
 8001d56:	e79f      	b.n	8001c98 <fillCircleHelper+0x44>
 8001d58:	4626      	mov	r6, r4
 8001d5a:	e7ad      	b.n	8001cb8 <fillCircleHelper+0x64>

08001d5c <erasePosition>:
 8001d5c:	e92d 4ff7 	stmdb	sp!, {r0, r1, r2, r4, r5, r6, r7, r8, r9, sl, fp, lr}
 8001d60:	4606      	mov	r6, r0
 8001d62:	4610      	mov	r0, r2
 8001d64:	e9dd 890c 	ldrd	r8, r9, [sp, #48]	; 0x30
 8001d68:	468a      	mov	sl, r1
 8001d6a:	f7fe fbab 	bl	80004c4 <__aeabi_i2d>
 8001d6e:	4604      	mov	r4, r0
 8001d70:	460d      	mov	r5, r1
 8001d72:	4640      	mov	r0, r8
 8001d74:	4649      	mov	r1, r9
 8001d76:	f00b f9cd 	bl	800d114 <sin>
 8001d7a:	4602      	mov	r2, r0
 8001d7c:	460b      	mov	r3, r1
 8001d7e:	4630      	mov	r0, r6
 8001d80:	e9cd 2300 	strd	r2, r3, [sp]
 8001d84:	f7fe fb9e 	bl	80004c4 <__aeabi_i2d>
 8001d88:	e9dd 2300 	ldrd	r2, r3, [sp]
 8001d8c:	4606      	mov	r6, r0
 8001d8e:	460f      	mov	r7, r1
 8001d90:	4620      	mov	r0, r4
 8001d92:	4629      	mov	r1, r5
 8001d94:	f7fe fc00 	bl	8000598 <__aeabi_dmul>
 8001d98:	4602      	mov	r2, r0
 8001d9a:	460b      	mov	r3, r1
 8001d9c:	4630      	mov	r0, r6
 8001d9e:	4639      	mov	r1, r7
 8001da0:	f7fe fa44 	bl	800022c <__adddf3>
 8001da4:	f7fe fea8 	bl	8000af8 <__aeabi_d2iz>
 8001da8:	4649      	mov	r1, r9
 8001daa:	b206      	sxth	r6, r0
 8001dac:	4640      	mov	r0, r8
 8001dae:	f00b f96b 	bl	800d088 <cos>
 8001db2:	4602      	mov	r2, r0
 8001db4:	460b      	mov	r3, r1
 8001db6:	4650      	mov	r0, sl
 8001db8:	e9cd 2300 	strd	r2, r3, [sp]
 8001dbc:	f7fe fb82 	bl	80004c4 <__aeabi_i2d>
 8001dc0:	e9dd 2300 	ldrd	r2, r3, [sp]
 8001dc4:	4680      	mov	r8, r0
 8001dc6:	4689      	mov	r9, r1
 8001dc8:	4620      	mov	r0, r4
 8001dca:	4629      	mov	r1, r5
 8001dcc:	f7fe fbe4 	bl	8000598 <__aeabi_dmul>
 8001dd0:	4602      	mov	r2, r0
 8001dd2:	460b      	mov	r3, r1
 8001dd4:	4640      	mov	r0, r8
 8001dd6:	4649      	mov	r1, r9
 8001dd8:	f7fe fa26 	bl	8000228 <__aeabi_dsub>
 8001ddc:	f7fe fe8c 	bl	8000af8 <__aeabi_d2iz>
 8001de0:	f9bd b038 	ldrsh.w	fp, [sp, #56]	; 0x38
 8001de4:	fa1f f18b 	uxth.w	r1, fp
 8001de8:	b204      	sxth	r4, r0
 8001dea:	004a      	lsls	r2, r1, #1
 8001dec:	3201      	adds	r2, #1
 8001dee:	1a61      	subs	r1, r4, r1
 8001df0:	4630      	mov	r0, r6
 8001df2:	2300      	movs	r3, #0
 8001df4:	b212      	sxth	r2, r2
 8001df6:	b209      	sxth	r1, r1
 8001df8:	f7ff fb04 	bl	8001404 <drawFastVLine>
 8001dfc:	2300      	movs	r3, #0
 8001dfe:	e9cd 330c 	strd	r3, r3, [sp, #48]	; 0x30
 8001e02:	465a      	mov	r2, fp
 8001e04:	2303      	movs	r3, #3
 8001e06:	4621      	mov	r1, r4
 8001e08:	4630      	mov	r0, r6
 8001e0a:	b003      	add	sp, #12
 8001e0c:	e8bd 4ff0 	ldmia.w	sp!, {r4, r5, r6, r7, r8, r9, sl, fp, lr}
 8001e10:	f7ff bf20 	b.w	8001c54 <fillCircleHelper>

08001e14 <ST7735_FillScreen>:
 8001e14:	b507      	push	{r0, r1, r2, lr}
 8001e16:	4b06      	ldr	r3, [pc, #24]	; (8001e30 <ST7735_FillScreen+0x1c>)
 8001e18:	4a06      	ldr	r2, [pc, #24]	; (8001e34 <ST7735_FillScreen+0x20>)
 8001e1a:	9000      	str	r0, [sp, #0]
 8001e1c:	2100      	movs	r1, #0
 8001e1e:	881b      	ldrh	r3, [r3, #0]
 8001e20:	8812      	ldrh	r2, [r2, #0]
 8001e22:	4608      	mov	r0, r1
 8001e24:	f7ff fa4a 	bl	80012bc <ST7735_FillRectangle>
 8001e28:	b003      	add	sp, #12
 8001e2a:	f85d fb04 	ldr.w	pc, [sp], #4
 8001e2e:	bf00      	nop
 8001e30:	200000f6 	.word	0x200000f6
 8001e34:	200000fa 	.word	0x200000fa

08001e38 <fillScreen>:
 8001e38:	f7ff bfec 	b.w	8001e14 <ST7735_FillScreen>

08001e3c <draw_str_by_rows>:
 8001e3c:	b082      	sub	sp, #8
 8001e3e:	e92d 4ff0 	stmdb	sp!, {r4, r5, r6, r7, r8, r9, sl, fp, lr}
 8001e42:	b08b      	sub	sp, #44	; 0x2c
 8001e44:	af00      	add	r7, sp, #0
 8001e46:	b2de      	uxtb	r6, r3
 8001e48:	623a      	str	r2, [r7, #32]
 8001e4a:	657b      	str	r3, [r7, #84]	; 0x54
 8001e4c:	f8b7 205c 	ldrh.w	r2, [r7, #92]	; 0x5c
 8001e50:	60ba      	str	r2, [r7, #8]
 8001e52:	f3c3 2407 	ubfx	r4, r3, #8, #8
 8001e56:	f403 437f 	and.w	r3, r3, #65280	; 0xff00
 8001e5a:	ebad 0d03 	sub.w	sp, sp, r3
 8001e5e:	f8b7 2060 	ldrh.w	r2, [r7, #96]	; 0x60
 8001e62:	607a      	str	r2, [r7, #4]
 8001e64:	46e8      	mov	r8, sp
 8001e66:	2300      	movs	r3, #0
 8001e68:	b2da      	uxtb	r2, r3
 8001e6a:	6a3d      	ldr	r5, [r7, #32]
 8001e6c:	61fb      	str	r3, [r7, #28]
 8001e6e:	5cad      	ldrb	r5, [r5, r2]
 8001e70:	3301      	adds	r3, #1
 8001e72:	2d00      	cmp	r5, #0
 8001e74:	d1f8      	bne.n	8001e68 <draw_str_by_rows+0x2c>
 8001e76:	6dbb      	ldr	r3, [r7, #88]	; 0x58
 8001e78:	61bb      	str	r3, [r7, #24]
 8001e7a:	b2b3      	uxth	r3, r6
 8001e7c:	617b      	str	r3, [r7, #20]
 8001e7e:	fb02 f306 	mul.w	r3, r2, r6
 8001e82:	613b      	str	r3, [r7, #16]
 8001e84:	6a3b      	ldr	r3, [r7, #32]
 8001e86:	627d      	str	r5, [r7, #36]	; 0x24
 8001e88:	4413      	add	r3, r2
 8001e8a:	603b      	str	r3, [r7, #0]
 8001e8c:	b2eb      	uxtb	r3, r5
 8001e8e:	429c      	cmp	r4, r3
 8001e90:	d939      	bls.n	8001f06 <draw_str_by_rows+0xca>
 8001e92:	e9d7 9308 	ldrd	r9, r3, [r7, #32]
 8001e96:	e019      	b.n	8001ecc <draw_str_by_rows+0x90>
 8001e98:	f819 cb01 	ldrb.w	ip, [r9], #1
 8001e9c:	f8d7 e018 	ldr.w	lr, [r7, #24]
 8001ea0:	f1ac 0c20 	sub.w	ip, ip, #32
 8001ea4:	fb04 5c0c 	mla	ip, r4, ip, r5
 8001ea8:	f83e c01c 	ldrh.w	ip, [lr, ip, lsl #1]
 8001eac:	f04f 0e00 	mov.w	lr, #0
 8001eb0:	eb03 0a0e 	add.w	sl, r3, lr
 8001eb4:	fa5f fb8e 	uxtb.w	fp, lr
 8001eb8:	fa1f fa8a 	uxth.w	sl, sl
 8001ebc:	455e      	cmp	r6, fp
 8001ebe:	f8c7 a00c 	str.w	sl, [r7, #12]
 8001ec2:	d80f      	bhi.n	8001ee4 <draw_str_by_rows+0xa8>
 8001ec4:	f8d7 c014 	ldr.w	ip, [r7, #20]
 8001ec8:	4463      	add	r3, ip
 8001eca:	b29b      	uxth	r3, r3
 8001ecc:	f8d7 c000 	ldr.w	ip, [r7]
 8001ed0:	45e1      	cmp	r9, ip
 8001ed2:	d1e1      	bne.n	8001e98 <draw_str_by_rows+0x5c>
 8001ed4:	6a7b      	ldr	r3, [r7, #36]	; 0x24
 8001ed6:	f8d7 c010 	ldr.w	ip, [r7, #16]
 8001eda:	4463      	add	r3, ip
 8001edc:	b29b      	uxth	r3, r3
 8001ede:	627b      	str	r3, [r7, #36]	; 0x24
 8001ee0:	3501      	adds	r5, #1
 8001ee2:	e7d3      	b.n	8001e8c <draw_str_by_rows+0x50>
 8001ee4:	e9d7 ab01 	ldrd	sl, fp, [r7, #4]
 8001ee8:	f41c 4f00 	tst.w	ip, #32768	; 0x8000
 8001eec:	bf08      	it	eq
 8001eee:	46d3      	moveq	fp, sl
 8001ef0:	f8d7 a00c 	ldr.w	sl, [r7, #12]
 8001ef4:	ea4f 0c4c 	mov.w	ip, ip, lsl #1
 8001ef8:	f828 b01a 	strh.w	fp, [r8, sl, lsl #1]
 8001efc:	fa1f fc8c 	uxth.w	ip, ip
 8001f00:	f10e 0e01 	add.w	lr, lr, #1
 8001f04:	e7d4      	b.n	8001eb0 <draw_str_by_rows+0x74>
 8001f06:	1e63      	subs	r3, r4, #1
 8001f08:	1e45      	subs	r5, r0, #1
 8001f0a:	440b      	add	r3, r1
 8001f0c:	fb06 5202 	mla	r2, r6, r2, r5
 8001f10:	b2db      	uxtb	r3, r3
 8001f12:	b2d2      	uxtb	r2, r2
 8001f14:	f7fe ffde 	bl	8000ed4 <setWindow>
 8001f18:	fb14 f406 	smulbb	r4, r4, r6
 8001f1c:	7f3e      	ldrb	r6, [r7, #28]
 8001f1e:	4b11      	ldr	r3, [pc, #68]	; (8001f64 <draw_str_by_rows+0x128>)
 8001f20:	4374      	muls	r4, r6
 8001f22:	2100      	movs	r1, #0
 8001f24:	b28a      	uxth	r2, r1
 8001f26:	42a2      	cmp	r2, r4
 8001f28:	db0c      	blt.n	8001f44 <draw_str_by_rows+0x108>
 8001f2a:	4b0e      	ldr	r3, [pc, #56]	; (8001f64 <draw_str_by_rows+0x128>)
 8001f2c:	689a      	ldr	r2, [r3, #8]
 8001f2e:	0791      	lsls	r1, r2, #30
 8001f30:	d5fc      	bpl.n	8001f2c <draw_str_by_rows+0xf0>
 8001f32:	689a      	ldr	r2, [r3, #8]
 8001f34:	0612      	lsls	r2, r2, #24
 8001f36:	d4f9      	bmi.n	8001f2c <draw_str_by_rows+0xf0>
 8001f38:	372c      	adds	r7, #44	; 0x2c
 8001f3a:	46bd      	mov	sp, r7
 8001f3c:	e8bd 4ff0 	ldmia.w	sp!, {r4, r5, r6, r7, r8, r9, sl, fp, lr}
 8001f40:	b002      	add	sp, #8
 8001f42:	4770      	bx	lr
 8001f44:	6898      	ldr	r0, [r3, #8]
 8001f46:	0785      	lsls	r5, r0, #30
 8001f48:	d5fc      	bpl.n	8001f44 <draw_str_by_rows+0x108>
 8001f4a:	f838 0012 	ldrh.w	r0, [r8, r2, lsl #1]
 8001f4e:	0a00      	lsrs	r0, r0, #8
 8001f50:	7318      	strb	r0, [r3, #12]
 8001f52:	6898      	ldr	r0, [r3, #8]
 8001f54:	0780      	lsls	r0, r0, #30
 8001f56:	d5fc      	bpl.n	8001f52 <draw_str_by_rows+0x116>
 8001f58:	f818 2012 	ldrb.w	r2, [r8, r2, lsl #1]
 8001f5c:	731a      	strb	r2, [r3, #12]
 8001f5e:	3101      	adds	r1, #1
 8001f60:	e7e0      	b.n	8001f24 <draw_str_by_rows+0xe8>
 8001f62:	bf00      	nop
 8001f64:	40003800 	.word	0x40003800

08001f68 <draw_char>:
 8001f68:	b082      	sub	sp, #8
 8001f6a:	e92d 4ff7 	stmdb	sp!, {r0, r1, r2, r4, r5, r6, r7, r8, r9, sl, fp, lr}
 8001f6e:	f3c3 2407 	ubfx	r4, r3, #8, #8
 8001f72:	3a20      	subs	r2, #32
 8001f74:	9e0e      	ldr	r6, [sp, #56]	; 0x38
 8001f76:	930d      	str	r3, [sp, #52]	; 0x34
 8001f78:	fb12 f204 	smulbb	r2, r2, r4
 8001f7c:	b292      	uxth	r2, r2
 8001f7e:	b2dd      	uxtb	r5, r3
 8001f80:	eb06 0342 	add.w	r3, r6, r2, lsl #1
 8001f84:	9301      	str	r3, [sp, #4]
 8001f86:	f8bd 803c 	ldrh.w	r8, [sp, #60]	; 0x3c
 8001f8a:	f8bd 9040 	ldrh.w	r9, [sp, #64]	; 0x40
 8001f8e:	2300      	movs	r3, #0
 8001f90:	46aa      	mov	sl, r5
 8001f92:	469c      	mov	ip, r3
 8001f94:	fa5f f28c 	uxtb.w	r2, ip
 8001f98:	4294      	cmp	r4, r2
 8001f9a:	d81b      	bhi.n	8001fd4 <draw_char+0x6c>
 8001f9c:	1e63      	subs	r3, r4, #1
 8001f9e:	1e6a      	subs	r2, r5, #1
 8001fa0:	440b      	add	r3, r1
 8001fa2:	4402      	add	r2, r0
 8001fa4:	b2db      	uxtb	r3, r3
 8001fa6:	b2d2      	uxtb	r2, r2
 8001fa8:	f7fe ff94 	bl	8000ed4 <setWindow>
 8001fac:	fb15 f404 	smulbb	r4, r5, r4
 8001fb0:	4b20      	ldr	r3, [pc, #128]	; (8002034 <draw_char+0xcc>)
 8001fb2:	4d21      	ldr	r5, [pc, #132]	; (8002038 <draw_char+0xd0>)
 8001fb4:	2100      	movs	r1, #0
 8001fb6:	b28a      	uxth	r2, r1
 8001fb8:	42a2      	cmp	r2, r4
 8001fba:	db29      	blt.n	8002010 <draw_char+0xa8>
 8001fbc:	4b1d      	ldr	r3, [pc, #116]	; (8002034 <draw_char+0xcc>)
 8001fbe:	689a      	ldr	r2, [r3, #8]
 8001fc0:	0791      	lsls	r1, r2, #30
 8001fc2:	d5fc      	bpl.n	8001fbe <draw_char+0x56>
 8001fc4:	689a      	ldr	r2, [r3, #8]
 8001fc6:	0612      	lsls	r2, r2, #24
 8001fc8:	d4f9      	bmi.n	8001fbe <draw_char+0x56>
 8001fca:	b003      	add	sp, #12
 8001fcc:	e8bd 4ff0 	ldmia.w	sp!, {r4, r5, r6, r7, r8, r9, sl, fp, lr}
 8001fd0:	b002      	add	sp, #8
 8001fd2:	4770      	bx	lr
 8001fd4:	9e01      	ldr	r6, [sp, #4]
 8001fd6:	f836 2b02 	ldrh.w	r2, [r6], #2
 8001fda:	9601      	str	r6, [sp, #4]
 8001fdc:	2700      	movs	r7, #0
 8001fde:	fa5f fb87 	uxtb.w	fp, r7
 8001fe2:	eb03 0e07 	add.w	lr, r3, r7
 8001fe6:	455d      	cmp	r5, fp
 8001fe8:	fa1f fe8e 	uxth.w	lr, lr
 8001fec:	d804      	bhi.n	8001ff8 <draw_char+0x90>
 8001fee:	4453      	add	r3, sl
 8001ff0:	f10c 0c01 	add.w	ip, ip, #1
 8001ff4:	b29b      	uxth	r3, r3
 8001ff6:	e7cd      	b.n	8001f94 <draw_char+0x2c>
 8001ff8:	f412 4f00 	tst.w	r2, #32768	; 0x8000
 8001ffc:	4e0e      	ldr	r6, [pc, #56]	; (8002038 <draw_char+0xd0>)
 8001ffe:	bf14      	ite	ne
 8002000:	46c3      	movne	fp, r8
 8002002:	46cb      	moveq	fp, r9
 8002004:	0052      	lsls	r2, r2, #1
 8002006:	f826 b01e 	strh.w	fp, [r6, lr, lsl #1]
 800200a:	b292      	uxth	r2, r2
 800200c:	3701      	adds	r7, #1
 800200e:	e7e6      	b.n	8001fde <draw_char+0x76>
 8002010:	6898      	ldr	r0, [r3, #8]
 8002012:	0786      	lsls	r6, r0, #30
 8002014:	d5fc      	bpl.n	8002010 <draw_char+0xa8>
 8002016:	f835 0012 	ldrh.w	r0, [r5, r2, lsl #1]
 800201a:	f3c0 2007 	ubfx	r0, r0, #8, #8
 800201e:	7318      	strb	r0, [r3, #12]
 8002020:	6898      	ldr	r0, [r3, #8]
 8002022:	0780      	lsls	r0, r0, #30
 8002024:	d5fc      	bpl.n	8002020 <draw_char+0xb8>
 8002026:	f835 2012 	ldrh.w	r2, [r5, r2, lsl #1]
 800202a:	b2d2      	uxtb	r2, r2
 800202c:	731a      	strb	r2, [r3, #12]
 800202e:	3101      	adds	r1, #1
 8002030:	e7c1      	b.n	8001fb6 <draw_char+0x4e>
 8002032:	bf00      	nop
 8002034:	40003800 	.word	0x40003800
 8002038:	200000fe 	.word	0x200000fe

0800203c <fill_rectgl>:
 800203c:	e92d 41f0 	stmdb	sp!, {r4, r5, r6, r7, r8, lr}
 8002040:	4614      	mov	r4, r2
 8002042:	461d      	mov	r5, r3
 8002044:	3a01      	subs	r2, #1
 8002046:	3b01      	subs	r3, #1
 8002048:	f8bd 6018 	ldrh.w	r6, [sp, #24]
 800204c:	4680      	mov	r8, r0
 800204e:	460f      	mov	r7, r1
 8002050:	b2db      	uxtb	r3, r3
 8002052:	b2d2      	uxtb	r2, r2
 8002054:	b2c9      	uxtb	r1, r1
 8002056:	f7fe ff3d 	bl	8000ed4 <setWindow>
 800205a:	eba4 0408 	sub.w	r4, r4, r8
 800205e:	1bed      	subs	r5, r5, r7
 8002060:	4b0c      	ldr	r3, [pc, #48]	; (8002094 <fill_rectgl+0x58>)
 8002062:	0a31      	lsrs	r1, r6, #8
 8002064:	436c      	muls	r4, r5
 8002066:	2200      	movs	r2, #0
 8002068:	b2f6      	uxtb	r6, r6
 800206a:	42a2      	cmp	r2, r4
 800206c:	d108      	bne.n	8002080 <fill_rectgl+0x44>
 800206e:	4b09      	ldr	r3, [pc, #36]	; (8002094 <fill_rectgl+0x58>)
 8002070:	689a      	ldr	r2, [r3, #8]
 8002072:	0791      	lsls	r1, r2, #30
 8002074:	d5fc      	bpl.n	8002070 <fill_rectgl+0x34>
 8002076:	689a      	ldr	r2, [r3, #8]
 8002078:	0612      	lsls	r2, r2, #24
 800207a:	d4f9      	bmi.n	8002070 <fill_rectgl+0x34>
 800207c:	e8bd 81f0 	ldmia.w	sp!, {r4, r5, r6, r7, r8, pc}
 8002080:	6898      	ldr	r0, [r3, #8]
 8002082:	0785      	lsls	r5, r0, #30
 8002084:	d5fc      	bpl.n	8002080 <fill_rectgl+0x44>
 8002086:	7319      	strb	r1, [r3, #12]
 8002088:	6898      	ldr	r0, [r3, #8]
 800208a:	0780      	lsls	r0, r0, #30
 800208c:	d5fc      	bpl.n	8002088 <fill_rectgl+0x4c>
 800208e:	731e      	strb	r6, [r3, #12]
 8002090:	3201      	adds	r2, #1
 8002092:	e7ea      	b.n	800206a <fill_rectgl+0x2e>
 8002094:	40003800 	.word	0x40003800

08002098 <fill_screen>:
 8002098:	b507      	push	{r0, r1, r2, lr}
 800209a:	2100      	movs	r1, #0
 800209c:	9000      	str	r0, [sp, #0]
 800209e:	23a0      	movs	r3, #160	; 0xa0
 80020a0:	2280      	movs	r2, #128	; 0x80
 80020a2:	4608      	mov	r0, r1
 80020a4:	f7ff ffca 	bl	800203c <fill_rectgl>
 80020a8:	b003      	add	sp, #12
 80020aa:	f85d fb04 	ldr.w	pc, [sp], #4
	...

080020b0 <MX_ADC_Init>:
 80020b0:	4812      	ldr	r0, [pc, #72]	; (80020fc <MX_ADC_Init+0x4c>)
 80020b2:	4a13      	ldr	r2, [pc, #76]	; (8002100 <MX_ADC_Init+0x50>)
 80020b4:	b508      	push	{r3, lr}
 80020b6:	f04f 4300 	mov.w	r3, #2147483648	; 0x80000000
 80020ba:	e9c0 2300 	strd	r2, r3, [r0]
 80020be:	2204      	movs	r2, #4
 80020c0:	2300      	movs	r3, #0
 80020c2:	6142      	str	r2, [r0, #20]
 80020c4:	2201      	movs	r2, #1
 80020c6:	61c2      	str	r2, [r0, #28]
 80020c8:	8303      	strh	r3, [r0, #24]
 80020ca:	2207      	movs	r2, #7
 80020cc:	e9c0 3302 	strd	r3, r3, [r0, #8]
 80020d0:	e9c0 3309 	strd	r3, r3, [r0, #36]	; 0x24
 80020d4:	e9c0 220d 	strd	r2, r2, [r0, #52]	; 0x34
 80020d8:	6103      	str	r3, [r0, #16]
 80020da:	7683      	strb	r3, [r0, #26]
 80020dc:	f880 3020 	strb.w	r3, [r0, #32]
 80020e0:	f880 302c 	strb.w	r3, [r0, #44]	; 0x2c
 80020e4:	6303      	str	r3, [r0, #48]	; 0x30
 80020e6:	f880 303c 	strb.w	r3, [r0, #60]	; 0x3c
 80020ea:	64c3      	str	r3, [r0, #76]	; 0x4c
 80020ec:	f004 f83a 	bl	8006164 <HAL_ADC_Init>
 80020f0:	b118      	cbz	r0, 80020fa <MX_ADC_Init+0x4a>
 80020f2:	e8bd 4008 	ldmia.w	sp!, {r3, lr}
 80020f6:	f001 ba87 	b.w	8003608 <Error_Handler>
 80020fa:	bd08      	pop	{r3, pc}
 80020fc:	2000028c 	.word	0x2000028c
 8002100:	40012400 	.word	0x40012400

08002104 <HAL_ADC_MspInit>:
 8002104:	b510      	push	{r4, lr}
 8002106:	4604      	mov	r4, r0
 8002108:	b088      	sub	sp, #32
 800210a:	2214      	movs	r2, #20
 800210c:	2100      	movs	r1, #0
 800210e:	a803      	add	r0, sp, #12
 8002110:	f009 fdbc 	bl	800bc8c <memset>
 8002114:	6822      	ldr	r2, [r4, #0]
 8002116:	4b11      	ldr	r3, [pc, #68]	; (800215c <HAL_ADC_MspInit+0x58>)
 8002118:	429a      	cmp	r2, r3
 800211a:	d11d      	bne.n	8002158 <HAL_ADC_MspInit+0x54>
 800211c:	f04f 43b0 	mov.w	r3, #1476395008	; 0x58000000
 8002120:	a903      	add	r1, sp, #12
 8002122:	6e1a      	ldr	r2, [r3, #96]	; 0x60
 8002124:	f442 7200 	orr.w	r2, r2, #512	; 0x200
 8002128:	661a      	str	r2, [r3, #96]	; 0x60
 800212a:	6e1a      	ldr	r2, [r3, #96]	; 0x60
 800212c:	f402 7200 	and.w	r2, r2, #512	; 0x200
 8002130:	9202      	str	r2, [sp, #8]
 8002132:	9a02      	ldr	r2, [sp, #8]
 8002134:	6cda      	ldr	r2, [r3, #76]	; 0x4c
 8002136:	f042 0201 	orr.w	r2, r2, #1
 800213a:	64da      	str	r2, [r3, #76]	; 0x4c
 800213c:	6cdb      	ldr	r3, [r3, #76]	; 0x4c
 800213e:	f003 0301 	and.w	r3, r3, #1
 8002142:	9301      	str	r3, [sp, #4]
 8002144:	9b01      	ldr	r3, [sp, #4]
 8002146:	f44f 4200 	mov.w	r2, #32768	; 0x8000
 800214a:	2303      	movs	r3, #3
 800214c:	f04f 4090 	mov.w	r0, #1207959552	; 0x48000000
 8002150:	e9cd 2303 	strd	r2, r3, [sp, #12]
 8002154:	f004 fc84 	bl	8006a60 <HAL_GPIO_Init>
 8002158:	b008      	add	sp, #32
 800215a:	bd10      	pop	{r4, pc}
 800215c:	40012400 	.word	0x40012400

08002160 <HAL_ADC_MspDeInit>:
 8002160:	6802      	ldr	r2, [r0, #0]
 8002162:	4b08      	ldr	r3, [pc, #32]	; (8002184 <HAL_ADC_MspDeInit+0x24>)
 8002164:	429a      	cmp	r2, r3
 8002166:	d10b      	bne.n	8002180 <HAL_ADC_MspDeInit+0x20>
 8002168:	f04f 42b0 	mov.w	r2, #1476395008	; 0x58000000
 800216c:	f44f 4100 	mov.w	r1, #32768	; 0x8000
 8002170:	6e13      	ldr	r3, [r2, #96]	; 0x60
 8002172:	f423 7300 	bic.w	r3, r3, #512	; 0x200
 8002176:	6613      	str	r3, [r2, #96]	; 0x60
 8002178:	f04f 4090 	mov.w	r0, #1207959552	; 0x48000000
 800217c:	f004 bd1c 	b.w	8006bb8 <HAL_GPIO_DeInit>
 8002180:	4770      	bx	lr
 8002182:	bf00      	nop
 8002184:	40012400 	.word	0x40012400

08002188 <ADC_ReadChannels>:
 8002188:	b530      	push	{r4, r5, lr}
 800218a:	b085      	sub	sp, #20
 800218c:	2400      	movs	r4, #0
 800218e:	4605      	mov	r5, r0
 8002190:	e9cd 4401 	strd	r4, r4, [sp, #4]
 8002194:	9403      	str	r4, [sp, #12]
 8002196:	f7ff ff8b 	bl	80020b0 <MX_ADC_Init>
 800219a:	4814      	ldr	r0, [pc, #80]	; (80021ec <ADC_ReadChannels+0x64>)
 800219c:	f004 fb82 	bl	80068a4 <HAL_ADCEx_Calibration_Start>
 80021a0:	b108      	cbz	r0, 80021a6 <ADC_ReadChannels+0x1e>
 80021a2:	f001 fa31 	bl	8003608 <Error_Handler>
 80021a6:	4811      	ldr	r0, [pc, #68]	; (80021ec <ADC_ReadChannels+0x64>)
 80021a8:	9403      	str	r4, [sp, #12]
 80021aa:	a901      	add	r1, sp, #4
 80021ac:	e9cd 5401 	strd	r5, r4, [sp, #4]
 80021b0:	f004 f944 	bl	800643c <HAL_ADC_ConfigChannel>
 80021b4:	b108      	cbz	r0, 80021ba <ADC_ReadChannels+0x32>
 80021b6:	f001 fa27 	bl	8003608 <Error_Handler>
 80021ba:	480c      	ldr	r0, [pc, #48]	; (80021ec <ADC_ReadChannels+0x64>)
 80021bc:	f004 faa4 	bl	8006708 <HAL_ADC_Start>
 80021c0:	b108      	cbz	r0, 80021c6 <ADC_ReadChannels+0x3e>
 80021c2:	f001 fa21 	bl	8003608 <Error_Handler>
 80021c6:	f04f 31ff 	mov.w	r1, #4294967295	; 0xffffffff
 80021ca:	4808      	ldr	r0, [pc, #32]	; (80021ec <ADC_ReadChannels+0x64>)
 80021cc:	f004 f8d8 	bl	8006380 <HAL_ADC_PollForConversion>
 80021d0:	4806      	ldr	r0, [pc, #24]	; (80021ec <ADC_ReadChannels+0x64>)
 80021d2:	f004 fb49 	bl	8006868 <HAL_ADC_Stop>
 80021d6:	4805      	ldr	r0, [pc, #20]	; (80021ec <ADC_ReadChannels+0x64>)
 80021d8:	f004 f92d 	bl	8006436 <HAL_ADC_GetValue>
 80021dc:	4604      	mov	r4, r0
 80021de:	4803      	ldr	r0, [pc, #12]	; (80021ec <ADC_ReadChannels+0x64>)
 80021e0:	f004 faf4 	bl	80067cc <HAL_ADC_DeInit>
 80021e4:	4620      	mov	r0, r4
 80021e6:	b005      	add	sp, #20
 80021e8:	bd30      	pop	{r4, r5, pc}
 80021ea:	bf00      	nop
 80021ec:	2000028c 	.word	0x2000028c

080021f0 <SYS_InitMeasurement>:
 80021f0:	4b01      	ldr	r3, [pc, #4]	; (80021f8 <SYS_InitMeasurement+0x8>)
 80021f2:	4a02      	ldr	r2, [pc, #8]	; (80021fc <SYS_InitMeasurement+0xc>)
 80021f4:	601a      	str	r2, [r3, #0]
 80021f6:	4770      	bx	lr
 80021f8:	2000028c 	.word	0x2000028c
 80021fc:	40012400 	.word	0x40012400

08002200 <SYS_GetBatteryLevel>:
 8002200:	b508      	push	{r3, lr}
 8002202:	4809      	ldr	r0, [pc, #36]	; (8002228 <SYS_GetBatteryLevel+0x28>)
 8002204:	f7ff ffc0 	bl	8002188 <ADC_ReadChannels>
 8002208:	b168      	cbz	r0, 8002226 <SYS_GetBatteryLevel+0x26>
 800220a:	4b08      	ldr	r3, [pc, #32]	; (800222c <SYS_GetBatteryLevel+0x2c>)
 800220c:	f8b3 30aa 	ldrh.w	r3, [r3, #170]	; 0xaa
 8002210:	f64f 72ff 	movw	r2, #65535	; 0xffff
 8002214:	4293      	cmp	r3, r2
 8002216:	bf16      	itet	ne
 8002218:	f640 42e4 	movwne	r2, #3300	; 0xce4
 800221c:	4b04      	ldreq	r3, [pc, #16]	; (8002230 <SYS_GetBatteryLevel+0x30>)
 800221e:	4353      	mulne	r3, r2
 8002220:	fbb3 f0f0 	udiv	r0, r3, r0
 8002224:	b280      	uxth	r0, r0
 8002226:	bd08      	pop	{r3, pc}
 8002228:	b4002000 	.word	0xb4002000
 800222c:	1fff7500 	.word	0x1fff7500
 8002230:	004c08d8 	.word	0x004c08d8

08002234 <SYS_GetTemperatureLevel>:
 8002234:	b513      	push	{r0, r1, r4, lr}
 8002236:	2300      	movs	r3, #0
 8002238:	f8ad 3006 	strh.w	r3, [sp, #6]
 800223c:	f7ff ffe0 	bl	8002200 <SYS_GetBatteryLevel>
 8002240:	4604      	mov	r4, r0
 8002242:	4819      	ldr	r0, [pc, #100]	; (80022a8 <SYS_GetTemperatureLevel+0x74>)
 8002244:	f7ff ffa0 	bl	8002188 <ADC_ReadChannels>
 8002248:	4918      	ldr	r1, [pc, #96]	; (80022ac <SYS_GetTemperatureLevel+0x78>)
 800224a:	f8b1 20c8 	ldrh.w	r2, [r1, #200]	; 0xc8
 800224e:	f8b1 10a8 	ldrh.w	r1, [r1, #168]	; 0xa8
 8002252:	428a      	cmp	r2, r1
 8002254:	fb04 f000 	mul.w	r0, r4, r0
 8002258:	d018      	beq.n	800228c <SYS_GetTemperatureLevel+0x58>
 800225a:	f640 43e4 	movw	r3, #3300	; 0xce4
 800225e:	fbb0 f3f3 	udiv	r3, r0, r3
 8002262:	2064      	movs	r0, #100	; 0x64
 8002264:	1a5b      	subs	r3, r3, r1
 8002266:	4343      	muls	r3, r0
 8002268:	1a52      	subs	r2, r2, r1
 800226a:	fb93 f3f2 	sdiv	r3, r3, r2
 800226e:	331e      	adds	r3, #30
 8002270:	b21b      	sxth	r3, r3
 8002272:	f8ad 3006 	strh.w	r3, [sp, #6]
 8002276:	f8bd 3006 	ldrh.w	r3, [sp, #6]
 800227a:	b25b      	sxtb	r3, r3
 800227c:	021b      	lsls	r3, r3, #8
 800227e:	f8ad 3006 	strh.w	r3, [sp, #6]
 8002282:	f8bd 0006 	ldrh.w	r0, [sp, #6]
 8002286:	b200      	sxth	r0, r0
 8002288:	b002      	add	sp, #8
 800228a:	bd10      	pop	{r4, pc}
 800228c:	f640 73ff 	movw	r3, #4095	; 0xfff
 8002290:	fbb0 f3f3 	udiv	r3, r0, r3
 8002294:	f44f 707a 	mov.w	r0, #1000	; 0x3e8
 8002298:	4343      	muls	r3, r0
 800229a:	f5a3 2339 	sub.w	r3, r3, #757760	; 0xb9000
 800229e:	f5a3 630c 	sub.w	r3, r3, #2240	; 0x8c0
 80022a2:	f640 12c4 	movw	r2, #2500	; 0x9c4
 80022a6:	e7e0      	b.n	800226a <SYS_GetTemperatureLevel+0x36>
 80022a8:	b0001000 	.word	0xb0001000
 80022ac:	1fff7500 	.word	0x1fff7500

080022b0 <GetChannelLevel>:
 80022b0:	b508      	push	{r3, lr}
 80022b2:	4802      	ldr	r0, [pc, #8]	; (80022bc <GetChannelLevel+0xc>)
 80022b4:	f7ff ff68 	bl	8002188 <ADC_ReadChannels>
 80022b8:	b280      	uxth	r0, r0
 80022ba:	bd08      	pop	{r3, pc}
 80022bc:	2c000800 	.word	0x2c000800

080022c0 <enable_buttons_interrupts>:
 80022c0:	4b02      	ldr	r3, [pc, #8]	; (80022cc <enable_buttons_interrupts+0xc>)
 80022c2:	2201      	movs	r2, #1
 80022c4:	601a      	str	r2, [r3, #0]
 80022c6:	605a      	str	r2, [r3, #4]
 80022c8:	615a      	str	r2, [r3, #20]
 80022ca:	4770      	bx	lr
 80022cc:	42011000 	.word	0x42011000

080022d0 <disable_buttons_interrupts>:
 80022d0:	4b02      	ldr	r3, [pc, #8]	; (80022dc <disable_buttons_interrupts+0xc>)
 80022d2:	2200      	movs	r2, #0
 80022d4:	601a      	str	r2, [r3, #0]
 80022d6:	605a      	str	r2, [r3, #4]
 80022d8:	615a      	str	r2, [r3, #20]
 80022da:	4770      	bx	lr
 80022dc:	42011000 	.word	0x42011000

080022e0 <scan_button>:
 80022e0:	b538      	push	{r3, r4, r5, lr}
 80022e2:	f04f 4190 	mov.w	r1, #1207959552	; 0x48000000
 80022e6:	4b28      	ldr	r3, [pc, #160]	; (8002388 <scan_button+0xa8>)
 80022e8:	690a      	ldr	r2, [r1, #16]
 80022ea:	f012 0f01 	tst.w	r2, #1
 80022ee:	4605      	mov	r5, r0
 80022f0:	4a26      	ldr	r2, [pc, #152]	; (800238c <scan_button+0xac>)
 80022f2:	7818      	ldrb	r0, [r3, #0]
 80022f4:	d010      	beq.n	8002318 <scan_button+0x38>
 80022f6:	690c      	ldr	r4, [r1, #16]
 80022f8:	07a4      	lsls	r4, r4, #30
 80022fa:	d50d      	bpl.n	8002318 <scan_button+0x38>
 80022fc:	6909      	ldr	r1, [r1, #16]
 80022fe:	0689      	lsls	r1, r1, #26
 8002300:	d50a      	bpl.n	8002318 <scan_button+0x38>
 8002302:	7010      	strb	r0, [r2, #0]
 8002304:	2101      	movs	r1, #1
 8002306:	7019      	strb	r1, [r3, #0]
 8002308:	781b      	ldrb	r3, [r3, #0]
 800230a:	b9f3      	cbnz	r3, 800234a <scan_button+0x6a>
 800230c:	4a20      	ldr	r2, [pc, #128]	; (8002390 <scan_button+0xb0>)
 800230e:	7813      	ldrb	r3, [r2, #0]
 8002310:	2bff      	cmp	r3, #255	; 0xff
 8002312:	d104      	bne.n	800231e <scan_button+0x3e>
 8002314:	2400      	movs	r4, #0
 8002316:	e027      	b.n	8002368 <scan_button+0x88>
 8002318:	7010      	strb	r0, [r2, #0]
 800231a:	2100      	movs	r1, #0
 800231c:	e7f3      	b.n	8002306 <scan_button+0x26>
 800231e:	3301      	adds	r3, #1
 8002320:	b2db      	uxtb	r3, r3
 8002322:	7013      	strb	r3, [r2, #0]
 8002324:	4a1b      	ldr	r2, [pc, #108]	; (8002394 <scan_button+0xb4>)
 8002326:	491c      	ldr	r1, [pc, #112]	; (8002398 <scan_button+0xb8>)
 8002328:	7810      	ldrb	r0, [r2, #0]
 800232a:	7008      	strb	r0, [r1, #0]
 800232c:	2b37      	cmp	r3, #55	; 0x37
 800232e:	bf94      	ite	ls
 8002330:	2300      	movls	r3, #0
 8002332:	2301      	movhi	r3, #1
 8002334:	7013      	strb	r3, [r2, #0]
 8002336:	4b17      	ldr	r3, [pc, #92]	; (8002394 <scan_button+0xb4>)
 8002338:	781b      	ldrb	r3, [r3, #0]
 800233a:	2b01      	cmp	r3, #1
 800233c:	d1ea      	bne.n	8002314 <scan_button+0x34>
 800233e:	4b16      	ldr	r3, [pc, #88]	; (8002398 <scan_button+0xb8>)
 8002340:	781b      	ldrb	r3, [r3, #0]
 8002342:	2b00      	cmp	r3, #0
 8002344:	d1e6      	bne.n	8002314 <scan_button+0x34>
 8002346:	006c      	lsls	r4, r5, #1
 8002348:	e016      	b.n	8002378 <scan_button+0x98>
 800234a:	2b01      	cmp	r3, #1
 800234c:	d1f3      	bne.n	8002336 <scan_button+0x56>
 800234e:	7814      	ldrb	r4, [r2, #0]
 8002350:	b9a4      	cbnz	r4, 800237c <scan_button+0x9c>
 8002352:	4b0f      	ldr	r3, [pc, #60]	; (8002390 <scan_button+0xb0>)
 8002354:	4811      	ldr	r0, [pc, #68]	; (800239c <scan_button+0xbc>)
 8002356:	781a      	ldrb	r2, [r3, #0]
 8002358:	701c      	strb	r4, [r3, #0]
 800235a:	3a05      	subs	r2, #5
 800235c:	2a31      	cmp	r2, #49	; 0x31
 800235e:	d905      	bls.n	800236c <scan_button+0x8c>
 8002360:	f006 f9ea 	bl	8008738 <HAL_TIM_Base_Stop_IT>
 8002364:	f7ff ffac 	bl	80022c0 <enable_buttons_interrupts>
 8002368:	4620      	mov	r0, r4
 800236a:	bd38      	pop	{r3, r4, r5, pc}
 800236c:	f006 f9e4 	bl	8008738 <HAL_TIM_Base_Stop_IT>
 8002370:	f7ff ffa6 	bl	80022c0 <enable_buttons_interrupts>
 8002374:	006c      	lsls	r4, r5, #1
 8002376:	3c01      	subs	r4, #1
 8002378:	b2e4      	uxtb	r4, r4
 800237a:	e7f5      	b.n	8002368 <scan_button+0x88>
 800237c:	4807      	ldr	r0, [pc, #28]	; (800239c <scan_button+0xbc>)
 800237e:	f006 f9db 	bl	8008738 <HAL_TIM_Base_Stop_IT>
 8002382:	f7ff ff9d 	bl	80022c0 <enable_buttons_interrupts>
 8002386:	e7c5      	b.n	8002314 <scan_button+0x34>
 8002388:	20000001 	.word	0x20000001
 800238c:	20000000 	.word	0x20000000
 8002390:	200002f0 	.word	0x200002f0
 8002394:	200002f2 	.word	0x200002f2
 8002398:	200002f1 	.word	0x200002f1
 800239c:	20000b18 	.word	0x20000b18

080023a0 <flash_lock>:
 80023a0:	4b02      	ldr	r3, [pc, #8]	; (80023ac <flash_lock+0xc>)
 80023a2:	2201      	movs	r2, #1
 80023a4:	f8c3 22fc 	str.w	r2, [r3, #764]	; 0x2fc
 80023a8:	4770      	bx	lr
 80023aa:	bf00      	nop
 80023ac:	42080000 	.word	0x42080000

080023b0 <flash_unlock>:
 80023b0:	4b07      	ldr	r3, [pc, #28]	; (80023d0 <flash_unlock+0x20>)
 80023b2:	695a      	ldr	r2, [r3, #20]
 80023b4:	2a00      	cmp	r2, #0
 80023b6:	bfbf      	itttt	lt
 80023b8:	4a06      	ldrlt	r2, [pc, #24]	; (80023d4 <flash_unlock+0x24>)
 80023ba:	609a      	strlt	r2, [r3, #8]
 80023bc:	f102 3288 	addlt.w	r2, r2, #2290649224	; 0x88888888
 80023c0:	609a      	strlt	r2, [r3, #8]
 80023c2:	bfbd      	ittte	lt
 80023c4:	6958      	ldrlt	r0, [r3, #20]
 80023c6:	43c0      	mvnlt	r0, r0
 80023c8:	0fc0      	lsrlt	r0, r0, #31
 80023ca:	2001      	movge	r0, #1
 80023cc:	4770      	bx	lr
 80023ce:	bf00      	nop
 80023d0:	58004000 	.word	0x58004000
 80023d4:	45670123 	.word	0x45670123

080023d8 <flash_erase_page>:
 80023d8:	4a0e      	ldr	r2, [pc, #56]	; (8002414 <flash_erase_page+0x3c>)
 80023da:	6913      	ldr	r3, [r2, #16]
 80023dc:	03d9      	lsls	r1, r3, #15
 80023de:	d4fc      	bmi.n	80023da <flash_erase_page+0x2>
 80023e0:	6953      	ldr	r3, [r2, #20]
 80023e2:	f423 737e 	bic.w	r3, r3, #1016	; 0x3f8
 80023e6:	ea43 00c0 	orr.w	r0, r3, r0, lsl #3
 80023ea:	f440 3080 	orr.w	r0, r0, #65536	; 0x10000
 80023ee:	f040 0002 	orr.w	r0, r0, #2
 80023f2:	6150      	str	r0, [r2, #20]
 80023f4:	bf00      	nop
 80023f6:	4b08      	ldr	r3, [pc, #32]	; (8002418 <flash_erase_page+0x40>)
 80023f8:	2201      	movs	r2, #1
 80023fa:	f8c3 22c0 	str.w	r2, [r3, #704]	; 0x2c0
 80023fe:	4a05      	ldr	r2, [pc, #20]	; (8002414 <flash_erase_page+0x3c>)
 8002400:	6913      	ldr	r3, [r2, #16]
 8002402:	03db      	lsls	r3, r3, #15
 8002404:	d4fc      	bmi.n	8002400 <flash_erase_page+0x28>
 8002406:	6953      	ldr	r3, [r2, #20]
 8002408:	f423 737e 	bic.w	r3, r3, #1016	; 0x3f8
 800240c:	f023 0302 	bic.w	r3, r3, #2
 8002410:	6153      	str	r3, [r2, #20]
 8002412:	4770      	bx	lr
 8002414:	58004000 	.word	0x58004000
 8002418:	42080000 	.word	0x42080000

0800241c <flash_write_array>:
 800241c:	b5f7      	push	{r0, r1, r2, r4, r5, r6, r7, lr}
 800241e:	f022 0607 	bic.w	r6, r2, #7
 8002422:	4a1c      	ldr	r2, [pc, #112]	; (8002494 <flash_write_array+0x78>)
 8002424:	4603      	mov	r3, r0
 8002426:	4406      	add	r6, r0
 8002428:	1a0c      	subs	r4, r1, r0
 800242a:	42b3      	cmp	r3, r6
 800242c:	eb04 0103 	add.w	r1, r4, r3
 8002430:	d02d      	beq.n	800248e <flash_write_array+0x72>
 8002432:	58e0      	ldr	r0, [r4, r3]
 8002434:	6849      	ldr	r1, [r1, #4]
 8002436:	466d      	mov	r5, sp
 8002438:	c503      	stmia	r5!, {r0, r1}
 800243a:	4601      	mov	r1, r0
 800243c:	9801      	ldr	r0, [sp, #4]
 800243e:	f1b0 3fff 	cmp.w	r0, #4294967295	; 0xffffffff
 8002442:	bf08      	it	eq
 8002444:	f1b1 3fff 	cmpeq.w	r1, #4294967295	; 0xffffffff
 8002448:	d01f      	beq.n	800248a <flash_write_array+0x6e>
 800244a:	e018      	b.n	800247e <flash_write_array+0x62>
 800244c:	6915      	ldr	r5, [r2, #16]
 800244e:	032d      	lsls	r5, r5, #12
 8002450:	d4fc      	bmi.n	800244c <flash_write_array+0x30>
 8002452:	6915      	ldr	r5, [r2, #16]
 8002454:	03ef      	lsls	r7, r5, #15
 8002456:	d4fc      	bmi.n	8002452 <flash_write_array+0x36>
 8002458:	6955      	ldr	r5, [r2, #20]
 800245a:	f045 0501 	orr.w	r5, r5, #1
 800245e:	6155      	str	r5, [r2, #20]
 8002460:	6955      	ldr	r5, [r2, #20]
 8002462:	f045 0501 	orr.w	r5, r5, #1
 8002466:	6155      	str	r5, [r2, #20]
 8002468:	6019      	str	r1, [r3, #0]
 800246a:	f3bf 8f6f 	isb	sy
 800246e:	6058      	str	r0, [r3, #4]
 8002470:	6915      	ldr	r5, [r2, #16]
 8002472:	03ed      	lsls	r5, r5, #15
 8002474:	d4fc      	bmi.n	8002470 <flash_write_array+0x54>
 8002476:	6955      	ldr	r5, [r2, #20]
 8002478:	f025 0501 	bic.w	r5, r5, #1
 800247c:	6155      	str	r5, [r2, #20]
 800247e:	e9d3 7500 	ldrd	r7, r5, [r3]
 8002482:	42a8      	cmp	r0, r5
 8002484:	bf08      	it	eq
 8002486:	42b9      	cmpeq	r1, r7
 8002488:	d1e0      	bne.n	800244c <flash_write_array+0x30>
 800248a:	3308      	adds	r3, #8
 800248c:	e7cd      	b.n	800242a <flash_write_array+0xe>
 800248e:	b003      	add	sp, #12
 8002490:	bdf0      	pop	{r4, r5, r6, r7, pc}
 8002492:	bf00      	nop
 8002494:	58004000 	.word	0x58004000

08002498 <read_page>:
 8002498:	b530      	push	{r4, r5, lr}
 800249a:	2300      	movs	r3, #0
 800249c:	b2dc      	uxtb	r4, r3
 800249e:	4294      	cmp	r4, r2
 80024a0:	f103 0501 	add.w	r5, r3, #1
 80024a4:	d300      	bcc.n	80024a8 <read_page+0x10>
 80024a6:	bd30      	pop	{r4, r5, pc}
 80024a8:	5c23      	ldrb	r3, [r4, r0]
 80024aa:	550b      	strb	r3, [r1, r4]
 80024ac:	462b      	mov	r3, r5
 80024ae:	e7f5      	b.n	800249c <read_page+0x4>

080024b0 <get_trekpoints>:
 80024b0:	4801      	ldr	r0, [pc, #4]	; (80024b8 <get_trekpoints+0x8>)
 80024b2:	4b02      	ldr	r3, [pc, #8]	; (80024bc <get_trekpoints+0xc>)
 80024b4:	6003      	str	r3, [r0, #0]
 80024b6:	4770      	bx	lr
 80024b8:	20000308 	.word	0x20000308
 80024bc:	20000318 	.word	0x20000318

080024c0 <serialPrint>:
 80024c0:	4b05      	ldr	r3, [pc, #20]	; (80024d8 <serialPrint+0x18>)
 80024c2:	4401      	add	r1, r0
 80024c4:	4288      	cmp	r0, r1
 80024c6:	d100      	bne.n	80024ca <serialPrint+0xa>
 80024c8:	4770      	bx	lr
 80024ca:	f810 2b01 	ldrb.w	r2, [r0], #1
 80024ce:	629a      	str	r2, [r3, #40]	; 0x28
 80024d0:	69da      	ldr	r2, [r3, #28]
 80024d2:	0612      	lsls	r2, r2, #24
 80024d4:	d5fc      	bpl.n	80024d0 <serialPrint+0x10>
 80024d6:	e7f5      	b.n	80024c4 <serialPrint+0x4>
 80024d8:	40004400 	.word	0x40004400

080024dc <send_ubx>:
 80024dc:	e92d 41f0 	stmdb	sp!, {r4, r5, r6, r7, r8, lr}
 80024e0:	2500      	movs	r5, #0
 80024e2:	b0c2      	sub	sp, #264	; 0x108
 80024e4:	4680      	mov	r8, r0
 80024e6:	460f      	mov	r7, r1
 80024e8:	4616      	mov	r6, r2
 80024ea:	4629      	mov	r1, r5
 80024ec:	f240 1203 	movw	r2, #259	; 0x103
 80024f0:	a801      	add	r0, sp, #4
 80024f2:	461c      	mov	r4, r3
 80024f4:	f009 fbca 	bl	800bc8c <memset>
 80024f8:	23b5      	movs	r3, #181	; 0xb5
 80024fa:	f88d 3000 	strb.w	r3, [sp]
 80024fe:	4631      	mov	r1, r6
 8002500:	2362      	movs	r3, #98	; 0x62
 8002502:	4622      	mov	r2, r4
 8002504:	f10d 0006 	add.w	r0, sp, #6
 8002508:	f88d 3001 	strb.w	r3, [sp, #1]
 800250c:	f88d 8002 	strb.w	r8, [sp, #2]
 8002510:	f88d 7003 	strb.w	r7, [sp, #3]
 8002514:	f88d 4004 	strb.w	r4, [sp, #4]
 8002518:	f009 fbaa 	bl	800bc70 <memcpy>
 800251c:	4629      	mov	r1, r5
 800251e:	4628      	mov	r0, r5
 8002520:	2302      	movs	r3, #2
 8002522:	1d65      	adds	r5, r4, #5
 8002524:	429d      	cmp	r5, r3
 8002526:	da0c      	bge.n	8002542 <send_ubx+0x66>
 8002528:	eb0d 0304 	add.w	r3, sp, r4
 800252c:	71d9      	strb	r1, [r3, #7]
 800252e:	f104 0108 	add.w	r1, r4, #8
 8002532:	7198      	strb	r0, [r3, #6]
 8002534:	b2c9      	uxtb	r1, r1
 8002536:	4668      	mov	r0, sp
 8002538:	f7ff ffc2 	bl	80024c0 <serialPrint>
 800253c:	b042      	add	sp, #264	; 0x108
 800253e:	e8bd 81f0 	ldmia.w	sp!, {r4, r5, r6, r7, r8, pc}
 8002542:	f81d 2003 	ldrb.w	r2, [sp, r3]
 8002546:	4402      	add	r2, r0
 8002548:	fa51 f182 	uxtab	r1, r1, r2
 800254c:	3301      	adds	r3, #1
 800254e:	b2d0      	uxtb	r0, r2
 8002550:	b2c9      	uxtb	r1, r1
 8002552:	b2db      	uxtb	r3, r3
 8002554:	e7e6      	b.n	8002524 <send_ubx+0x48>
	...

08002558 <restart_uart>:
 8002558:	4b08      	ldr	r3, [pc, #32]	; (800257c <restart_uart+0x24>)
 800255a:	2200      	movs	r2, #0
 800255c:	701a      	strb	r2, [r3, #0]
 800255e:	4b08      	ldr	r3, [pc, #32]	; (8002580 <restart_uart+0x28>)
 8002560:	6a59      	ldr	r1, [r3, #36]	; 0x24
 8002562:	601a      	str	r2, [r3, #0]
 8002564:	4a07      	ldr	r2, [pc, #28]	; (8002584 <restart_uart+0x2c>)
 8002566:	f832 2010 	ldrh.w	r2, [r2, r0, lsl #1]
 800256a:	60da      	str	r2, [r3, #12]
 800256c:	2201      	movs	r2, #1
 800256e:	601a      	str	r2, [r3, #0]
 8002570:	681a      	ldr	r2, [r3, #0]
 8002572:	f042 022c 	orr.w	r2, r2, #44	; 0x2c
 8002576:	601a      	str	r2, [r3, #0]
 8002578:	4770      	bx	lr
 800257a:	bf00      	nop
 800257c:	200011fd 	.word	0x200011fd
 8002580:	40004400 	.word	0x40004400
 8002584:	2000001c 	.word	0x2000001c

08002588 <configure_gps>:
 8002588:	e92d 4880 	stmdb	sp!, {r7, fp, lr}
 800258c:	4bc4      	ldr	r3, [pc, #784]	; (80028a0 <configure_gps+0x318>)
 800258e:	b08d      	sub	sp, #52	; 0x34
 8002590:	aa08      	add	r2, sp, #32
 8002592:	f103 0508 	add.w	r5, r3, #8
 8002596:	6818      	ldr	r0, [r3, #0]
 8002598:	6859      	ldr	r1, [r3, #4]
 800259a:	4614      	mov	r4, r2
 800259c:	c403      	stmia	r4!, {r0, r1}
 800259e:	3308      	adds	r3, #8
 80025a0:	42ab      	cmp	r3, r5
 80025a2:	4622      	mov	r2, r4
 80025a4:	d1f7      	bne.n	8002596 <configure_gps+0xe>
 80025a6:	6818      	ldr	r0, [r3, #0]
 80025a8:	889b      	ldrh	r3, [r3, #4]
 80025aa:	6020      	str	r0, [r4, #0]
 80025ac:	80a3      	strh	r3, [r4, #4]
 80025ae:	f000 fc03 	bl	8002db8 <led_blue_off>
 80025b2:	f8df 92f0 	ldr.w	r9, [pc, #752]	; 80028a4 <configure_gps+0x31c>
 80025b6:	f899 3000 	ldrb.w	r3, [r9]
 80025ba:	b14b      	cbz	r3, 80025d0 <configure_gps+0x48>
 80025bc:	2304      	movs	r3, #4
 80025be:	2006      	movs	r0, #6
 80025c0:	4ab9      	ldr	r2, [pc, #740]	; (80028a8 <configure_gps+0x320>)
 80025c2:	4619      	mov	r1, r3
 80025c4:	f7ff ff8a 	bl	80024dc <send_ubx>
 80025c8:	f44f 70fa 	mov.w	r0, #500	; 0x1f4
 80025cc:	f003 fabc 	bl	8005b48 <HAL_Delay>
 80025d0:	2400      	movs	r4, #0
 80025d2:	f8df a2d8 	ldr.w	sl, [pc, #728]	; 80028ac <configure_gps+0x324>
 80025d6:	4db6      	ldr	r5, [pc, #728]	; (80028b0 <configure_gps+0x328>)
 80025d8:	f88a 4000 	strb.w	r4, [sl]
 80025dc:	4620      	mov	r0, r4
 80025de:	f7ff fc2b 	bl	8001e38 <fillScreen>
 80025e2:	4eb4      	ldr	r6, [pc, #720]	; (80028b4 <configure_gps+0x32c>)
 80025e4:	702c      	strb	r4, [r5, #0]
 80025e6:	4cb4      	ldr	r4, [pc, #720]	; (80028b8 <configure_gps+0x330>)
 80025e8:	782b      	ldrb	r3, [r5, #0]
 80025ea:	f995 0000 	ldrsb.w	r0, [r5]
 80025ee:	2b05      	cmp	r3, #5
 80025f0:	d813      	bhi.n	800261a <configure_gps+0x92>
 80025f2:	f7ff ffb1 	bl	8002558 <restart_uart>
 80025f6:	4620      	mov	r0, r4
 80025f8:	f006 fab3 	bl	8008b62 <HAL_UART_GetState>
 80025fc:	2822      	cmp	r0, #34	; 0x22
 80025fe:	d006      	beq.n	800260e <configure_gps+0x86>
 8002600:	4630      	mov	r0, r6
 8002602:	2108      	movs	r1, #8
 8002604:	f7ff ff5c 	bl	80024c0 <serialPrint>
 8002608:	20c8      	movs	r0, #200	; 0xc8
 800260a:	f003 fa9d 	bl	8005b48 <HAL_Delay>
 800260e:	f89a 2000 	ldrb.w	r2, [sl]
 8002612:	782b      	ldrb	r3, [r5, #0]
 8002614:	2a00      	cmp	r2, #0
 8002616:	f000 81e8 	beq.w	80029ea <configure_gps+0x462>
 800261a:	f995 0000 	ldrsb.w	r0, [r5]
 800261e:	f8df 829c 	ldr.w	r8, [pc, #668]	; 80028bc <configure_gps+0x334>
 8002622:	f7ff ff99 	bl	8002558 <restart_uart>
 8002626:	2110      	movs	r1, #16
 8002628:	48a5      	ldr	r0, [pc, #660]	; (80028c0 <configure_gps+0x338>)
 800262a:	f7ff ff49 	bl	80024c0 <serialPrint>
 800262e:	2032      	movs	r0, #50	; 0x32
 8002630:	f003 fa8a 	bl	8005b48 <HAL_Delay>
 8002634:	f995 0000 	ldrsb.w	r0, [r5]
 8002638:	f7ff ff8e 	bl	8002558 <restart_uart>
 800263c:	2110      	movs	r1, #16
 800263e:	48a1      	ldr	r0, [pc, #644]	; (80028c4 <configure_gps+0x33c>)
 8002640:	f7ff ff3e 	bl	80024c0 <serialPrint>
 8002644:	2032      	movs	r0, #50	; 0x32
 8002646:	f003 fa7f 	bl	8005b48 <HAL_Delay>
 800264a:	f995 0000 	ldrsb.w	r0, [r5]
 800264e:	f7ff ff83 	bl	8002558 <restart_uart>
 8002652:	489d      	ldr	r0, [pc, #628]	; (80028c8 <configure_gps+0x340>)
 8002654:	2110      	movs	r1, #16
 8002656:	f7ff ff33 	bl	80024c0 <serialPrint>
 800265a:	2032      	movs	r0, #50	; 0x32
 800265c:	f003 fa74 	bl	8005b48 <HAL_Delay>
 8002660:	2700      	movs	r7, #0
 8002662:	782b      	ldrb	r3, [r5, #0]
 8002664:	2b03      	cmp	r3, #3
 8002666:	f040 81c3 	bne.w	80029f0 <configure_gps+0x468>
 800266a:	f000 fb95 	bl	8002d98 <led_red_off>
 800266e:	f998 3006 	ldrsb.w	r3, [r8, #6]
 8002672:	2b00      	cmp	r3, #0
 8002674:	f000 81bf 	beq.w	80029f6 <configure_gps+0x46e>
 8002678:	f998 3007 	ldrsb.w	r3, [r8, #7]
 800267c:	2b00      	cmp	r3, #0
 800267e:	f000 81ba 	beq.w	80029f6 <configure_gps+0x46e>
 8002682:	f998 3008 	ldrsb.w	r3, [r8, #8]
 8002686:	2b00      	cmp	r3, #0
 8002688:	f040 81b5 	bne.w	80029f6 <configure_gps+0x46e>
 800268c:	f000 fb8c 	bl	8002da8 <led_blue_on>
 8002690:	782b      	ldrb	r3, [r5, #0]
 8002692:	f88d 7017 	strb.w	r7, [sp, #23]
 8002696:	aa0c      	add	r2, sp, #48	; 0x30
 8002698:	eb02 0343 	add.w	r3, r2, r3, lsl #1
 800269c:	f89d 0017 	ldrb.w	r0, [sp, #23]
 80026a0:	f833 3c10 	ldrh.w	r3, [r3, #-16]
 80026a4:	4e89      	ldr	r6, [pc, #548]	; (80028cc <configure_gps+0x344>)
 80026a6:	4c8a      	ldr	r4, [pc, #552]	; (80028d0 <configure_gps+0x348>)
 80026a8:	b240      	sxtb	r0, r0
 80026aa:	2b00      	cmp	r3, #0
 80026ac:	f000 81a6 	beq.w	80029fc <configure_gps+0x474>
 80026b0:	f89a 2000 	ldrb.w	r2, [sl]
 80026b4:	4987      	ldr	r1, [pc, #540]	; (80028d4 <configure_gps+0x34c>)
 80026b6:	eb06 1040 	add.w	r0, r6, r0, lsl #5
 80026ba:	f009 fb1d 	bl	800bcf8 <siprintf>
 80026be:	f89d 0017 	ldrb.w	r0, [sp, #23]
 80026c2:	782b      	ldrb	r3, [r5, #0]
 80026c4:	4984      	ldr	r1, [pc, #528]	; (80028d8 <configure_gps+0x350>)
 80026c6:	aa0c      	add	r2, sp, #48	; 0x30
 80026c8:	eb02 0343 	add.w	r3, r2, r3, lsl #1
 80026cc:	b240      	sxtb	r0, r0
 80026ce:	3001      	adds	r0, #1
 80026d0:	f833 2c10 	ldrh.w	r2, [r3, #-16]
 80026d4:	eb06 1040 	add.w	r0, r6, r0, lsl #5
 80026d8:	f009 fb0e 	bl	800bcf8 <siprintf>
 80026dc:	782b      	ldrb	r3, [r5, #0]
 80026de:	2b03      	cmp	r3, #3
 80026e0:	d018      	beq.n	8002714 <configure_gps+0x18c>
 80026e2:	f89d 1017 	ldrb.w	r1, [sp, #23]
 80026e6:	f89d 2017 	ldrb.w	r2, [sp, #23]
 80026ea:	9702      	str	r7, [sp, #8]
 80026ec:	b249      	sxtb	r1, r1
 80026ee:	f64f 0322 	movw	r3, #63522	; 0xf822
 80026f2:	3101      	adds	r1, #1
 80026f4:	9301      	str	r3, [sp, #4]
 80026f6:	ebc1 01c1 	rsb	r1, r1, r1, lsl #3
 80026fa:	6863      	ldr	r3, [r4, #4]
 80026fc:	9300      	str	r3, [sp, #0]
 80026fe:	b252      	sxtb	r2, r2
 8002700:	0049      	lsls	r1, r1, #1
 8002702:	3201      	adds	r2, #1
 8002704:	3105      	adds	r1, #5
 8002706:	6823      	ldr	r3, [r4, #0]
 8002708:	eb06 1242 	add.w	r2, r6, r2, lsl #5
 800270c:	b2c9      	uxtb	r1, r1
 800270e:	2007      	movs	r0, #7
 8002710:	f7ff fb94 	bl	8001e3c <draw_str_by_rows>
 8002714:	f89d 3017 	ldrb.w	r3, [sp, #23]
 8002718:	f24f 7be0 	movw	fp, #63456	; 0xf7e0
 800271c:	f89d 3017 	ldrb.w	r3, [sp, #23]
 8002720:	b25b      	sxtb	r3, r3
 8002722:	2b01      	cmp	r3, #1
 8002724:	f340 8179 	ble.w	8002a1a <configure_gps+0x492>
 8002728:	2302      	movs	r3, #2
 800272a:	f88d 3017 	strb.w	r3, [sp, #23]
 800272e:	4b6b      	ldr	r3, [pc, #428]	; (80028dc <configure_gps+0x354>)
 8002730:	9306      	str	r3, [sp, #24]
 8002732:	4b6b      	ldr	r3, [pc, #428]	; (80028e0 <configure_gps+0x358>)
 8002734:	9307      	str	r3, [sp, #28]
 8002736:	f998 3006 	ldrsb.w	r3, [r8, #6]
 800273a:	f89d 0017 	ldrb.w	r0, [sp, #23]
 800273e:	4969      	ldr	r1, [pc, #420]	; (80028e4 <configure_gps+0x35c>)
 8002740:	aa0c      	add	r2, sp, #48	; 0x30
 8002742:	eb02 0383 	add.w	r3, r2, r3, lsl #2
 8002746:	b240      	sxtb	r0, r0
 8002748:	f853 2c18 	ldr.w	r2, [r3, #-24]
 800274c:	eb06 1040 	add.w	r0, r6, r0, lsl #5
 8002750:	f009 fad2 	bl	800bcf8 <siprintf>
 8002754:	f998 0006 	ldrsb.w	r0, [r8, #6]
 8002758:	b9a8      	cbnz	r0, 8002786 <configure_gps+0x1fe>
 800275a:	f89d 1017 	ldrb.w	r1, [sp, #23]
 800275e:	9002      	str	r0, [sp, #8]
 8002760:	f64f 0322 	movw	r3, #63522	; 0xf822
 8002764:	b249      	sxtb	r1, r1
 8002766:	9301      	str	r3, [sp, #4]
 8002768:	f89d 2017 	ldrb.w	r2, [sp, #23]
 800276c:	6863      	ldr	r3, [r4, #4]
 800276e:	9300      	str	r3, [sp, #0]
 8002770:	ebc1 01c1 	rsb	r1, r1, r1, lsl #3
 8002774:	0049      	lsls	r1, r1, #1
 8002776:	b252      	sxtb	r2, r2
 8002778:	3105      	adds	r1, #5
 800277a:	6823      	ldr	r3, [r4, #0]
 800277c:	eb06 1242 	add.w	r2, r6, r2, lsl #5
 8002780:	b2c9      	uxtb	r1, r1
 8002782:	f7ff fb5b 	bl	8001e3c <draw_str_by_rows>
 8002786:	f89d 0017 	ldrb.w	r0, [sp, #23]
 800278a:	f998 3007 	ldrsb.w	r3, [r8, #7]
 800278e:	4956      	ldr	r1, [pc, #344]	; (80028e8 <configure_gps+0x360>)
 8002790:	aa0c      	add	r2, sp, #48	; 0x30
 8002792:	eb02 0383 	add.w	r3, r2, r3, lsl #2
 8002796:	b240      	sxtb	r0, r0
 8002798:	3001      	adds	r0, #1
 800279a:	f853 2c18 	ldr.w	r2, [r3, #-24]
 800279e:	eb06 1040 	add.w	r0, r6, r0, lsl #5
 80027a2:	f009 faa9 	bl	800bcf8 <siprintf>
 80027a6:	f998 0007 	ldrsb.w	r0, [r8, #7]
 80027aa:	b9b8      	cbnz	r0, 80027dc <configure_gps+0x254>
 80027ac:	f89d 1017 	ldrb.w	r1, [sp, #23]
 80027b0:	f89d 2017 	ldrb.w	r2, [sp, #23]
 80027b4:	9002      	str	r0, [sp, #8]
 80027b6:	b249      	sxtb	r1, r1
 80027b8:	f64f 0322 	movw	r3, #63522	; 0xf822
 80027bc:	3101      	adds	r1, #1
 80027be:	9301      	str	r3, [sp, #4]
 80027c0:	ebc1 01c1 	rsb	r1, r1, r1, lsl #3
 80027c4:	6863      	ldr	r3, [r4, #4]
 80027c6:	9300      	str	r3, [sp, #0]
 80027c8:	b252      	sxtb	r2, r2
 80027ca:	0049      	lsls	r1, r1, #1
 80027cc:	3201      	adds	r2, #1
 80027ce:	3105      	adds	r1, #5
 80027d0:	6823      	ldr	r3, [r4, #0]
 80027d2:	eb06 1242 	add.w	r2, r6, r2, lsl #5
 80027d6:	b2c9      	uxtb	r1, r1
 80027d8:	f7ff fb30 	bl	8001e3c <draw_str_by_rows>
 80027dc:	f89d 0017 	ldrb.w	r0, [sp, #23]
 80027e0:	f998 3008 	ldrsb.w	r3, [r8, #8]
 80027e4:	4941      	ldr	r1, [pc, #260]	; (80028ec <configure_gps+0x364>)
 80027e6:	aa0c      	add	r2, sp, #48	; 0x30
 80027e8:	eb02 0383 	add.w	r3, r2, r3, lsl #2
 80027ec:	b240      	sxtb	r0, r0
 80027ee:	3002      	adds	r0, #2
 80027f0:	f853 2c18 	ldr.w	r2, [r3, #-24]
 80027f4:	eb06 1040 	add.w	r0, r6, r0, lsl #5
 80027f8:	f009 fa7e 	bl	800bcf8 <siprintf>
 80027fc:	f998 3008 	ldrsb.w	r3, [r8, #8]
 8002800:	b1c3      	cbz	r3, 8002834 <configure_gps+0x2ac>
 8002802:	f89d 1017 	ldrb.w	r1, [sp, #23]
 8002806:	f89d 2017 	ldrb.w	r2, [sp, #23]
 800280a:	9702      	str	r7, [sp, #8]
 800280c:	b249      	sxtb	r1, r1
 800280e:	f64f 0322 	movw	r3, #63522	; 0xf822
 8002812:	3102      	adds	r1, #2
 8002814:	9301      	str	r3, [sp, #4]
 8002816:	ebc1 01c1 	rsb	r1, r1, r1, lsl #3
 800281a:	6863      	ldr	r3, [r4, #4]
 800281c:	9300      	str	r3, [sp, #0]
 800281e:	b252      	sxtb	r2, r2
 8002820:	0049      	lsls	r1, r1, #1
 8002822:	3202      	adds	r2, #2
 8002824:	3105      	adds	r1, #5
 8002826:	6823      	ldr	r3, [r4, #0]
 8002828:	eb06 1242 	add.w	r2, r6, r2, lsl #5
 800282c:	b2c9      	uxtb	r1, r1
 800282e:	2000      	movs	r0, #0
 8002830:	f7ff fb04 	bl	8001e3c <draw_str_by_rows>
 8002834:	f89d 3017 	ldrb.w	r3, [sp, #23]
 8002838:	f64a 7be5 	movw	fp, #45029	; 0xafe5
 800283c:	f89d 3017 	ldrb.w	r3, [sp, #23]
 8002840:	b25b      	sxtb	r3, r3
 8002842:	2b04      	cmp	r3, #4
 8002844:	f340 8105 	ble.w	8002a52 <configure_gps+0x4ca>
 8002848:	2305      	movs	r3, #5
 800284a:	f88d 3017 	strb.w	r3, [sp, #23]
 800284e:	f89d 1017 	ldrb.w	r1, [sp, #23]
 8002852:	9702      	str	r7, [sp, #8]
 8002854:	f64f 76e0 	movw	r6, #65504	; 0xffe0
 8002858:	b249      	sxtb	r1, r1
 800285a:	9601      	str	r6, [sp, #4]
 800285c:	ebc1 01c1 	rsb	r1, r1, r1, lsl #3
 8002860:	6863      	ldr	r3, [r4, #4]
 8002862:	9300      	str	r3, [sp, #0]
 8002864:	0049      	lsls	r1, r1, #1
 8002866:	3107      	adds	r1, #7
 8002868:	6823      	ldr	r3, [r4, #0]
 800286a:	4a21      	ldr	r2, [pc, #132]	; (80028f0 <configure_gps+0x368>)
 800286c:	b2c9      	uxtb	r1, r1
 800286e:	2000      	movs	r0, #0
 8002870:	f7ff fae4 	bl	8001e3c <draw_str_by_rows>
 8002874:	f89d 3017 	ldrb.w	r3, [sp, #23]
 8002878:	9702      	str	r7, [sp, #8]
 800287a:	3301      	adds	r3, #1
 800287c:	f64f 5b20 	movw	fp, #64800	; 0xfd20
 8002880:	f003 01ff 	and.w	r1, r3, #255	; 0xff
 8002884:	f8cd b004 	str.w	fp, [sp, #4]
 8002888:	b25b      	sxtb	r3, r3
 800288a:	ebc1 01c1 	rsb	r1, r1, r1, lsl #3
 800288e:	f88d 3017 	strb.w	r3, [sp, #23]
 8002892:	0049      	lsls	r1, r1, #1
 8002894:	6863      	ldr	r3, [r4, #4]
 8002896:	9300      	str	r3, [sp, #0]
 8002898:	3105      	adds	r1, #5
 800289a:	6823      	ldr	r3, [r4, #0]
 800289c:	e02a      	b.n	80028f4 <configure_gps+0x36c>
 800289e:	bf00      	nop
 80028a0:	0800e838 	.word	0x0800e838
 80028a4:	20000301 	.word	0x20000301
 80028a8:	20000028 	.word	0x20000028
 80028ac:	200011fe 	.word	0x200011fe
 80028b0:	20000300 	.word	0x20000300
 80028b4:	0801056b 	.word	0x0801056b
 80028b8:	20000b6c 	.word	0x20000b6c
 80028bc:	20000578 	.word	0x20000578
 80028c0:	08010489 	.word	0x08010489
 80028c4:	080104a9 	.word	0x080104a9
 80028c8:	08010499 	.word	0x08010499
 80028cc:	2000058c 	.word	0x2000058c
 80028d0:	20000014 	.word	0x20000014
 80028d4:	080103ad 	.word	0x080103ad
 80028d8:	080103be 	.word	0x080103be
 80028dc:	080103a2 	.word	0x080103a2
 80028e0:	080103a8 	.word	0x080103a8
 80028e4:	080103e9 	.word	0x080103e9
 80028e8:	080103fa 	.word	0x080103fa
 80028ec:	0801040b 	.word	0x0801040b
 80028f0:	0801041c 	.word	0x0801041c
 80028f4:	4a8d      	ldr	r2, [pc, #564]	; (8002b2c <configure_gps+0x5a4>)
 80028f6:	b2c9      	uxtb	r1, r1
 80028f8:	2000      	movs	r0, #0
 80028fa:	f7ff fa9f 	bl	8001e3c <draw_str_by_rows>
 80028fe:	f89d 3017 	ldrb.w	r3, [sp, #23]
 8002902:	4a8b      	ldr	r2, [pc, #556]	; (8002b30 <configure_gps+0x5a8>)
 8002904:	e9cd 6701 	strd	r6, r7, [sp, #4]
 8002908:	3301      	adds	r3, #1
 800290a:	f003 01ff 	and.w	r1, r3, #255	; 0xff
 800290e:	ebc1 01c1 	rsb	r1, r1, r1, lsl #3
 8002912:	b25b      	sxtb	r3, r3
 8002914:	f88d 3017 	strb.w	r3, [sp, #23]
 8002918:	0049      	lsls	r1, r1, #1
 800291a:	6863      	ldr	r3, [r4, #4]
 800291c:	9300      	str	r3, [sp, #0]
 800291e:	3107      	adds	r1, #7
 8002920:	6823      	ldr	r3, [r4, #0]
 8002922:	b2c9      	uxtb	r1, r1
 8002924:	2000      	movs	r0, #0
 8002926:	f7ff fa89 	bl	8001e3c <draw_str_by_rows>
 800292a:	f89d 3017 	ldrb.w	r3, [sp, #23]
 800292e:	4a81      	ldr	r2, [pc, #516]	; (8002b34 <configure_gps+0x5ac>)
 8002930:	e9cd b701 	strd	fp, r7, [sp, #4]
 8002934:	3301      	adds	r3, #1
 8002936:	f003 01ff 	and.w	r1, r3, #255	; 0xff
 800293a:	ebc1 01c1 	rsb	r1, r1, r1, lsl #3
 800293e:	b25b      	sxtb	r3, r3
 8002940:	f88d 3017 	strb.w	r3, [sp, #23]
 8002944:	0049      	lsls	r1, r1, #1
 8002946:	6863      	ldr	r3, [r4, #4]
 8002948:	9300      	str	r3, [sp, #0]
 800294a:	3105      	adds	r1, #5
 800294c:	6823      	ldr	r3, [r4, #0]
 800294e:	b2c9      	uxtb	r1, r1
 8002950:	2000      	movs	r0, #0
 8002952:	f7ff fa73 	bl	8001e3c <draw_str_by_rows>
 8002956:	f89d 3017 	ldrb.w	r3, [sp, #23]
 800295a:	4a77      	ldr	r2, [pc, #476]	; (8002b38 <configure_gps+0x5b0>)
 800295c:	e9cd 6701 	strd	r6, r7, [sp, #4]
 8002960:	3301      	adds	r3, #1
 8002962:	f003 01ff 	and.w	r1, r3, #255	; 0xff
 8002966:	ebc1 01c1 	rsb	r1, r1, r1, lsl #3
 800296a:	b25b      	sxtb	r3, r3
 800296c:	f88d 3017 	strb.w	r3, [sp, #23]
 8002970:	0049      	lsls	r1, r1, #1
 8002972:	6863      	ldr	r3, [r4, #4]
 8002974:	9300      	str	r3, [sp, #0]
 8002976:	3107      	adds	r1, #7
 8002978:	6823      	ldr	r3, [r4, #0]
 800297a:	b2c9      	uxtb	r1, r1
 800297c:	2000      	movs	r0, #0
 800297e:	f7ff fa5d 	bl	8001e3c <draw_str_by_rows>
 8002982:	f89d 3017 	ldrb.w	r3, [sp, #23]
 8002986:	4a6d      	ldr	r2, [pc, #436]	; (8002b3c <configure_gps+0x5b4>)
 8002988:	e9cd b701 	strd	fp, r7, [sp, #4]
 800298c:	3301      	adds	r3, #1
 800298e:	f003 01ff 	and.w	r1, r3, #255	; 0xff
 8002992:	ebc1 01c1 	rsb	r1, r1, r1, lsl #3
 8002996:	b25b      	sxtb	r3, r3
 8002998:	f88d 3017 	strb.w	r3, [sp, #23]
 800299c:	0049      	lsls	r1, r1, #1
 800299e:	6863      	ldr	r3, [r4, #4]
 80029a0:	9300      	str	r3, [sp, #0]
 80029a2:	3105      	adds	r1, #5
 80029a4:	6823      	ldr	r3, [r4, #0]
 80029a6:	b2c9      	uxtb	r1, r1
 80029a8:	2000      	movs	r0, #0
 80029aa:	f7ff fa47 	bl	8001e3c <draw_str_by_rows>
 80029ae:	f899 3000 	ldrb.w	r3, [r9]
 80029b2:	2b01      	cmp	r3, #1
 80029b4:	d06b      	beq.n	8002a8e <configure_gps+0x506>
 80029b6:	f04f 4290 	mov.w	r2, #1207959552	; 0x48000000
 80029ba:	6911      	ldr	r1, [r2, #16]
 80029bc:	0789      	lsls	r1, r1, #30
 80029be:	d464      	bmi.n	8002a8a <configure_gps+0x502>
 80029c0:	6912      	ldr	r2, [r2, #16]
 80029c2:	0696      	lsls	r6, r2, #26
 80029c4:	d461      	bmi.n	8002a8a <configure_gps+0x502>
 80029c6:	2301      	movs	r3, #1
 80029c8:	2115      	movs	r1, #21
 80029ca:	485d      	ldr	r0, [pc, #372]	; (8002b40 <configure_gps+0x5b8>)
 80029cc:	f889 3000 	strb.w	r3, [r9]
 80029d0:	f7ff fd76 	bl	80024c0 <serialPrint>
 80029d4:	2064      	movs	r0, #100	; 0x64
 80029d6:	f003 f8b7 	bl	8005b48 <HAL_Delay>
 80029da:	485a      	ldr	r0, [pc, #360]	; (8002b44 <configure_gps+0x5bc>)
 80029dc:	2114      	movs	r1, #20
 80029de:	f7ff fd6f 	bl	80024c0 <serialPrint>
 80029e2:	2064      	movs	r0, #100	; 0x64
 80029e4:	f003 f8b0 	bl	8005b48 <HAL_Delay>
 80029e8:	e5e5      	b.n	80025b6 <configure_gps+0x2e>
 80029ea:	3301      	adds	r3, #1
 80029ec:	702b      	strb	r3, [r5, #0]
 80029ee:	e5fb      	b.n	80025e8 <configure_gps+0x60>
 80029f0:	f000 f9ca 	bl	8002d88 <led_red_on>
 80029f4:	e63b      	b.n	800266e <configure_gps+0xe6>
 80029f6:	f000 f9df 	bl	8002db8 <led_blue_off>
 80029fa:	e649      	b.n	8002690 <configure_gps+0x108>
 80029fc:	4952      	ldr	r1, [pc, #328]	; (8002b48 <configure_gps+0x5c0>)
 80029fe:	eb06 1040 	add.w	r0, r6, r0, lsl #5
 8002a02:	f009 f999 	bl	800bd38 <strcpy>
 8002a06:	f89d 0017 	ldrb.w	r0, [sp, #23]
 8002a0a:	4950      	ldr	r1, [pc, #320]	; (8002b4c <configure_gps+0x5c4>)
 8002a0c:	b240      	sxtb	r0, r0
 8002a0e:	3001      	adds	r0, #1
 8002a10:	eb06 1040 	add.w	r0, r6, r0, lsl #5
 8002a14:	f009 f990 	bl	800bd38 <strcpy>
 8002a18:	e67c      	b.n	8002714 <configure_gps+0x18c>
 8002a1a:	f89d 1017 	ldrb.w	r1, [sp, #23]
 8002a1e:	f89d 2017 	ldrb.w	r2, [sp, #23]
 8002a22:	e9cd b701 	strd	fp, r7, [sp, #4]
 8002a26:	b249      	sxtb	r1, r1
 8002a28:	ebc1 01c1 	rsb	r1, r1, r1, lsl #3
 8002a2c:	6863      	ldr	r3, [r4, #4]
 8002a2e:	9300      	str	r3, [sp, #0]
 8002a30:	0049      	lsls	r1, r1, #1
 8002a32:	b252      	sxtb	r2, r2
 8002a34:	3105      	adds	r1, #5
 8002a36:	6823      	ldr	r3, [r4, #0]
 8002a38:	eb06 1242 	add.w	r2, r6, r2, lsl #5
 8002a3c:	b2c9      	uxtb	r1, r1
 8002a3e:	2007      	movs	r0, #7
 8002a40:	f7ff f9fc 	bl	8001e3c <draw_str_by_rows>
 8002a44:	f89d 3017 	ldrb.w	r3, [sp, #23]
 8002a48:	3301      	adds	r3, #1
 8002a4a:	b25b      	sxtb	r3, r3
 8002a4c:	f88d 3017 	strb.w	r3, [sp, #23]
 8002a50:	e664      	b.n	800271c <configure_gps+0x194>
 8002a52:	f89d 1017 	ldrb.w	r1, [sp, #23]
 8002a56:	f89d 2017 	ldrb.w	r2, [sp, #23]
 8002a5a:	e9cd b701 	strd	fp, r7, [sp, #4]
 8002a5e:	b249      	sxtb	r1, r1
 8002a60:	ebc1 01c1 	rsb	r1, r1, r1, lsl #3
 8002a64:	6863      	ldr	r3, [r4, #4]
 8002a66:	9300      	str	r3, [sp, #0]
 8002a68:	0049      	lsls	r1, r1, #1
 8002a6a:	b252      	sxtb	r2, r2
 8002a6c:	3105      	adds	r1, #5
 8002a6e:	6823      	ldr	r3, [r4, #0]
 8002a70:	eb06 1242 	add.w	r2, r6, r2, lsl #5
 8002a74:	b2c9      	uxtb	r1, r1
 8002a76:	2000      	movs	r0, #0
 8002a78:	f7ff f9e0 	bl	8001e3c <draw_str_by_rows>
 8002a7c:	f89d 3017 	ldrb.w	r3, [sp, #23]
 8002a80:	3301      	adds	r3, #1
 8002a82:	b25b      	sxtb	r3, r3
 8002a84:	f88d 3017 	strb.w	r3, [sp, #23]
 8002a88:	e6d8      	b.n	800283c <configure_gps+0x2b4>
 8002a8a:	2b02      	cmp	r3, #2
 8002a8c:	d01d      	beq.n	8002aca <configure_gps+0x542>
 8002a8e:	f04f 4290 	mov.w	r2, #1207959552	; 0x48000000
 8002a92:	6911      	ldr	r1, [r2, #16]
 8002a94:	078c      	lsls	r4, r1, #30
 8002a96:	d416      	bmi.n	8002ac6 <configure_gps+0x53e>
 8002a98:	6912      	ldr	r2, [r2, #16]
 8002a9a:	0690      	lsls	r0, r2, #26
 8002a9c:	d513      	bpl.n	8002ac6 <configure_gps+0x53e>
 8002a9e:	2302      	movs	r3, #2
 8002aa0:	2140      	movs	r1, #64	; 0x40
 8002aa2:	482b      	ldr	r0, [pc, #172]	; (8002b50 <configure_gps+0x5c8>)
 8002aa4:	f889 3000 	strb.w	r3, [r9]
 8002aa8:	f7ff fd0a 	bl	80024c0 <serialPrint>
 8002aac:	2064      	movs	r0, #100	; 0x64
 8002aae:	f003 f84b 	bl	8005b48 <HAL_Delay>
 8002ab2:	2110      	movs	r1, #16
 8002ab4:	4827      	ldr	r0, [pc, #156]	; (8002b54 <configure_gps+0x5cc>)
 8002ab6:	f7ff fd03 	bl	80024c0 <serialPrint>
 8002aba:	2064      	movs	r0, #100	; 0x64
 8002abc:	f003 f844 	bl	8005b48 <HAL_Delay>
 8002ac0:	4825      	ldr	r0, [pc, #148]	; (8002b58 <configure_gps+0x5d0>)
 8002ac2:	2115      	movs	r1, #21
 8002ac4:	e78b      	b.n	80029de <configure_gps+0x456>
 8002ac6:	2b03      	cmp	r3, #3
 8002ac8:	d010      	beq.n	8002aec <configure_gps+0x564>
 8002aca:	f04f 4390 	mov.w	r3, #1207959552	; 0x48000000
 8002ace:	691a      	ldr	r2, [r3, #16]
 8002ad0:	0691      	lsls	r1, r2, #26
 8002ad2:	d40b      	bmi.n	8002aec <configure_gps+0x564>
 8002ad4:	691b      	ldr	r3, [r3, #16]
 8002ad6:	079a      	lsls	r2, r3, #30
 8002ad8:	d508      	bpl.n	8002aec <configure_gps+0x564>
 8002ada:	782b      	ldrb	r3, [r5, #0]
 8002adc:	2b03      	cmp	r3, #3
 8002ade:	d005      	beq.n	8002aec <configure_gps+0x564>
 8002ae0:	2303      	movs	r3, #3
 8002ae2:	481e      	ldr	r0, [pc, #120]	; (8002b5c <configure_gps+0x5d4>)
 8002ae4:	f889 3000 	strb.w	r3, [r9]
 8002ae8:	2114      	movs	r1, #20
 8002aea:	e778      	b.n	80029de <configure_gps+0x456>
 8002aec:	f04f 4390 	mov.w	r3, #1207959552	; 0x48000000
 8002af0:	691b      	ldr	r3, [r3, #16]
 8002af2:	07db      	lsls	r3, r3, #31
 8002af4:	d416      	bmi.n	8002b24 <configure_gps+0x59c>
 8002af6:	2304      	movs	r3, #4
 8002af8:	4a19      	ldr	r2, [pc, #100]	; (8002b60 <configure_gps+0x5d8>)
 8002afa:	4619      	mov	r1, r3
 8002afc:	2006      	movs	r0, #6
 8002afe:	f7ff fced 	bl	80024dc <send_ubx>
 8002b02:	f44f 70fa 	mov.w	r0, #500	; 0x1f4
 8002b06:	f003 f81f 	bl	8005b48 <HAL_Delay>
 8002b0a:	f3bf 8f4f 	dsb	sy
 8002b0e:	4915      	ldr	r1, [pc, #84]	; (8002b64 <configure_gps+0x5dc>)
 8002b10:	4b15      	ldr	r3, [pc, #84]	; (8002b68 <configure_gps+0x5e0>)
 8002b12:	68ca      	ldr	r2, [r1, #12]
 8002b14:	f402 62e0 	and.w	r2, r2, #1792	; 0x700
 8002b18:	4313      	orrs	r3, r2
 8002b1a:	60cb      	str	r3, [r1, #12]
 8002b1c:	f3bf 8f4f 	dsb	sy
 8002b20:	bf00      	nop
 8002b22:	e7fd      	b.n	8002b20 <configure_gps+0x598>
 8002b24:	20c8      	movs	r0, #200	; 0xc8
 8002b26:	f003 f80f 	bl	8005b48 <HAL_Delay>
 8002b2a:	e59a      	b.n	8002662 <configure_gps+0xda>
 8002b2c:	0801042e 	.word	0x0801042e
 8002b30:	08010440 	.word	0x08010440
 8002b34:	08010452 	.word	0x08010452
 8002b38:	08010464 	.word	0x08010464
 8002b3c:	08010476 	.word	0x08010476
 8002b40:	080104cd 	.word	0x080104cd
 8002b44:	080104b9 	.word	0x080104b9
 8002b48:	080103ce 	.word	0x080103ce
 8002b4c:	080103dc 	.word	0x080103dc
 8002b50:	08010516 	.word	0x08010516
 8002b54:	080104f2 	.word	0x080104f2
 8002b58:	08010556 	.word	0x08010556
 8002b5c:	08010502 	.word	0x08010502
 8002b60:	20000028 	.word	0x20000028
 8002b64:	e000ed00 	.word	0xe000ed00
 8002b68:	05fa0004 	.word	0x05fa0004

08002b6c <init_gnss>:
 8002b6c:	b538      	push	{r3, r4, r5, lr}
 8002b6e:	f002 fdd3 	bl	8005718 <get_settings>
 8002b72:	4b1d      	ldr	r3, [pc, #116]	; (8002be8 <init_gnss+0x7c>)
 8002b74:	4c1d      	ldr	r4, [pc, #116]	; (8002bec <init_gnss+0x80>)
 8002b76:	6018      	str	r0, [r3, #0]
 8002b78:	f000 f96a 	bl	8002e50 <get_devices>
 8002b7c:	4b1c      	ldr	r3, [pc, #112]	; (8002bf0 <init_gnss+0x84>)
 8002b7e:	6018      	str	r0, [r3, #0]
 8002b80:	f7ff fc96 	bl	80024b0 <get_trekpoints>
 8002b84:	4b1b      	ldr	r3, [pc, #108]	; (8002bf4 <init_gnss+0x88>)
 8002b86:	6018      	str	r0, [r3, #0]
 8002b88:	f994 300c 	ldrsb.w	r3, [r4, #12]
 8002b8c:	b10b      	cbz	r3, 8002b92 <init_gnss+0x26>
 8002b8e:	f7ff fcfb 	bl	8002588 <configure_gps>
 8002b92:	2003      	movs	r0, #3
 8002b94:	2501      	movs	r5, #1
 8002b96:	72e5      	strb	r5, [r4, #11]
 8002b98:	f7ff fcde 	bl	8002558 <restart_uart>
 8002b9c:	2064      	movs	r0, #100	; 0x64
 8002b9e:	f002 ffd3 	bl	8005b48 <HAL_Delay>
 8002ba2:	4815      	ldr	r0, [pc, #84]	; (8002bf8 <init_gnss+0x8c>)
 8002ba4:	2110      	movs	r1, #16
 8002ba6:	f7ff fc8b 	bl	80024c0 <serialPrint>
 8002baa:	f44f 70c8 	mov.w	r0, #400	; 0x190
 8002bae:	f002 ffcb 	bl	8005b48 <HAL_Delay>
 8002bb2:	f994 3006 	ldrsb.w	r3, [r4, #6]
 8002bb6:	b98b      	cbnz	r3, 8002bdc <init_gnss+0x70>
 8002bb8:	f000 f8f6 	bl	8002da8 <led_blue_on>
 8002bbc:	2003      	movs	r0, #3
 8002bbe:	7365      	strb	r5, [r4, #13]
 8002bc0:	72e5      	strb	r5, [r4, #11]
 8002bc2:	f7ff fcc9 	bl	8002558 <restart_uart>
 8002bc6:	2064      	movs	r0, #100	; 0x64
 8002bc8:	f002 ffbe 	bl	8005b48 <HAL_Delay>
 8002bcc:	480a      	ldr	r0, [pc, #40]	; (8002bf8 <init_gnss+0x8c>)
 8002bce:	2110      	movs	r1, #16
 8002bd0:	f7ff fc76 	bl	80024c0 <serialPrint>
 8002bd4:	f44f 70c8 	mov.w	r0, #400	; 0x190
 8002bd8:	f002 ffb6 	bl	8005b48 <HAL_Delay>
 8002bdc:	e8bd 4038 	ldmia.w	sp!, {r3, r4, r5, lr}
 8002be0:	4806      	ldr	r0, [pc, #24]	; (8002bfc <init_gnss+0x90>)
 8002be2:	2110      	movs	r1, #16
 8002be4:	f7ff bc6c 	b.w	80024c0 <serialPrint>
 8002be8:	20000304 	.word	0x20000304
 8002bec:	20000578 	.word	0x20000578
 8002bf0:	2000030c 	.word	0x2000030c
 8002bf4:	20000310 	.word	0x20000310
 8002bf8:	08010489 	.word	0x08010489
 8002bfc:	080104e2 	.word	0x080104e2

08002c00 <LL_AHB2_GRP1_EnableClock>:
 8002c00:	f04f 43b0 	mov.w	r3, #1476395008	; 0x58000000
 8002c04:	b082      	sub	sp, #8
 8002c06:	6cda      	ldr	r2, [r3, #76]	; 0x4c
 8002c08:	4302      	orrs	r2, r0
 8002c0a:	64da      	str	r2, [r3, #76]	; 0x4c
 8002c0c:	6cdb      	ldr	r3, [r3, #76]	; 0x4c
 8002c0e:	4018      	ands	r0, r3
 8002c10:	9001      	str	r0, [sp, #4]
 8002c12:	9b01      	ldr	r3, [sp, #4]
 8002c14:	b002      	add	sp, #8
 8002c16:	4770      	bx	lr

08002c18 <MX_GPIO_Init>:
 8002c18:	e92d 41f0 	stmdb	sp!, {r4, r5, r6, r7, r8, lr}
 8002c1c:	b086      	sub	sp, #24
 8002c1e:	2214      	movs	r2, #20
 8002c20:	2100      	movs	r1, #0
 8002c22:	a801      	add	r0, sp, #4
 8002c24:	f009 f832 	bl	800bc8c <memset>
 8002c28:	2002      	movs	r0, #2
 8002c2a:	4e51      	ldr	r6, [pc, #324]	; (8002d70 <MX_GPIO_Init+0x158>)
 8002c2c:	4f51      	ldr	r7, [pc, #324]	; (8002d74 <MX_GPIO_Init+0x15c>)
 8002c2e:	f7ff ffe7 	bl	8002c00 <LL_AHB2_GRP1_EnableClock>
 8002c32:	2001      	movs	r0, #1
 8002c34:	f7ff ffe4 	bl	8002c00 <LL_AHB2_GRP1_EnableClock>
 8002c38:	2004      	movs	r0, #4
 8002c3a:	f7ff ffe1 	bl	8002c00 <LL_AHB2_GRP1_EnableClock>
 8002c3e:	f44f 719c 	mov.w	r1, #312	; 0x138
 8002c42:	4630      	mov	r0, r6
 8002c44:	2201      	movs	r2, #1
 8002c46:	f004 f82b 	bl	8006ca0 <HAL_GPIO_WritePin>
 8002c4a:	2200      	movs	r2, #0
 8002c4c:	f44f 51d6 	mov.w	r1, #6848	; 0x1ac0
 8002c50:	f04f 4090 	mov.w	r0, #1207959552	; 0x48000000
 8002c54:	f004 f824 	bl	8006ca0 <HAL_GPIO_WritePin>
 8002c58:	4630      	mov	r0, r6
 8002c5a:	2200      	movs	r2, #0
 8002c5c:	2104      	movs	r1, #4
 8002c5e:	f004 f81f 	bl	8006ca0 <HAL_GPIO_WritePin>
 8002c62:	4638      	mov	r0, r7
 8002c64:	2200      	movs	r2, #0
 8002c66:	f44f 5100 	mov.w	r1, #8192	; 0x2000
 8002c6a:	2400      	movs	r4, #0
 8002c6c:	2501      	movs	r5, #1
 8002c6e:	f004 f817 	bl	8006ca0 <HAL_GPIO_WritePin>
 8002c72:	2238      	movs	r2, #56	; 0x38
 8002c74:	2311      	movs	r3, #17
 8002c76:	a901      	add	r1, sp, #4
 8002c78:	4630      	mov	r0, r6
 8002c7a:	e9cd 2301 	strd	r2, r3, [sp, #4]
 8002c7e:	e9cd 5403 	strd	r5, r4, [sp, #12]
 8002c82:	f003 feed 	bl	8006a60 <HAL_GPIO_Init>
 8002c86:	f44f 7382 	mov.w	r3, #260	; 0x104
 8002c8a:	a901      	add	r1, sp, #4
 8002c8c:	4630      	mov	r0, r6
 8002c8e:	e9cd 3501 	strd	r3, r5, [sp, #4]
 8002c92:	f44f 1804 	mov.w	r8, #2162688	; 0x210000
 8002c96:	e9cd 4403 	strd	r4, r4, [sp, #12]
 8002c9a:	f003 fee1 	bl	8006a60 <HAL_GPIO_Init>
 8002c9e:	2323      	movs	r3, #35	; 0x23
 8002ca0:	a901      	add	r1, sp, #4
 8002ca2:	f04f 4090 	mov.w	r0, #1207959552	; 0x48000000
 8002ca6:	e9cd 3801 	strd	r3, r8, [sp, #4]
 8002caa:	9503      	str	r5, [sp, #12]
 8002cac:	f003 fed8 	bl	8006a60 <HAL_GPIO_Init>
 8002cb0:	2110      	movs	r1, #16
 8002cb2:	f44f 1388 	mov.w	r3, #1114112	; 0x110000
 8002cb6:	e9cd 1301 	strd	r1, r3, [sp, #4]
 8002cba:	f04f 4090 	mov.w	r0, #1207959552	; 0x48000000
 8002cbe:	2302      	movs	r3, #2
 8002cc0:	a901      	add	r1, sp, #4
 8002cc2:	9303      	str	r3, [sp, #12]
 8002cc4:	f003 fecc 	bl	8006a60 <HAL_GPIO_Init>
 8002cc8:	23c0      	movs	r3, #192	; 0xc0
 8002cca:	a901      	add	r1, sp, #4
 8002ccc:	f04f 4090 	mov.w	r0, #1207959552	; 0x48000000
 8002cd0:	e9cd 3501 	strd	r3, r5, [sp, #4]
 8002cd4:	e9cd 4503 	strd	r4, r5, [sp, #12]
 8002cd8:	f003 fec2 	bl	8006a60 <HAL_GPIO_Init>
 8002cdc:	f44f 53d0 	mov.w	r3, #6656	; 0x1a00
 8002ce0:	a901      	add	r1, sp, #4
 8002ce2:	f04f 4090 	mov.w	r0, #1207959552	; 0x48000000
 8002ce6:	e9cd 3501 	strd	r3, r5, [sp, #4]
 8002cea:	e9cd 4403 	strd	r4, r4, [sp, #12]
 8002cee:	f003 feb7 	bl	8006a60 <HAL_GPIO_Init>
 8002cf2:	f44f 5380 	mov.w	r3, #4096	; 0x1000
 8002cf6:	a901      	add	r1, sp, #4
 8002cf8:	4630      	mov	r0, r6
 8002cfa:	e9cd 3801 	strd	r3, r8, [sp, #4]
 8002cfe:	9503      	str	r5, [sp, #12]
 8002d00:	f003 feae 	bl	8006a60 <HAL_GPIO_Init>
 8002d04:	f44f 5300 	mov.w	r3, #8192	; 0x2000
 8002d08:	a901      	add	r1, sp, #4
 8002d0a:	4638      	mov	r0, r7
 8002d0c:	e9cd 3501 	strd	r3, r5, [sp, #4]
 8002d10:	e9cd 4403 	strd	r4, r4, [sp, #12]
 8002d14:	f003 fea4 	bl	8006a60 <HAL_GPIO_Init>
 8002d18:	4622      	mov	r2, r4
 8002d1a:	4621      	mov	r1, r4
 8002d1c:	2006      	movs	r0, #6
 8002d1e:	f003 fe5f 	bl	80069e0 <HAL_NVIC_SetPriority>
 8002d22:	2006      	movs	r0, #6
 8002d24:	f003 fe8e 	bl	8006a44 <HAL_NVIC_EnableIRQ>
 8002d28:	4622      	mov	r2, r4
 8002d2a:	4621      	mov	r1, r4
 8002d2c:	2007      	movs	r0, #7
 8002d2e:	f003 fe57 	bl	80069e0 <HAL_NVIC_SetPriority>
 8002d32:	2007      	movs	r0, #7
 8002d34:	f003 fe86 	bl	8006a44 <HAL_NVIC_EnableIRQ>
 8002d38:	4622      	mov	r2, r4
 8002d3a:	4621      	mov	r1, r4
 8002d3c:	200a      	movs	r0, #10
 8002d3e:	f003 fe4f 	bl	80069e0 <HAL_NVIC_SetPriority>
 8002d42:	200a      	movs	r0, #10
 8002d44:	f003 fe7e 	bl	8006a44 <HAL_NVIC_EnableIRQ>
 8002d48:	4622      	mov	r2, r4
 8002d4a:	4621      	mov	r1, r4
 8002d4c:	2016      	movs	r0, #22
 8002d4e:	f003 fe47 	bl	80069e0 <HAL_NVIC_SetPriority>
 8002d52:	2016      	movs	r0, #22
 8002d54:	f003 fe76 	bl	8006a44 <HAL_NVIC_EnableIRQ>
 8002d58:	4622      	mov	r2, r4
 8002d5a:	4621      	mov	r1, r4
 8002d5c:	2029      	movs	r0, #41	; 0x29
 8002d5e:	f003 fe3f 	bl	80069e0 <HAL_NVIC_SetPriority>
 8002d62:	2029      	movs	r0, #41	; 0x29
 8002d64:	f003 fe6e 	bl	8006a44 <HAL_NVIC_EnableIRQ>
 8002d68:	b006      	add	sp, #24
 8002d6a:	e8bd 81f0 	ldmia.w	sp!, {r4, r5, r6, r7, r8, pc}
 8002d6e:	bf00      	nop
 8002d70:	48000400 	.word	0x48000400
 8002d74:	48000800 	.word	0x48000800

08002d78 <led_toggle>:
 8002d78:	4a02      	ldr	r2, [pc, #8]	; (8002d84 <led_toggle+0xc>)
 8002d7a:	6953      	ldr	r3, [r2, #20]
 8002d7c:	f083 0308 	eor.w	r3, r3, #8
 8002d80:	6153      	str	r3, [r2, #20]
 8002d82:	4770      	bx	lr
 8002d84:	48000400 	.word	0x48000400

08002d88 <led_red_on>:
 8002d88:	4b02      	ldr	r3, [pc, #8]	; (8002d94 <led_red_on+0xc>)
 8002d8a:	f44f 2200 	mov.w	r2, #524288	; 0x80000
 8002d8e:	619a      	str	r2, [r3, #24]
 8002d90:	4770      	bx	lr
 8002d92:	bf00      	nop
 8002d94:	48000400 	.word	0x48000400

08002d98 <led_red_off>:
 8002d98:	4b01      	ldr	r3, [pc, #4]	; (8002da0 <led_red_off+0x8>)
 8002d9a:	2208      	movs	r2, #8
 8002d9c:	619a      	str	r2, [r3, #24]
 8002d9e:	4770      	bx	lr
 8002da0:	48000400 	.word	0x48000400

08002da4 <led_green_off>:
 8002da4:	4770      	bx	lr
	...

08002da8 <led_blue_on>:
 8002da8:	4b02      	ldr	r3, [pc, #8]	; (8002db4 <led_blue_on+0xc>)
 8002daa:	f44f 1280 	mov.w	r2, #1048576	; 0x100000
 8002dae:	619a      	str	r2, [r3, #24]
 8002db0:	4770      	bx	lr
 8002db2:	bf00      	nop
 8002db4:	48000400 	.word	0x48000400

08002db8 <led_blue_off>:
 8002db8:	4b01      	ldr	r3, [pc, #4]	; (8002dc0 <led_blue_off+0x8>)
 8002dba:	2210      	movs	r2, #16
 8002dbc:	619a      	str	r2, [r3, #24]
 8002dbe:	4770      	bx	lr
 8002dc0:	48000400 	.word	0x48000400

08002dc4 <hold_power>:
 8002dc4:	4b02      	ldr	r3, [pc, #8]	; (8002dd0 <hold_power+0xc>)
 8002dc6:	f44f 5200 	mov.w	r2, #8192	; 0x2000
 8002dca:	619a      	str	r2, [r3, #24]
 8002dcc:	4770      	bx	lr
 8002dce:	bf00      	nop
 8002dd0:	48000800 	.word	0x48000800

08002dd4 <release_power>:
 8002dd4:	4b02      	ldr	r3, [pc, #8]	; (8002de0 <release_power+0xc>)
 8002dd6:	f04f 5200 	mov.w	r2, #536870912	; 0x20000000
 8002dda:	619a      	str	r2, [r3, #24]
 8002ddc:	4770      	bx	lr
 8002dde:	bf00      	nop
 8002de0:	48000800 	.word	0x48000800

08002de4 <buzz_on>:
 8002de4:	4b01      	ldr	r3, [pc, #4]	; (8002dec <buzz_on+0x8>)
 8002de6:	2220      	movs	r2, #32
 8002de8:	619a      	str	r2, [r3, #24]
 8002dea:	4770      	bx	lr
 8002dec:	48000400 	.word	0x48000400

08002df0 <buzz_off>:
 8002df0:	4b02      	ldr	r3, [pc, #8]	; (8002dfc <buzz_off+0xc>)
 8002df2:	f44f 1200 	mov.w	r2, #2097152	; 0x200000
 8002df6:	619a      	str	r2, [r3, #24]
 8002df8:	4770      	bx	lr
 8002dfa:	bf00      	nop
 8002dfc:	48000400 	.word	0x48000400

08002e00 <led_w_on>:
 8002e00:	4b01      	ldr	r3, [pc, #4]	; (8002e08 <led_w_on+0x8>)
 8002e02:	2220      	movs	r2, #32
 8002e04:	619a      	str	r2, [r3, #24]
 8002e06:	4770      	bx	lr
 8002e08:	48000400 	.word	0x48000400

08002e0c <led_w_off>:
 8002e0c:	4b02      	ldr	r3, [pc, #8]	; (8002e18 <led_w_off+0xc>)
 8002e0e:	f44f 1200 	mov.w	r2, #2097152	; 0x200000
 8002e12:	619a      	str	r2, [r3, #24]
 8002e14:	4770      	bx	lr
 8002e16:	bf00      	nop
 8002e18:	48000400 	.word	0x48000400

08002e1c <longBeepsBlocking>:
 8002e1c:	b5f8      	push	{r3, r4, r5, r6, r7, lr}
 8002e1e:	4c0b      	ldr	r4, [pc, #44]	; (8002e4c <longBeepsBlocking+0x30>)
 8002e20:	4605      	mov	r5, r0
 8002e22:	2600      	movs	r6, #0
 8002e24:	2720      	movs	r7, #32
 8002e26:	b273      	sxtb	r3, r6
 8002e28:	429d      	cmp	r5, r3
 8002e2a:	dc00      	bgt.n	8002e2e <longBeepsBlocking+0x12>
 8002e2c:	bdf8      	pop	{r3, r4, r5, r6, r7, pc}
 8002e2e:	2064      	movs	r0, #100	; 0x64
 8002e30:	f002 fe8a 	bl	8005b48 <HAL_Delay>
 8002e34:	61a7      	str	r7, [r4, #24]
 8002e36:	f44f 70fa 	mov.w	r0, #500	; 0x1f4
 8002e3a:	61a7      	str	r7, [r4, #24]
 8002e3c:	f002 fe84 	bl	8005b48 <HAL_Delay>
 8002e40:	f44f 1300 	mov.w	r3, #2097152	; 0x200000
 8002e44:	61a3      	str	r3, [r4, #24]
 8002e46:	3601      	adds	r6, #1
 8002e48:	61a3      	str	r3, [r4, #24]
 8002e4a:	e7ec      	b.n	8002e26 <longBeepsBlocking+0xa>
 8002e4c:	48000400 	.word	0x48000400

08002e50 <get_devices>:
 8002e50:	4b09      	ldr	r3, [pc, #36]	; (8002e78 <get_devices+0x28>)
 8002e52:	480a      	ldr	r0, [pc, #40]	; (8002e7c <get_devices+0x2c>)
 8002e54:	f103 0248 	add.w	r2, r3, #72	; 0x48
 8002e58:	6042      	str	r2, [r0, #4]
 8002e5a:	f103 0290 	add.w	r2, r3, #144	; 0x90
 8002e5e:	6082      	str	r2, [r0, #8]
 8002e60:	f103 02d8 	add.w	r2, r3, #216	; 0xd8
 8002e64:	6003      	str	r3, [r0, #0]
 8002e66:	60c2      	str	r2, [r0, #12]
 8002e68:	f503 7290 	add.w	r2, r3, #288	; 0x120
 8002e6c:	f503 73b4 	add.w	r3, r3, #360	; 0x168
 8002e70:	6102      	str	r2, [r0, #16]
 8002e72:	6143      	str	r3, [r0, #20]
 8002e74:	4770      	bx	lr
 8002e76:	bf00      	nop
 8002e78:	20000378 	.word	0x20000378
 8002e7c:	20000558 	.word	0x20000558

08002e80 <init_lrns>:
 8002e80:	b570      	push	{r4, r5, r6, lr}
 8002e82:	f002 fc49 	bl	8005718 <get_settings>
 8002e86:	4d0c      	ldr	r5, [pc, #48]	; (8002eb8 <init_lrns+0x38>)
 8002e88:	4e0c      	ldr	r6, [pc, #48]	; (8002ebc <init_lrns+0x3c>)
 8002e8a:	6028      	str	r0, [r5, #0]
 8002e8c:	f7ff ffe0 	bl	8002e50 <get_devices>
 8002e90:	4b0b      	ldr	r3, [pc, #44]	; (8002ec0 <init_lrns+0x40>)
 8002e92:	2401      	movs	r4, #1
 8002e94:	6018      	str	r0, [r3, #0]
 8002e96:	682b      	ldr	r3, [r5, #0]
 8002e98:	789b      	ldrb	r3, [r3, #2]
 8002e9a:	42a3      	cmp	r3, r4
 8002e9c:	d200      	bcs.n	8002ea0 <init_lrns+0x20>
 8002e9e:	bd70      	pop	{r4, r5, r6, pc}
 8002ea0:	eb04 00c4 	add.w	r0, r4, r4, lsl #3
 8002ea4:	2248      	movs	r2, #72	; 0x48
 8002ea6:	2100      	movs	r1, #0
 8002ea8:	eb06 00c0 	add.w	r0, r6, r0, lsl #3
 8002eac:	3401      	adds	r4, #1
 8002eae:	f008 feed 	bl	800bc8c <memset>
 8002eb2:	b2e4      	uxtb	r4, r4
 8002eb4:	e7ef      	b.n	8002e96 <init_lrns+0x16>
 8002eb6:	bf00      	nop
 8002eb8:	20000570 	.word	0x20000570
 8002ebc:	20000378 	.word	0x20000378
 8002ec0:	20000574 	.word	0x20000574

08002ec4 <ublox_to_this_device>:
 8002ec4:	b510      	push	{r4, lr}
 8002ec6:	4b31      	ldr	r3, [pc, #196]	; (8002f8c <ublox_to_this_device+0xc8>)
 8002ec8:	2248      	movs	r2, #72	; 0x48
 8002eca:	fb02 3000 	mla	r0, r2, r0, r3
 8002ece:	4b30      	ldr	r3, [pc, #192]	; (8002f90 <ublox_to_this_device+0xcc>)
 8002ed0:	7e9a      	ldrb	r2, [r3, #26]
 8002ed2:	7582      	strb	r2, [r0, #22]
 8002ed4:	7ed9      	ldrb	r1, [r3, #27]
 8002ed6:	f001 0101 	and.w	r1, r1, #1
 8002eda:	75c1      	strb	r1, [r0, #23]
 8002edc:	7c5a      	ldrb	r2, [r3, #17]
 8002ede:	f002 0201 	and.w	r2, r2, #1
 8002ee2:	7602      	strb	r2, [r0, #24]
 8002ee4:	7f9a      	ldrb	r2, [r3, #30]
 8002ee6:	f880 2024 	strb.w	r2, [r0, #36]	; 0x24
 8002eea:	7fda      	ldrb	r2, [r3, #31]
 8002eec:	f880 2025 	strb.w	r2, [r0, #37]	; 0x25
 8002ef0:	f893 2020 	ldrb.w	r2, [r3, #32]
 8002ef4:	f880 2026 	strb.w	r2, [r0, #38]	; 0x26
 8002ef8:	f893 2021 	ldrb.w	r2, [r3, #33]	; 0x21
 8002efc:	f880 2027 	strb.w	r2, [r0, #39]	; 0x27
 8002f00:	f893 2022 	ldrb.w	r2, [r3, #34]	; 0x22
 8002f04:	f880 2020 	strb.w	r2, [r0, #32]
 8002f08:	f893 2023 	ldrb.w	r2, [r3, #35]	; 0x23
 8002f0c:	f880 2021 	strb.w	r2, [r0, #33]	; 0x21
 8002f10:	f893 2024 	ldrb.w	r2, [r3, #36]	; 0x24
 8002f14:	f880 2022 	strb.w	r2, [r0, #34]	; 0x22
 8002f18:	f893 2025 	ldrb.w	r2, [r3, #37]	; 0x25
 8002f1c:	f880 2023 	strb.w	r2, [r0, #35]	; 0x23
 8002f20:	f893 2044 	ldrb.w	r2, [r3, #68]	; 0x44
 8002f24:	f893 4045 	ldrb.w	r4, [r3, #69]	; 0x45
 8002f28:	0412      	lsls	r2, r2, #16
 8002f2a:	eb02 6204 	add.w	r2, r2, r4, lsl #24
 8002f2e:	f893 4043 	ldrb.w	r4, [r3, #67]	; 0x43
 8002f32:	eb02 2204 	add.w	r2, r2, r4, lsl #8
 8002f36:	f893 4042 	ldrb.w	r4, [r3, #66]	; 0x42
 8002f3a:	4422      	add	r2, r4
 8002f3c:	f44f 748b 	mov.w	r4, #278	; 0x116
 8002f40:	fb92 f2f4 	sdiv	r2, r2, r4
 8002f44:	f880 2028 	strb.w	r2, [r0, #40]	; 0x28
 8002f48:	f893 2048 	ldrb.w	r2, [r3, #72]	; 0x48
 8002f4c:	f893 4049 	ldrb.w	r4, [r3, #73]	; 0x49
 8002f50:	0412      	lsls	r2, r2, #16
 8002f52:	eb02 6204 	add.w	r2, r2, r4, lsl #24
 8002f56:	f893 4047 	ldrb.w	r4, [r3, #71]	; 0x47
 8002f5a:	eb02 2204 	add.w	r2, r2, r4, lsl #8
 8002f5e:	f893 4046 	ldrb.w	r4, [r3, #70]	; 0x46
 8002f62:	4422      	add	r2, r4
 8002f64:	4c0b      	ldr	r4, [pc, #44]	; (8002f94 <ublox_to_this_device+0xd0>)
 8002f66:	fb92 f2f4 	sdiv	r2, r2, r4
 8002f6a:	f3c2 0208 	ubfx	r2, r2, #0, #9
 8002f6e:	8542      	strh	r2, [r0, #42]	; 0x2a
 8002f70:	f893 2053 	ldrb.w	r2, [r3, #83]	; 0x53
 8002f74:	f893 3052 	ldrb.w	r3, [r3, #82]	; 0x52
 8002f78:	eb03 2302 	add.w	r3, r3, r2, lsl #8
 8002f7c:	8343      	strh	r3, [r0, #26]
 8002f7e:	b121      	cbz	r1, 8002f8a <ublox_to_this_device+0xc6>
 8002f80:	4b05      	ldr	r3, [pc, #20]	; (8002f98 <ublox_to_this_device+0xd4>)
 8002f82:	681b      	ldr	r3, [r3, #0]
 8002f84:	789a      	ldrb	r2, [r3, #2]
 8002f86:	4b05      	ldr	r3, [pc, #20]	; (8002f9c <ublox_to_this_device+0xd8>)
 8002f88:	729a      	strb	r2, [r3, #10]
 8002f8a:	bd10      	pop	{r4, pc}
 8002f8c:	20000378 	.word	0x20000378
 8002f90:	200010c0 	.word	0x200010c0
 8002f94:	000186a0 	.word	0x000186a0
 8002f98:	20000570 	.word	0x20000570
 8002f9c:	20000578 	.word	0x20000578

08002fa0 <rx_to_devices>:
 8002fa0:	b530      	push	{r4, r5, lr}
 8002fa2:	4a27      	ldr	r2, [pc, #156]	; (8003040 <rx_to_devices+0xa0>)
 8002fa4:	4c27      	ldr	r4, [pc, #156]	; (8003044 <rx_to_devices+0xa4>)
 8002fa6:	7811      	ldrb	r1, [r2, #0]
 8002fa8:	2348      	movs	r3, #72	; 0x48
 8002faa:	4358      	muls	r0, r3
 8002fac:	1823      	adds	r3, r4, r0
 8002fae:	09cd      	lsrs	r5, r1, #7
 8002fb0:	711d      	strb	r5, [r3, #4]
 8002fb2:	f3c1 1580 	ubfx	r5, r1, #6, #1
 8002fb6:	715d      	strb	r5, [r3, #5]
 8002fb8:	f3c1 1540 	ubfx	r5, r1, #5, #1
 8002fbc:	719d      	strb	r5, [r3, #6]
 8002fbe:	f3c1 1500 	ubfx	r5, r1, #4, #1
 8002fc2:	71dd      	strb	r5, [r3, #7]
 8002fc4:	f3c1 05c0 	ubfx	r5, r1, #3, #1
 8002fc8:	f001 0107 	and.w	r1, r1, #7
 8002fcc:	5421      	strb	r1, [r4, r0]
 8002fce:	721d      	strb	r5, [r3, #8]
 8002fd0:	7851      	ldrb	r1, [r2, #1]
 8002fd2:	f3c1 1041 	ubfx	r0, r1, #5, #2
 8002fd6:	7598      	strb	r0, [r3, #22]
 8002fd8:	f3c1 1000 	ubfx	r0, r1, #4, #1
 8002fdc:	f001 010f 	and.w	r1, r1, #15
 8002fe0:	311b      	adds	r1, #27
 8002fe2:	75d8      	strb	r0, [r3, #23]
 8002fe4:	f883 1041 	strb.w	r1, [r3, #65]	; 0x41
 8002fe8:	7891      	ldrb	r1, [r2, #2]
 8002fea:	8359      	strh	r1, [r3, #26]
 8002fec:	78d1      	ldrb	r1, [r2, #3]
 8002fee:	f883 1024 	strb.w	r1, [r3, #36]	; 0x24
 8002ff2:	7911      	ldrb	r1, [r2, #4]
 8002ff4:	f883 1025 	strb.w	r1, [r3, #37]	; 0x25
 8002ff8:	7951      	ldrb	r1, [r2, #5]
 8002ffa:	f883 1026 	strb.w	r1, [r3, #38]	; 0x26
 8002ffe:	7991      	ldrb	r1, [r2, #6]
 8003000:	f883 1027 	strb.w	r1, [r3, #39]	; 0x27
 8003004:	79d1      	ldrb	r1, [r2, #7]
 8003006:	f883 1020 	strb.w	r1, [r3, #32]
 800300a:	7a11      	ldrb	r1, [r2, #8]
 800300c:	f883 1021 	strb.w	r1, [r3, #33]	; 0x21
 8003010:	7a51      	ldrb	r1, [r2, #9]
 8003012:	f883 1022 	strb.w	r1, [r3, #34]	; 0x22
 8003016:	7a91      	ldrb	r1, [r2, #10]
 8003018:	f883 1023 	strb.w	r1, [r3, #35]	; 0x23
 800301c:	7ad1      	ldrb	r1, [r2, #11]
 800301e:	0848      	lsrs	r0, r1, #1
 8003020:	f883 0028 	strb.w	r0, [r3, #40]	; 0x28
 8003024:	7b10      	ldrb	r0, [r2, #12]
 8003026:	0209      	lsls	r1, r1, #8
 8003028:	f401 7180 	and.w	r1, r1, #256	; 0x100
 800302c:	4401      	add	r1, r0
 800302e:	8559      	strh	r1, [r3, #42]	; 0x2a
 8003030:	7b51      	ldrb	r1, [r2, #13]
 8003032:	f883 1043 	strb.w	r1, [r3, #67]	; 0x43
 8003036:	7b92      	ldrb	r2, [r2, #14]
 8003038:	f883 2044 	strb.w	r2, [r3, #68]	; 0x44
 800303c:	bd30      	pop	{r4, r5, pc}
 800303e:	bf00      	nop
 8003040:	20001140 	.word	0x20001140
 8003044:	20000378 	.word	0x20000378

08003048 <clear_fix_data>:
 8003048:	4b03      	ldr	r3, [pc, #12]	; (8003058 <clear_fix_data+0x10>)
 800304a:	2248      	movs	r2, #72	; 0x48
 800304c:	fb02 3000 	mla	r0, r2, r0, r3
 8003050:	2300      	movs	r3, #0
 8003052:	82c3      	strh	r3, [r0, #22]
 8003054:	8343      	strh	r3, [r0, #26]
 8003056:	4770      	bx	lr
 8003058:	20000378 	.word	0x20000378
 800305c:	00000000 	.word	0x00000000

08003060 <calc_relative_position>:
 8003060:	e92d 4ff0 	stmdb	sp!, {r4, r5, r6, r7, r8, r9, sl, fp, lr}
 8003064:	4cb4      	ldr	r4, [pc, #720]	; (8003338 <calc_relative_position+0x2d8>)
 8003066:	4682      	mov	sl, r0
 8003068:	f894 0025 	ldrb.w	r0, [r4, #37]	; 0x25
 800306c:	b08d      	sub	sp, #52	; 0x34
 800306e:	0600      	lsls	r0, r0, #24
 8003070:	f7fd fa28 	bl	80004c4 <__aeabi_i2d>
 8003074:	4606      	mov	r6, r0
 8003076:	f894 0024 	ldrb.w	r0, [r4, #36]	; 0x24
 800307a:	0400      	lsls	r0, r0, #16
 800307c:	460f      	mov	r7, r1
 800307e:	f7fd fa21 	bl	80004c4 <__aeabi_i2d>
 8003082:	4602      	mov	r2, r0
 8003084:	460b      	mov	r3, r1
 8003086:	4630      	mov	r0, r6
 8003088:	4639      	mov	r1, r7
 800308a:	f7fd f8cf 	bl	800022c <__adddf3>
 800308e:	4606      	mov	r6, r0
 8003090:	f894 0023 	ldrb.w	r0, [r4, #35]	; 0x23
 8003094:	0200      	lsls	r0, r0, #8
 8003096:	460f      	mov	r7, r1
 8003098:	f7fd fa14 	bl	80004c4 <__aeabi_i2d>
 800309c:	4602      	mov	r2, r0
 800309e:	460b      	mov	r3, r1
 80030a0:	4630      	mov	r0, r6
 80030a2:	4639      	mov	r1, r7
 80030a4:	f7fd f8c2 	bl	800022c <__adddf3>
 80030a8:	4606      	mov	r6, r0
 80030aa:	f894 0022 	ldrb.w	r0, [r4, #34]	; 0x22
 80030ae:	460f      	mov	r7, r1
 80030b0:	f7fd fa08 	bl	80004c4 <__aeabi_i2d>
 80030b4:	4602      	mov	r2, r0
 80030b6:	460b      	mov	r3, r1
 80030b8:	4630      	mov	r0, r6
 80030ba:	4639      	mov	r1, r7
 80030bc:	f7fd f8b6 	bl	800022c <__adddf3>
 80030c0:	a393      	add	r3, pc, #588	; (adr r3, 8003310 <calc_relative_position+0x2b0>)
 80030c2:	e9d3 2300 	ldrd	r2, r3, [r3]
 80030c6:	f7fd fb91 	bl	80007ec <__aeabi_ddiv>
 80030ca:	a393      	add	r3, pc, #588	; (adr r3, 8003318 <calc_relative_position+0x2b8>)
 80030cc:	e9d3 2300 	ldrd	r2, r3, [r3]
 80030d0:	f7fd fa62 	bl	8000598 <__aeabi_dmul>
 80030d4:	e9cd 0100 	strd	r0, r1, [sp]
 80030d8:	f894 0021 	ldrb.w	r0, [r4, #33]	; 0x21
 80030dc:	0600      	lsls	r0, r0, #24
 80030de:	f7fd f9f1 	bl	80004c4 <__aeabi_i2d>
 80030e2:	4606      	mov	r6, r0
 80030e4:	f894 0020 	ldrb.w	r0, [r4, #32]
 80030e8:	0400      	lsls	r0, r0, #16
 80030ea:	460f      	mov	r7, r1
 80030ec:	f7fd f9ea 	bl	80004c4 <__aeabi_i2d>
 80030f0:	4602      	mov	r2, r0
 80030f2:	460b      	mov	r3, r1
 80030f4:	4630      	mov	r0, r6
 80030f6:	4639      	mov	r1, r7
 80030f8:	f7fd f898 	bl	800022c <__adddf3>
 80030fc:	4606      	mov	r6, r0
 80030fe:	7fe0      	ldrb	r0, [r4, #31]
 8003100:	0200      	lsls	r0, r0, #8
 8003102:	460f      	mov	r7, r1
 8003104:	f7fd f9de 	bl	80004c4 <__aeabi_i2d>
 8003108:	4602      	mov	r2, r0
 800310a:	460b      	mov	r3, r1
 800310c:	4630      	mov	r0, r6
 800310e:	4639      	mov	r1, r7
 8003110:	f7fd f88c 	bl	800022c <__adddf3>
 8003114:	4606      	mov	r6, r0
 8003116:	7fa0      	ldrb	r0, [r4, #30]
 8003118:	460f      	mov	r7, r1
 800311a:	f7fd f9d3 	bl	80004c4 <__aeabi_i2d>
 800311e:	4602      	mov	r2, r0
 8003120:	460b      	mov	r3, r1
 8003122:	4630      	mov	r0, r6
 8003124:	4639      	mov	r1, r7
 8003126:	f7fd f881 	bl	800022c <__adddf3>
 800312a:	a379      	add	r3, pc, #484	; (adr r3, 8003310 <calc_relative_position+0x2b0>)
 800312c:	e9d3 2300 	ldrd	r2, r3, [r3]
 8003130:	f7fd fb5c 	bl	80007ec <__aeabi_ddiv>
 8003134:	a378      	add	r3, pc, #480	; (adr r3, 8003318 <calc_relative_position+0x2b8>)
 8003136:	e9d3 2300 	ldrd	r2, r3, [r3]
 800313a:	f7fd fa2d 	bl	8000598 <__aeabi_dmul>
 800313e:	4b7f      	ldr	r3, [pc, #508]	; (800333c <calc_relative_position+0x2dc>)
 8003140:	681b      	ldr	r3, [r3, #0]
 8003142:	f853 402a 	ldr.w	r4, [r3, sl, lsl #2]
 8003146:	e9cd 0106 	strd	r0, r1, [sp, #24]
 800314a:	6a20      	ldr	r0, [r4, #32]
 800314c:	f7fd f9ba 	bl	80004c4 <__aeabi_i2d>
 8003150:	a36f      	add	r3, pc, #444	; (adr r3, 8003310 <calc_relative_position+0x2b0>)
 8003152:	e9d3 2300 	ldrd	r2, r3, [r3]
 8003156:	f7fd fb49 	bl	80007ec <__aeabi_ddiv>
 800315a:	a36f      	add	r3, pc, #444	; (adr r3, 8003318 <calc_relative_position+0x2b8>)
 800315c:	e9d3 2300 	ldrd	r2, r3, [r3]
 8003160:	f7fd fa1a 	bl	8000598 <__aeabi_dmul>
 8003164:	4680      	mov	r8, r0
 8003166:	6a60      	ldr	r0, [r4, #36]	; 0x24
 8003168:	4689      	mov	r9, r1
 800316a:	f7fd f9ab 	bl	80004c4 <__aeabi_i2d>
 800316e:	a368      	add	r3, pc, #416	; (adr r3, 8003310 <calc_relative_position+0x2b0>)
 8003170:	e9d3 2300 	ldrd	r2, r3, [r3]
 8003174:	f7fd fb3a 	bl	80007ec <__aeabi_ddiv>
 8003178:	a367      	add	r3, pc, #412	; (adr r3, 8003318 <calc_relative_position+0x2b8>)
 800317a:	e9d3 2300 	ldrd	r2, r3, [r3]
 800317e:	f7fd fa0b 	bl	8000598 <__aeabi_dmul>
 8003182:	e9dd 2300 	ldrd	r2, r3, [sp]
 8003186:	e9cd 0108 	strd	r0, r1, [sp, #32]
 800318a:	4640      	mov	r0, r8
 800318c:	4649      	mov	r1, r9
 800318e:	f7fd f84b 	bl	8000228 <__aeabi_dsub>
 8003192:	4604      	mov	r4, r0
 8003194:	460d      	mov	r5, r1
 8003196:	e9dd 0100 	ldrd	r0, r1, [sp]
 800319a:	f009 ff75 	bl	800d088 <cos>
 800319e:	e9dd 2306 	ldrd	r2, r3, [sp, #24]
 80031a2:	e9cd 0104 	strd	r0, r1, [sp, #16]
 80031a6:	e9dd 0108 	ldrd	r0, r1, [sp, #32]
 80031aa:	f7fd f83d 	bl	8000228 <__aeabi_dsub>
 80031ae:	4602      	mov	r2, r0
 80031b0:	460b      	mov	r3, r1
 80031b2:	e9cd 0102 	strd	r0, r1, [sp, #8]
 80031b6:	e9dd 0104 	ldrd	r0, r1, [sp, #16]
 80031ba:	f7fd f9ed 	bl	8000598 <__aeabi_dmul>
 80031be:	4622      	mov	r2, r4
 80031c0:	4606      	mov	r6, r0
 80031c2:	460f      	mov	r7, r1
 80031c4:	462b      	mov	r3, r5
 80031c6:	4620      	mov	r0, r4
 80031c8:	4629      	mov	r1, r5
 80031ca:	f7fd f9e5 	bl	8000598 <__aeabi_dmul>
 80031ce:	4632      	mov	r2, r6
 80031d0:	4604      	mov	r4, r0
 80031d2:	460d      	mov	r5, r1
 80031d4:	463b      	mov	r3, r7
 80031d6:	4630      	mov	r0, r6
 80031d8:	4639      	mov	r1, r7
 80031da:	f7fd f9dd 	bl	8000598 <__aeabi_dmul>
 80031de:	4602      	mov	r2, r0
 80031e0:	460b      	mov	r3, r1
 80031e2:	4620      	mov	r0, r4
 80031e4:	4629      	mov	r1, r5
 80031e6:	f7fd f821 	bl	800022c <__adddf3>
 80031ea:	f009 ffdb 	bl	800d1a4 <sqrt>
 80031ee:	4b54      	ldr	r3, [pc, #336]	; (8003340 <calc_relative_position+0x2e0>)
 80031f0:	eb03 04ca 	add.w	r4, r3, sl, lsl #3
 80031f4:	a34a      	add	r3, pc, #296	; (adr r3, 8003320 <calc_relative_position+0x2c0>)
 80031f6:	e9d3 2300 	ldrd	r2, r3, [r3]
 80031fa:	f7fd f9cd 	bl	8000598 <__aeabi_dmul>
 80031fe:	e9c4 0100 	strd	r0, r1, [r4]
 8003202:	4640      	mov	r0, r8
 8003204:	4649      	mov	r1, r9
 8003206:	f009 ff3f 	bl	800d088 <cos>
 800320a:	4606      	mov	r6, r0
 800320c:	460f      	mov	r7, r1
 800320e:	e9dd 0102 	ldrd	r0, r1, [sp, #8]
 8003212:	f009 ff7f 	bl	800d114 <sin>
 8003216:	e9cd 010a 	strd	r0, r1, [sp, #40]	; 0x28
 800321a:	4640      	mov	r0, r8
 800321c:	4649      	mov	r1, r9
 800321e:	f009 ff79 	bl	800d114 <sin>
 8003222:	4604      	mov	r4, r0
 8003224:	460d      	mov	r5, r1
 8003226:	e9dd 0100 	ldrd	r0, r1, [sp]
 800322a:	f009 ff73 	bl	800d114 <sin>
 800322e:	4680      	mov	r8, r0
 8003230:	4689      	mov	r9, r1
 8003232:	e9dd 0102 	ldrd	r0, r1, [sp, #8]
 8003236:	f009 ff27 	bl	800d088 <cos>
 800323a:	4622      	mov	r2, r4
 800323c:	462b      	mov	r3, r5
 800323e:	e9cd 0100 	strd	r0, r1, [sp]
 8003242:	e9dd 0104 	ldrd	r0, r1, [sp, #16]
 8003246:	f7fd f9a7 	bl	8000598 <__aeabi_dmul>
 800324a:	4642      	mov	r2, r8
 800324c:	4604      	mov	r4, r0
 800324e:	460d      	mov	r5, r1
 8003250:	464b      	mov	r3, r9
 8003252:	4630      	mov	r0, r6
 8003254:	4639      	mov	r1, r7
 8003256:	f7fd f99f 	bl	8000598 <__aeabi_dmul>
 800325a:	e9dd 2300 	ldrd	r2, r3, [sp]
 800325e:	f7fd f99b 	bl	8000598 <__aeabi_dmul>
 8003262:	4602      	mov	r2, r0
 8003264:	460b      	mov	r3, r1
 8003266:	4620      	mov	r0, r4
 8003268:	4629      	mov	r1, r5
 800326a:	f7fc ffdd 	bl	8000228 <__aeabi_dsub>
 800326e:	e9dd 230a 	ldrd	r2, r3, [sp, #40]	; 0x28
 8003272:	4604      	mov	r4, r0
 8003274:	460d      	mov	r5, r1
 8003276:	4630      	mov	r0, r6
 8003278:	4639      	mov	r1, r7
 800327a:	f7fd f98d 	bl	8000598 <__aeabi_dmul>
 800327e:	4622      	mov	r2, r4
 8003280:	462b      	mov	r3, r5
 8003282:	f009 ff8d 	bl	800d1a0 <atan2>
 8003286:	4e2f      	ldr	r6, [pc, #188]	; (8003344 <calc_relative_position+0x2e4>)
 8003288:	ea4f 0bca 	mov.w	fp, sl, lsl #3
 800328c:	4604      	mov	r4, r0
 800328e:	460d      	mov	r5, r1
 8003290:	eb06 070b 	add.w	r7, r6, fp
 8003294:	a324      	add	r3, pc, #144	; (adr r3, 8003328 <calc_relative_position+0x2c8>)
 8003296:	e9d3 2300 	ldrd	r2, r3, [r3]
 800329a:	e9c7 4500 	strd	r4, r5, [r7]
 800329e:	f7fd f97b 	bl	8000598 <__aeabi_dmul>
 80032a2:	f7fd fc29 	bl	8000af8 <__aeabi_d2iz>
 80032a6:	4b28      	ldr	r3, [pc, #160]	; (8003348 <calc_relative_position+0x2e8>)
 80032a8:	f823 001a 	strh.w	r0, [r3, sl, lsl #1]
 80032ac:	e9dd 2308 	ldrd	r2, r3, [sp, #32]
 80032b0:	e9dd 0106 	ldrd	r0, r1, [sp, #24]
 80032b4:	f7fd fc00 	bl	8000ab8 <__aeabi_dcmpgt>
 80032b8:	b140      	cbz	r0, 80032cc <calc_relative_position+0x26c>
 80032ba:	a31d      	add	r3, pc, #116	; (adr r3, 8003330 <calc_relative_position+0x2d0>)
 80032bc:	e9d3 2300 	ldrd	r2, r3, [r3]
 80032c0:	4620      	mov	r0, r4
 80032c2:	4629      	mov	r1, r5
 80032c4:	f7fc ffb2 	bl	800022c <__adddf3>
 80032c8:	e9c7 0100 	strd	r0, r1, [r7]
 80032cc:	4b1c      	ldr	r3, [pc, #112]	; (8003340 <calc_relative_position+0x2e0>)
 80032ce:	2400      	movs	r4, #0
 80032d0:	eb03 010b 	add.w	r1, r3, fp
 80032d4:	2500      	movs	r5, #0
 80032d6:	e9d1 0100 	ldrd	r0, r1, [r1]
 80032da:	4622      	mov	r2, r4
 80032dc:	462b      	mov	r3, r5
 80032de:	f7fd fbc3 	bl	8000a68 <__aeabi_dcmpeq>
 80032e2:	b118      	cbz	r0, 80032ec <calc_relative_position+0x28c>
 80032e4:	eb06 030b 	add.w	r3, r6, fp
 80032e8:	e9c3 4500 	strd	r4, r5, [r3]
 80032ec:	445e      	add	r6, fp
 80032ee:	a30e      	add	r3, pc, #56	; (adr r3, 8003328 <calc_relative_position+0x2c8>)
 80032f0:	e9d3 2300 	ldrd	r2, r3, [r3]
 80032f4:	e9d6 0100 	ldrd	r0, r1, [r6]
 80032f8:	f7fd f94e 	bl	8000598 <__aeabi_dmul>
 80032fc:	f7fd fbfc 	bl	8000af8 <__aeabi_d2iz>
 8003300:	4b12      	ldr	r3, [pc, #72]	; (800334c <calc_relative_position+0x2ec>)
 8003302:	f823 001a 	strh.w	r0, [r3, sl, lsl #1]
 8003306:	b00d      	add	sp, #52	; 0x34
 8003308:	e8bd 8ff0 	ldmia.w	sp!, {r4, r5, r6, r7, r8, r9, sl, fp, pc}
 800330c:	f3af 8000 	nop.w
 8003310:	00000000 	.word	0x00000000
 8003314:	416312d0 	.word	0x416312d0
 8003318:	a2529d3a 	.word	0xa2529d3a
 800331c:	3f91df46 	.word	0x3f91df46
 8003320:	00000000 	.word	0x00000000
 8003324:	41584db0 	.word	0x41584db0
 8003328:	1a63c1f8 	.word	0x1a63c1f8
 800332c:	404ca5dc 	.word	0x404ca5dc
 8003330:	54442d18 	.word	0x54442d18
 8003334:	401921fb 	.word	0x401921fb
 8003338:	200010c0 	.word	0x200010c0
 800333c:	20000574 	.word	0x20000574
 8003340:	20000528 	.word	0x20000528
 8003344:	20000348 	.word	0x20000348
 8003348:	20000330 	.word	0x20000330
 800334c:	2000033c 	.word	0x2000033c

08003350 <getADC_sensors>:
 8003350:	b538      	push	{r3, r4, r5, lr}
 8003352:	4604      	mov	r4, r0
 8003354:	f7fe ff54 	bl	8002200 <SYS_GetBatteryLevel>
 8003358:	4605      	mov	r5, r0
 800335a:	f7fe ffa9 	bl	80022b0 <GetChannelLevel>
 800335e:	4b0f      	ldr	r3, [pc, #60]	; (800339c <getADC_sensors+0x4c>)
 8003360:	2248      	movs	r2, #72	; 0x48
 8003362:	fb02 3404 	mla	r4, r2, r4, r3
 8003366:	210a      	movs	r1, #10
 8003368:	fb05 f300 	mul.w	r3, r5, r0
 800336c:	fbb5 f2f1 	udiv	r2, r5, r1
 8003370:	f640 0005 	movw	r0, #2053	; 0x805
 8003374:	3a0e      	subs	r2, #14
 8003376:	fbb3 f3f0 	udiv	r3, r3, r0
 800337a:	fbb3 f3f1 	udiv	r3, r3, r1
 800337e:	3b0e      	subs	r3, #14
 8003380:	f884 2040 	strb.w	r2, [r4, #64]	; 0x40
 8003384:	f884 3041 	strb.w	r3, [r4, #65]	; 0x41
 8003388:	f7fe ff54 	bl	8002234 <SYS_GetTemperatureLevel>
 800338c:	2800      	cmp	r0, #0
 800338e:	bfb8      	it	lt
 8003390:	30ff      	addlt	r0, #255	; 0xff
 8003392:	1200      	asrs	r0, r0, #8
 8003394:	f884 0042 	strb.w	r0, [r4, #66]	; 0x42
 8003398:	bd38      	pop	{r3, r4, r5, pc}
 800339a:	bf00      	nop
 800339c:	20000378 	.word	0x20000378

080033a0 <shortBeeps>:
 80033a0:	4b01      	ldr	r3, [pc, #4]	; (80033a8 <shortBeeps+0x8>)
 80033a2:	7258      	strb	r0, [r3, #9]
 80033a4:	4770      	bx	lr
 80033a6:	bf00      	nop
 80033a8:	20000578 	.word	0x20000578

080033ac <SystemClock_Config>:
 80033ac:	b530      	push	{r4, r5, lr}
 80033ae:	b09b      	sub	sp, #108	; 0x6c
 80033b0:	2248      	movs	r2, #72	; 0x48
 80033b2:	2100      	movs	r1, #0
 80033b4:	a808      	add	r0, sp, #32
 80033b6:	f008 fc69 	bl	800bc8c <memset>
 80033ba:	2218      	movs	r2, #24
 80033bc:	2100      	movs	r1, #0
 80033be:	a802      	add	r0, sp, #8
 80033c0:	f008 fc64 	bl	800bc8c <memset>
 80033c4:	f003 fc7e 	bl	8006cc4 <HAL_PWR_EnableBkUpAccess>
 80033c8:	f04f 42b0 	mov.w	r2, #1476395008	; 0x58000000
 80033cc:	2010      	movs	r0, #16
 80033ce:	f8d2 3090 	ldr.w	r3, [r2, #144]	; 0x90
 80033d2:	f023 0318 	bic.w	r3, r3, #24
 80033d6:	f8c2 3090 	str.w	r3, [r2, #144]	; 0x90
 80033da:	f8d2 3400 	ldr.w	r3, [r2, #1024]	; 0x400
 80033de:	f423 63c0 	bic.w	r3, r3, #1536	; 0x600
 80033e2:	f443 7300 	orr.w	r3, r3, #512	; 0x200
 80033e6:	f8c2 3400 	str.w	r3, [r2, #1024]	; 0x400
 80033ea:	f8d2 3400 	ldr.w	r3, [r2, #1024]	; 0x400
 80033ee:	f403 63c0 	and.w	r3, r3, #1536	; 0x600
 80033f2:	9301      	str	r3, [sp, #4]
 80033f4:	9b01      	ldr	r3, [sp, #4]
 80033f6:	220d      	movs	r2, #13
 80033f8:	f44f 1304 	mov.w	r3, #2162688	; 0x210000
 80033fc:	e9cd 2308 	strd	r2, r3, [sp, #32]
 8003400:	2381      	movs	r3, #129	; 0x81
 8003402:	930b      	str	r3, [sp, #44]	; 0x2c
 8003404:	2300      	movs	r3, #0
 8003406:	930f      	str	r3, [sp, #60]	; 0x3c
 8003408:	930a      	str	r3, [sp, #40]	; 0x28
 800340a:	2301      	movs	r3, #1
 800340c:	930e      	str	r3, [sp, #56]	; 0x38
 800340e:	2306      	movs	r3, #6
 8003410:	e9cd 0315 	strd	r0, r3, [sp, #84]	; 0x54
 8003414:	f44f 3300 	mov.w	r3, #131072	; 0x20000
 8003418:	2402      	movs	r4, #2
 800341a:	2503      	movs	r5, #3
 800341c:	9317      	str	r3, [sp, #92]	; 0x5c
 800341e:	f04f 5e00 	mov.w	lr, #536870912	; 0x20000000
 8003422:	f04f 7300 	mov.w	r3, #33554432	; 0x2000000
 8003426:	a808      	add	r0, sp, #32
 8003428:	e9cd 4513 	strd	r4, r5, [sp, #76]	; 0x4c
 800342c:	e9cd 3e18 	strd	r3, lr, [sp, #96]	; 0x60
 8003430:	f003 fd62 	bl	8006ef8 <HAL_RCC_OscConfig>
 8003434:	b108      	cbz	r0, 800343a <SystemClock_Config+0x8e>
 8003436:	b672      	cpsid	i
 8003438:	e7fe      	b.n	8003438 <SystemClock_Config+0x8c>
 800343a:	e9cd 0004 	strd	r0, r0, [sp, #16]
 800343e:	e9cd 0006 	strd	r0, r0, [sp, #24]
 8003442:	234f      	movs	r3, #79	; 0x4f
 8003444:	4621      	mov	r1, r4
 8003446:	a802      	add	r0, sp, #8
 8003448:	e9cd 3502 	strd	r3, r5, [sp, #8]
 800344c:	f003 fff4 	bl	8007438 <HAL_RCC_ClockConfig>
 8003450:	b108      	cbz	r0, 8003456 <SystemClock_Config+0xaa>
 8003452:	b672      	cpsid	i
 8003454:	e7fe      	b.n	8003454 <SystemClock_Config+0xa8>
 8003456:	b01b      	add	sp, #108	; 0x6c
 8003458:	bd30      	pop	{r4, r5, pc}
	...

0800345c <main>:
 800345c:	4c60      	ldr	r4, [pc, #384]	; (80035e0 <main+0x184>)
 800345e:	b580      	push	{r7, lr}
 8003460:	f002 fe66 	bl	8006130 <HAL_Init>
 8003464:	f7ff ffa2 	bl	80033ac <SystemClock_Config>
 8003468:	f7ff fbd6 	bl	8002c18 <MX_GPIO_Init>
 800346c:	f002 fb52 	bl	8005b14 <SystemApp_Init>
 8003470:	f002 fb7e 	bl	8005b70 <MX_TIM1_Init>
 8003474:	f002 fbb6 	bl	8005be4 <MX_TIM2_Init>
 8003478:	f002 fbec 	bl	8005c54 <MX_TIM16_Init>
 800347c:	f002 fc06 	bl	8005c8c <MX_TIM17_Init>
 8003480:	f7fe fe16 	bl	80020b0 <MX_ADC_Init>
 8003484:	f002 fa70 	bl	8005968 <MX_SPI2_Init>
 8003488:	f002 fd30 	bl	8005eec <MX_USART2_UART_Init>
 800348c:	4620      	mov	r0, r4
 800348e:	f005 f953 	bl	8008738 <HAL_TIM_Base_Stop_IT>
 8003492:	6823      	ldr	r3, [r4, #0]
 8003494:	4853      	ldr	r0, [pc, #332]	; (80035e4 <main+0x188>)
 8003496:	f06f 0201 	mvn.w	r2, #1
 800349a:	2400      	movs	r4, #0
 800349c:	625c      	str	r4, [r3, #36]	; 0x24
 800349e:	611a      	str	r2, [r3, #16]
 80034a0:	f005 f94a 	bl	8008738 <HAL_TIM_Base_Stop_IT>
 80034a4:	4850      	ldr	r0, [pc, #320]	; (80035e8 <main+0x18c>)
 80034a6:	f005 f947 	bl	8008738 <HAL_TIM_Base_Stop_IT>
 80034aa:	f7fe ff11 	bl	80022d0 <disable_buttons_interrupts>
 80034ae:	4a4f      	ldr	r2, [pc, #316]	; (80035ec <main+0x190>)
 80034b0:	f8d2 3080 	ldr.w	r3, [r2, #128]	; 0x80
 80034b4:	f023 0310 	bic.w	r3, r3, #16
 80034b8:	f8c2 3080 	str.w	r3, [r2, #128]	; 0x80
 80034bc:	f7ff fc82 	bl	8002dc4 <hold_power>
 80034c0:	f7ff fca4 	bl	8002e0c <led_w_off>
 80034c4:	f7ff fc68 	bl	8002d98 <led_red_off>
 80034c8:	f7ff fc6c 	bl	8002da4 <led_green_off>
 80034cc:	f7ff fc6c 	bl	8002da8 <led_blue_on>
 80034d0:	f04f 43b0 	mov.w	r3, #1476395008	; 0x58000000
 80034d4:	f8d3 2094 	ldr.w	r2, [r3, #148]	; 0x94
 80034d8:	00d6      	lsls	r6, r2, #3
 80034da:	d412      	bmi.n	8003502 <main+0xa6>
 80034dc:	f7ff fc7a 	bl	8002dd4 <release_power>
 80034e0:	f44f 707a 	mov.w	r0, #1000	; 0x3e8
 80034e4:	f002 fb30 	bl	8005b48 <HAL_Delay>
 80034e8:	f3bf 8f4f 	dsb	sy
 80034ec:	4940      	ldr	r1, [pc, #256]	; (80035f0 <main+0x194>)
 80034ee:	4b41      	ldr	r3, [pc, #260]	; (80035f4 <main+0x198>)
 80034f0:	68ca      	ldr	r2, [r1, #12]
 80034f2:	f402 62e0 	and.w	r2, r2, #1792	; 0x700
 80034f6:	4313      	orrs	r3, r2
 80034f8:	60cb      	str	r3, [r1, #12]
 80034fa:	f3bf 8f4f 	dsb	sy
 80034fe:	bf00      	nop
 8003500:	e7fd      	b.n	80034fe <main+0xa2>
 8003502:	f8d3 2094 	ldr.w	r2, [r3, #148]	; 0x94
 8003506:	f442 0200 	orr.w	r2, r2, #8388608	; 0x800000
 800350a:	f8c3 2094 	str.w	r2, [r3, #148]	; 0x94
 800350e:	f7ff fc77 	bl	8002e00 <led_w_on>
 8003512:	200a      	movs	r0, #10
 8003514:	f002 fb18 	bl	8005b48 <HAL_Delay>
 8003518:	f7ff fc78 	bl	8002e0c <led_w_off>
 800351c:	f002 f960 	bl	80057e0 <settings_load>
 8003520:	f7ff fcae 	bl	8002e80 <init_lrns>
 8003524:	4620      	mov	r0, r4
 8003526:	f7fd fdf3 	bl	8001110 <ST7735_Init>
 800352a:	4620      	mov	r0, r4
 800352c:	f7fe fc84 	bl	8001e38 <fillScreen>
 8003530:	f04f 4390 	mov.w	r3, #1207959552	; 0x48000000
 8003534:	4c30      	ldr	r4, [pc, #192]	; (80035f8 <main+0x19c>)
 8003536:	691a      	ldr	r2, [r3, #16]
 8003538:	f012 0f20 	tst.w	r2, #32
 800353c:	d11a      	bne.n	8003574 <main+0x118>
 800353e:	691b      	ldr	r3, [r3, #16]
 8003540:	079d      	lsls	r5, r3, #30
 8003542:	d517      	bpl.n	8003574 <main+0x118>
 8003544:	2301      	movs	r3, #1
 8003546:	7323      	strb	r3, [r4, #12]
 8003548:	f7ff fb10 	bl	8002b6c <init_gnss>
 800354c:	4e2b      	ldr	r6, [pc, #172]	; (80035fc <main+0x1a0>)
 800354e:	2500      	movs	r5, #0
 8003550:	2701      	movs	r7, #1
 8003552:	f994 3002 	ldrsb.w	r3, [r4, #2]
 8003556:	2b00      	cmp	r3, #0
 8003558:	d03c      	beq.n	80035d4 <main+0x178>
 800355a:	f994 3000 	ldrsb.w	r3, [r4]
 800355e:	2b00      	cmp	r3, #0
 8003560:	d038      	beq.n	80035d4 <main+0x178>
 8003562:	7830      	ldrb	r0, [r6, #0]
 8003564:	f001 fc82 	bl	8004e6c <change_menu>
 8003568:	70a5      	strb	r5, [r4, #2]
 800356a:	7127      	strb	r7, [r4, #4]
 800356c:	f001 fcf0 	bl	8004f50 <draw_current_menu>
 8003570:	7125      	strb	r5, [r4, #4]
 8003572:	e032      	b.n	80035da <main+0x17e>
 8003574:	f04f 4390 	mov.w	r3, #1207959552	; 0x48000000
 8003578:	691a      	ldr	r2, [r3, #16]
 800357a:	0790      	lsls	r0, r2, #30
 800357c:	d408      	bmi.n	8003590 <main+0x134>
 800357e:	691b      	ldr	r3, [r3, #16]
 8003580:	0699      	lsls	r1, r3, #26
 8003582:	d505      	bpl.n	8003590 <main+0x134>
 8003584:	4b1e      	ldr	r3, [pc, #120]	; (8003600 <main+0x1a4>)
 8003586:	2201      	movs	r2, #1
 8003588:	701a      	strb	r2, [r3, #0]
 800358a:	f008 f95b 	bl	800b844 <SubghzApp_Init>
 800358e:	e7dd      	b.n	800354c <main+0xf0>
 8003590:	f04f 4390 	mov.w	r3, #1207959552	; 0x48000000
 8003594:	691a      	ldr	r2, [r3, #16]
 8003596:	0792      	lsls	r2, r2, #30
 8003598:	d402      	bmi.n	80035a0 <main+0x144>
 800359a:	691b      	ldr	r3, [r3, #16]
 800359c:	069b      	lsls	r3, r3, #26
 800359e:	d5d5      	bpl.n	800354c <main+0xf0>
 80035a0:	f008 f950 	bl	800b844 <SubghzApp_Init>
 80035a4:	f7ff fae2 	bl	8002b6c <init_gnss>
 80035a8:	f7fe fe8a 	bl	80022c0 <enable_buttons_interrupts>
 80035ac:	4a0f      	ldr	r2, [pc, #60]	; (80035ec <main+0x190>)
 80035ae:	f8d2 3080 	ldr.w	r3, [r2, #128]	; 0x80
 80035b2:	f043 0310 	orr.w	r3, r3, #16
 80035b6:	f8c2 3080 	str.w	r3, [r2, #128]	; 0x80
 80035ba:	4a12      	ldr	r2, [pc, #72]	; (8003604 <main+0x1a8>)
 80035bc:	6813      	ldr	r3, [r2, #0]
 80035be:	f023 0320 	bic.w	r3, r3, #32
 80035c2:	6013      	str	r3, [r2, #0]
 80035c4:	f001 fbd4 	bl	8004d70 <init_menu>
 80035c8:	2301      	movs	r3, #1
 80035ca:	4805      	ldr	r0, [pc, #20]	; (80035e0 <main+0x184>)
 80035cc:	7123      	strb	r3, [r4, #4]
 80035ce:	f005 f88d 	bl	80086ec <HAL_TIM_Base_Start_IT>
 80035d2:	e7bb      	b.n	800354c <main+0xf0>
 80035d4:	7923      	ldrb	r3, [r4, #4]
 80035d6:	2b00      	cmp	r3, #0
 80035d8:	d1c8      	bne.n	800356c <main+0x110>
 80035da:	bf00      	nop
 80035dc:	e7b9      	b.n	8003552 <main+0xf6>
 80035de:	bf00      	nop
 80035e0:	20000a34 	.word	0x20000a34
 80035e4:	20000b18 	.word	0x20000b18
 80035e8:	20000a80 	.word	0x20000a80
 80035ec:	58000800 	.word	0x58000800
 80035f0:	e000ed00 	.word	0xe000ed00
 80035f4:	05fa0004 	.word	0x05fa0004
 80035f8:	20000578 	.word	0x20000578
 80035fc:	2000115c 	.word	0x2000115c
 8003600:	200011fb 	.word	0x200011fb
 8003604:	40004400 	.word	0x40004400

08003608 <Error_Handler>:
 8003608:	b672      	cpsid	i
 800360a:	e7fe      	b.n	800360a <Error_Handler+0x2>

0800360c <__NVIC_SystemReset>:
 800360c:	f3bf 8f4f 	dsb	sy
 8003610:	4905      	ldr	r1, [pc, #20]	; (8003628 <__NVIC_SystemReset+0x1c>)
 8003612:	4b06      	ldr	r3, [pc, #24]	; (800362c <__NVIC_SystemReset+0x20>)
 8003614:	68ca      	ldr	r2, [r1, #12]
 8003616:	f402 62e0 	and.w	r2, r2, #1792	; 0x700
 800361a:	4313      	orrs	r3, r2
 800361c:	60cb      	str	r3, [r1, #12]
 800361e:	f3bf 8f4f 	dsb	sy
 8003622:	bf00      	nop
 8003624:	e7fd      	b.n	8003622 <__NVIC_SystemReset+0x16>
 8003626:	bf00      	nop
 8003628:	e000ed00 	.word	0xe000ed00
 800362c:	05fa0004 	.word	0x05fa0004

08003630 <navigation_up>:
 8003630:	4a04      	ldr	r2, [pc, #16]	; (8003644 <navigation_up+0x14>)
 8003632:	7813      	ldrb	r3, [r2, #0]
 8003634:	2b06      	cmp	r3, #6
 8003636:	bf1a      	itte	ne
 8003638:	3301      	addne	r3, #1
 800363a:	b2db      	uxtbne	r3, r3
 800363c:	2300      	moveq	r3, #0
 800363e:	7013      	strb	r3, [r2, #0]
 8003640:	4770      	bx	lr
 8003642:	bf00      	nop
 8003644:	20000920 	.word	0x20000920

08003648 <navigation_down>:
 8003648:	4a04      	ldr	r2, [pc, #16]	; (800365c <navigation_down+0x14>)
 800364a:	7813      	ldrb	r3, [r2, #0]
 800364c:	b11b      	cbz	r3, 8003656 <navigation_down+0xe>
 800364e:	3b01      	subs	r3, #1
 8003650:	b2db      	uxtb	r3, r3
 8003652:	7013      	strb	r3, [r2, #0]
 8003654:	4770      	bx	lr
 8003656:	2306      	movs	r3, #6
 8003658:	e7fb      	b.n	8003652 <navigation_down+0xa>
 800365a:	bf00      	nop
 800365c:	20000920 	.word	0x20000920

08003660 <navigation_ok>:
 8003660:	4b01      	ldr	r3, [pc, #4]	; (8003668 <navigation_ok+0x8>)
 8003662:	2202      	movs	r2, #2
 8003664:	701a      	strb	r2, [r3, #0]
 8003666:	4770      	bx	lr
 8003668:	200008e9 	.word	0x200008e9

0800366c <set_device_number_up>:
 800366c:	4a08      	ldr	r2, [pc, #32]	; (8003690 <set_device_number_up+0x24>)
 800366e:	7853      	ldrb	r3, [r2, #1]
 8003670:	7891      	ldrb	r1, [r2, #2]
 8003672:	428b      	cmp	r3, r1
 8003674:	d108      	bne.n	8003688 <set_device_number_up+0x1c>
 8003676:	2b05      	cmp	r3, #5
 8003678:	f04f 0101 	mov.w	r1, #1
 800367c:	bf0c      	ite	eq
 800367e:	2303      	moveq	r3, #3
 8003680:	3301      	addne	r3, #1
 8003682:	7051      	strb	r1, [r2, #1]
 8003684:	7093      	strb	r3, [r2, #2]
 8003686:	4770      	bx	lr
 8003688:	3301      	adds	r3, #1
 800368a:	7053      	strb	r3, [r2, #1]
 800368c:	4770      	bx	lr
 800368e:	bf00      	nop
 8003690:	20000926 	.word	0x20000926

08003694 <set_device_number_ok>:
 8003694:	4b0c      	ldr	r3, [pc, #48]	; (80036c8 <set_device_number_ok+0x34>)
 8003696:	f993 2000 	ldrsb.w	r2, [r3]
 800369a:	4b0c      	ldr	r3, [pc, #48]	; (80036cc <set_device_number_ok+0x38>)
 800369c:	6819      	ldr	r1, [r3, #0]
 800369e:	4b0c      	ldr	r3, [pc, #48]	; (80036d0 <set_device_number_ok+0x3c>)
 80036a0:	7888      	ldrb	r0, [r1, #2]
 80036a2:	7899      	ldrb	r1, [r3, #2]
 80036a4:	4288      	cmp	r0, r1
 80036a6:	d102      	bne.n	80036ae <set_device_number_ok+0x1a>
 80036a8:	785b      	ldrb	r3, [r3, #1]
 80036aa:	4293      	cmp	r3, r2
 80036ac:	d007      	beq.n	80036be <set_device_number_ok+0x2a>
 80036ae:	4909      	ldr	r1, [pc, #36]	; (80036d4 <set_device_number_ok+0x40>)
 80036b0:	2301      	movs	r3, #1
 80036b2:	700b      	strb	r3, [r1, #0]
 80036b4:	4908      	ldr	r1, [pc, #32]	; (80036d8 <set_device_number_ok+0x44>)
 80036b6:	6809      	ldr	r1, [r1, #0]
 80036b8:	f851 2022 	ldr.w	r2, [r1, r2, lsl #2]
 80036bc:	7553      	strb	r3, [r2, #21]
 80036be:	4b07      	ldr	r3, [pc, #28]	; (80036dc <set_device_number_ok+0x48>)
 80036c0:	2207      	movs	r2, #7
 80036c2:	701a      	strb	r2, [r3, #0]
 80036c4:	4770      	bx	lr
 80036c6:	bf00      	nop
 80036c8:	20000946 	.word	0x20000946
 80036cc:	20000914 	.word	0x20000914
 80036d0:	20000926 	.word	0x20000926
 80036d4:	200008fe 	.word	0x200008fe
 80036d8:	2000091c 	.word	0x2000091c
 80036dc:	200008e9 	.word	0x200008e9

080036e0 <set_device_number_esc>:
 80036e0:	4a05      	ldr	r2, [pc, #20]	; (80036f8 <set_device_number_esc+0x18>)
 80036e2:	4b06      	ldr	r3, [pc, #24]	; (80036fc <set_device_number_esc+0x1c>)
 80036e4:	7812      	ldrb	r2, [r2, #0]
 80036e6:	705a      	strb	r2, [r3, #1]
 80036e8:	4a05      	ldr	r2, [pc, #20]	; (8003700 <set_device_number_esc+0x20>)
 80036ea:	6812      	ldr	r2, [r2, #0]
 80036ec:	7892      	ldrb	r2, [r2, #2]
 80036ee:	709a      	strb	r2, [r3, #2]
 80036f0:	4b04      	ldr	r3, [pc, #16]	; (8003704 <set_device_number_esc+0x24>)
 80036f2:	2207      	movs	r2, #7
 80036f4:	701a      	strb	r2, [r3, #0]
 80036f6:	4770      	bx	lr
 80036f8:	20000946 	.word	0x20000946
 80036fc:	20000926 	.word	0x20000926
 8003700:	20000914 	.word	0x20000914
 8003704:	200008e9 	.word	0x200008e9

08003708 <set_spreading_factor_up>:
 8003708:	4a04      	ldr	r2, [pc, #16]	; (800371c <set_spreading_factor_up+0x14>)
 800370a:	78d3      	ldrb	r3, [r2, #3]
 800370c:	2b0b      	cmp	r3, #11
 800370e:	bf9a      	itte	ls
 8003710:	3301      	addls	r3, #1
 8003712:	b2db      	uxtbls	r3, r3
 8003714:	2307      	movhi	r3, #7
 8003716:	70d3      	strb	r3, [r2, #3]
 8003718:	4770      	bx	lr
 800371a:	bf00      	nop
 800371c:	20000926 	.word	0x20000926

08003720 <set_spreading_factor_down>:
 8003720:	4a04      	ldr	r2, [pc, #16]	; (8003734 <set_spreading_factor_down+0x14>)
 8003722:	78d3      	ldrb	r3, [r2, #3]
 8003724:	2b07      	cmp	r3, #7
 8003726:	bf86      	itte	hi
 8003728:	f103 33ff 	addhi.w	r3, r3, #4294967295	; 0xffffffff
 800372c:	b2db      	uxtbhi	r3, r3
 800372e:	230c      	movls	r3, #12
 8003730:	70d3      	strb	r3, [r2, #3]
 8003732:	4770      	bx	lr
 8003734:	20000926 	.word	0x20000926

08003738 <set_spreading_factor_ok>:
 8003738:	4b06      	ldr	r3, [pc, #24]	; (8003754 <set_spreading_factor_ok+0x1c>)
 800373a:	4a07      	ldr	r2, [pc, #28]	; (8003758 <set_spreading_factor_ok+0x20>)
 800373c:	681b      	ldr	r3, [r3, #0]
 800373e:	78d2      	ldrb	r2, [r2, #3]
 8003740:	78db      	ldrb	r3, [r3, #3]
 8003742:	429a      	cmp	r2, r3
 8003744:	bf1e      	ittt	ne
 8003746:	4b05      	ldrne	r3, [pc, #20]	; (800375c <set_spreading_factor_ok+0x24>)
 8003748:	2201      	movne	r2, #1
 800374a:	701a      	strbne	r2, [r3, #0]
 800374c:	4b04      	ldr	r3, [pc, #16]	; (8003760 <set_spreading_factor_ok+0x28>)
 800374e:	2207      	movs	r2, #7
 8003750:	701a      	strb	r2, [r3, #0]
 8003752:	4770      	bx	lr
 8003754:	20000914 	.word	0x20000914
 8003758:	20000926 	.word	0x20000926
 800375c:	200008fe 	.word	0x200008fe
 8003760:	200008e9 	.word	0x200008e9

08003764 <set_spreading_factor_esc>:
 8003764:	4b04      	ldr	r3, [pc, #16]	; (8003778 <set_spreading_factor_esc+0x14>)
 8003766:	681b      	ldr	r3, [r3, #0]
 8003768:	78da      	ldrb	r2, [r3, #3]
 800376a:	4b04      	ldr	r3, [pc, #16]	; (800377c <set_spreading_factor_esc+0x18>)
 800376c:	70da      	strb	r2, [r3, #3]
 800376e:	4b04      	ldr	r3, [pc, #16]	; (8003780 <set_spreading_factor_esc+0x1c>)
 8003770:	2207      	movs	r2, #7
 8003772:	701a      	strb	r2, [r3, #0]
 8003774:	4770      	bx	lr
 8003776:	bf00      	nop
 8003778:	20000914 	.word	0x20000914
 800377c:	20000926 	.word	0x20000926
 8003780:	200008e9 	.word	0x200008e9

08003784 <set_coding_rate_up>:
 8003784:	4a04      	ldr	r2, [pc, #16]	; (8003798 <set_coding_rate_up+0x14>)
 8003786:	7913      	ldrb	r3, [r2, #4]
 8003788:	2b04      	cmp	r3, #4
 800378a:	bf1a      	itte	ne
 800378c:	3301      	addne	r3, #1
 800378e:	b2db      	uxtbne	r3, r3
 8003790:	2301      	moveq	r3, #1
 8003792:	7113      	strb	r3, [r2, #4]
 8003794:	4770      	bx	lr
 8003796:	bf00      	nop
 8003798:	20000926 	.word	0x20000926

0800379c <set_coding_rate_down>:
 800379c:	4a04      	ldr	r2, [pc, #16]	; (80037b0 <set_coding_rate_down+0x14>)
 800379e:	7913      	ldrb	r3, [r2, #4]
 80037a0:	2b01      	cmp	r3, #1
 80037a2:	bf1a      	itte	ne
 80037a4:	f103 33ff 	addne.w	r3, r3, #4294967295	; 0xffffffff
 80037a8:	b2db      	uxtbne	r3, r3
 80037aa:	2304      	moveq	r3, #4
 80037ac:	7113      	strb	r3, [r2, #4]
 80037ae:	4770      	bx	lr
 80037b0:	20000926 	.word	0x20000926

080037b4 <set_coding_rate_ok>:
 80037b4:	4b06      	ldr	r3, [pc, #24]	; (80037d0 <set_coding_rate_ok+0x1c>)
 80037b6:	4a07      	ldr	r2, [pc, #28]	; (80037d4 <set_coding_rate_ok+0x20>)
 80037b8:	681b      	ldr	r3, [r3, #0]
 80037ba:	7912      	ldrb	r2, [r2, #4]
 80037bc:	791b      	ldrb	r3, [r3, #4]
 80037be:	429a      	cmp	r2, r3
 80037c0:	bf1e      	ittt	ne
 80037c2:	4b05      	ldrne	r3, [pc, #20]	; (80037d8 <set_coding_rate_ok+0x24>)
 80037c4:	2201      	movne	r2, #1
 80037c6:	701a      	strbne	r2, [r3, #0]
 80037c8:	4b04      	ldr	r3, [pc, #16]	; (80037dc <set_coding_rate_ok+0x28>)
 80037ca:	2207      	movs	r2, #7
 80037cc:	701a      	strb	r2, [r3, #0]
 80037ce:	4770      	bx	lr
 80037d0:	20000914 	.word	0x20000914
 80037d4:	20000926 	.word	0x20000926
 80037d8:	200008fe 	.word	0x200008fe
 80037dc:	200008e9 	.word	0x200008e9

080037e0 <set_coding_rate_esc>:
 80037e0:	4b04      	ldr	r3, [pc, #16]	; (80037f4 <set_coding_rate_esc+0x14>)
 80037e2:	681b      	ldr	r3, [r3, #0]
 80037e4:	791a      	ldrb	r2, [r3, #4]
 80037e6:	4b04      	ldr	r3, [pc, #16]	; (80037f8 <set_coding_rate_esc+0x18>)
 80037e8:	711a      	strb	r2, [r3, #4]
 80037ea:	4b04      	ldr	r3, [pc, #16]	; (80037fc <set_coding_rate_esc+0x1c>)
 80037ec:	2207      	movs	r2, #7
 80037ee:	701a      	strb	r2, [r3, #0]
 80037f0:	4770      	bx	lr
 80037f2:	bf00      	nop
 80037f4:	20000914 	.word	0x20000914
 80037f8:	20000926 	.word	0x20000926
 80037fc:	200008e9 	.word	0x200008e9

08003800 <set_freq_channel_up>:
 8003800:	4a04      	ldr	r2, [pc, #16]	; (8003814 <set_freq_channel_up+0x14>)
 8003802:	7953      	ldrb	r3, [r2, #5]
 8003804:	2b43      	cmp	r3, #67	; 0x43
 8003806:	bf9a      	itte	ls
 8003808:	3305      	addls	r3, #5
 800380a:	b2db      	uxtbls	r3, r3
 800380c:	2303      	movhi	r3, #3
 800380e:	7153      	strb	r3, [r2, #5]
 8003810:	4770      	bx	lr
 8003812:	bf00      	nop
 8003814:	20000926 	.word	0x20000926

08003818 <set_freq_channel_down>:
 8003818:	4a04      	ldr	r2, [pc, #16]	; (800382c <set_freq_channel_down+0x14>)
 800381a:	7953      	ldrb	r3, [r2, #5]
 800381c:	2b03      	cmp	r3, #3
 800381e:	bf86      	itte	hi
 8003820:	3b05      	subhi	r3, #5
 8003822:	b2db      	uxtbhi	r3, r3
 8003824:	2344      	movls	r3, #68	; 0x44
 8003826:	7153      	strb	r3, [r2, #5]
 8003828:	4770      	bx	lr
 800382a:	bf00      	nop
 800382c:	20000926 	.word	0x20000926

08003830 <set_freq_channel_ok>:
 8003830:	4b06      	ldr	r3, [pc, #24]	; (800384c <set_freq_channel_ok+0x1c>)
 8003832:	4a07      	ldr	r2, [pc, #28]	; (8003850 <set_freq_channel_ok+0x20>)
 8003834:	681b      	ldr	r3, [r3, #0]
 8003836:	7952      	ldrb	r2, [r2, #5]
 8003838:	795b      	ldrb	r3, [r3, #5]
 800383a:	429a      	cmp	r2, r3
 800383c:	bf1e      	ittt	ne
 800383e:	4b05      	ldrne	r3, [pc, #20]	; (8003854 <set_freq_channel_ok+0x24>)
 8003840:	2201      	movne	r2, #1
 8003842:	701a      	strbne	r2, [r3, #0]
 8003844:	4b04      	ldr	r3, [pc, #16]	; (8003858 <set_freq_channel_ok+0x28>)
 8003846:	2207      	movs	r2, #7
 8003848:	701a      	strb	r2, [r3, #0]
 800384a:	4770      	bx	lr
 800384c:	20000914 	.word	0x20000914
 8003850:	20000926 	.word	0x20000926
 8003854:	200008fe 	.word	0x200008fe
 8003858:	200008e9 	.word	0x200008e9

0800385c <set_freq_channel_esc>:
 800385c:	4b04      	ldr	r3, [pc, #16]	; (8003870 <set_freq_channel_esc+0x14>)
 800385e:	681b      	ldr	r3, [r3, #0]
 8003860:	795a      	ldrb	r2, [r3, #5]
 8003862:	4b04      	ldr	r3, [pc, #16]	; (8003874 <set_freq_channel_esc+0x18>)
 8003864:	715a      	strb	r2, [r3, #5]
 8003866:	4b04      	ldr	r3, [pc, #16]	; (8003878 <set_freq_channel_esc+0x1c>)
 8003868:	2207      	movs	r2, #7
 800386a:	701a      	strb	r2, [r3, #0]
 800386c:	4770      	bx	lr
 800386e:	bf00      	nop
 8003870:	20000914 	.word	0x20000914
 8003874:	20000926 	.word	0x20000926
 8003878:	200008e9 	.word	0x200008e9

0800387c <set_tx_power_up>:
 800387c:	4a04      	ldr	r2, [pc, #16]	; (8003890 <set_tx_power_up+0x14>)
 800387e:	7993      	ldrb	r3, [r2, #6]
 8003880:	2b05      	cmp	r3, #5
 8003882:	bf1a      	itte	ne
 8003884:	3301      	addne	r3, #1
 8003886:	b2db      	uxtbne	r3, r3
 8003888:	2300      	moveq	r3, #0
 800388a:	7193      	strb	r3, [r2, #6]
 800388c:	4770      	bx	lr
 800388e:	bf00      	nop
 8003890:	20000926 	.word	0x20000926

08003894 <set_tx_power_down>:
 8003894:	4a04      	ldr	r2, [pc, #16]	; (80038a8 <set_tx_power_down+0x14>)
 8003896:	7993      	ldrb	r3, [r2, #6]
 8003898:	b11b      	cbz	r3, 80038a2 <set_tx_power_down+0xe>
 800389a:	3b01      	subs	r3, #1
 800389c:	b2db      	uxtb	r3, r3
 800389e:	7193      	strb	r3, [r2, #6]
 80038a0:	4770      	bx	lr
 80038a2:	2305      	movs	r3, #5
 80038a4:	e7fb      	b.n	800389e <set_tx_power_down+0xa>
 80038a6:	bf00      	nop
 80038a8:	20000926 	.word	0x20000926

080038ac <set_tx_power_ok>:
 80038ac:	4b06      	ldr	r3, [pc, #24]	; (80038c8 <set_tx_power_ok+0x1c>)
 80038ae:	4a07      	ldr	r2, [pc, #28]	; (80038cc <set_tx_power_ok+0x20>)
 80038b0:	681b      	ldr	r3, [r3, #0]
 80038b2:	7992      	ldrb	r2, [r2, #6]
 80038b4:	799b      	ldrb	r3, [r3, #6]
 80038b6:	429a      	cmp	r2, r3
 80038b8:	bf1e      	ittt	ne
 80038ba:	4b05      	ldrne	r3, [pc, #20]	; (80038d0 <set_tx_power_ok+0x24>)
 80038bc:	2201      	movne	r2, #1
 80038be:	701a      	strbne	r2, [r3, #0]
 80038c0:	4b04      	ldr	r3, [pc, #16]	; (80038d4 <set_tx_power_ok+0x28>)
 80038c2:	2207      	movs	r2, #7
 80038c4:	701a      	strb	r2, [r3, #0]
 80038c6:	4770      	bx	lr
 80038c8:	20000914 	.word	0x20000914
 80038cc:	20000926 	.word	0x20000926
 80038d0:	200008fe 	.word	0x200008fe
 80038d4:	200008e9 	.word	0x200008e9

080038d8 <set_tx_power_esc>:
 80038d8:	4b04      	ldr	r3, [pc, #16]	; (80038ec <set_tx_power_esc+0x14>)
 80038da:	681b      	ldr	r3, [r3, #0]
 80038dc:	799a      	ldrb	r2, [r3, #6]
 80038de:	4b04      	ldr	r3, [pc, #16]	; (80038f0 <set_tx_power_esc+0x18>)
 80038e0:	719a      	strb	r2, [r3, #6]
 80038e2:	4b04      	ldr	r3, [pc, #16]	; (80038f4 <set_tx_power_esc+0x1c>)
 80038e4:	2207      	movs	r2, #7
 80038e6:	701a      	strb	r2, [r3, #0]
 80038e8:	4770      	bx	lr
 80038ea:	bf00      	nop
 80038ec:	20000914 	.word	0x20000914
 80038f0:	20000926 	.word	0x20000926
 80038f4:	200008e9 	.word	0x200008e9

080038f8 <set_timeout_up>:
 80038f8:	4a04      	ldr	r2, [pc, #16]	; (800390c <set_timeout_up+0x14>)
 80038fa:	79d3      	ldrb	r3, [r2, #7]
 80038fc:	2bef      	cmp	r3, #239	; 0xef
 80038fe:	bf9a      	itte	ls
 8003900:	331e      	addls	r3, #30
 8003902:	b2db      	uxtbls	r3, r3
 8003904:	2300      	movhi	r3, #0
 8003906:	71d3      	strb	r3, [r2, #7]
 8003908:	4770      	bx	lr
 800390a:	bf00      	nop
 800390c:	20000926 	.word	0x20000926

08003910 <set_timeout_down>:
 8003910:	4a04      	ldr	r2, [pc, #16]	; (8003924 <set_timeout_down+0x14>)
 8003912:	79d3      	ldrb	r3, [r2, #7]
 8003914:	b11b      	cbz	r3, 800391e <set_timeout_down+0xe>
 8003916:	3b1e      	subs	r3, #30
 8003918:	b2db      	uxtb	r3, r3
 800391a:	71d3      	strb	r3, [r2, #7]
 800391c:	4770      	bx	lr
 800391e:	23f0      	movs	r3, #240	; 0xf0
 8003920:	e7fb      	b.n	800391a <set_timeout_down+0xa>
 8003922:	bf00      	nop
 8003924:	20000926 	.word	0x20000926

08003928 <set_timeout_esc>:
 8003928:	4b04      	ldr	r3, [pc, #16]	; (800393c <set_timeout_esc+0x14>)
 800392a:	681b      	ldr	r3, [r3, #0]
 800392c:	79da      	ldrb	r2, [r3, #7]
 800392e:	4b04      	ldr	r3, [pc, #16]	; (8003940 <set_timeout_esc+0x18>)
 8003930:	71da      	strb	r2, [r3, #7]
 8003932:	4b04      	ldr	r3, [pc, #16]	; (8003944 <set_timeout_esc+0x1c>)
 8003934:	2207      	movs	r2, #7
 8003936:	701a      	strb	r2, [r3, #0]
 8003938:	4770      	bx	lr
 800393a:	bf00      	nop
 800393c:	20000914 	.word	0x20000914
 8003940:	20000926 	.word	0x20000926
 8003944:	200008e9 	.word	0x200008e9

08003948 <set_fence_up>:
 8003948:	4a04      	ldr	r2, [pc, #16]	; (800395c <set_fence_up+0x14>)
 800394a:	7a13      	ldrb	r3, [r2, #8]
 800394c:	2bf9      	cmp	r3, #249	; 0xf9
 800394e:	bf9a      	itte	ls
 8003950:	3332      	addls	r3, #50	; 0x32
 8003952:	b2db      	uxtbls	r3, r3
 8003954:	2300      	movhi	r3, #0
 8003956:	7213      	strb	r3, [r2, #8]
 8003958:	4770      	bx	lr
 800395a:	bf00      	nop
 800395c:	20000926 	.word	0x20000926

08003960 <set_fence_down>:
 8003960:	4a04      	ldr	r2, [pc, #16]	; (8003974 <set_fence_down+0x14>)
 8003962:	7a13      	ldrb	r3, [r2, #8]
 8003964:	b11b      	cbz	r3, 800396e <set_fence_down+0xe>
 8003966:	3b32      	subs	r3, #50	; 0x32
 8003968:	b2db      	uxtb	r3, r3
 800396a:	7213      	strb	r3, [r2, #8]
 800396c:	4770      	bx	lr
 800396e:	23fa      	movs	r3, #250	; 0xfa
 8003970:	e7fb      	b.n	800396a <set_fence_down+0xa>
 8003972:	bf00      	nop
 8003974:	20000926 	.word	0x20000926

08003978 <set_fence_esc>:
 8003978:	4b04      	ldr	r3, [pc, #16]	; (800398c <set_fence_esc+0x14>)
 800397a:	681b      	ldr	r3, [r3, #0]
 800397c:	7a1a      	ldrb	r2, [r3, #8]
 800397e:	4b04      	ldr	r3, [pc, #16]	; (8003990 <set_fence_esc+0x18>)
 8003980:	721a      	strb	r2, [r3, #8]
 8003982:	4b04      	ldr	r3, [pc, #16]	; (8003994 <set_fence_esc+0x1c>)
 8003984:	2207      	movs	r2, #7
 8003986:	701a      	strb	r2, [r3, #0]
 8003988:	4770      	bx	lr
 800398a:	bf00      	nop
 800398c:	20000914 	.word	0x20000914
 8003990:	20000926 	.word	0x20000926
 8003994:	200008e9 	.word	0x200008e9

08003998 <set_timezone_up>:
 8003998:	4a05      	ldr	r2, [pc, #20]	; (80039b0 <set_timezone_up+0x18>)
 800399a:	f992 3009 	ldrsb.w	r3, [r2, #9]
 800399e:	2b0b      	cmp	r3, #11
 80039a0:	bfda      	itte	le
 80039a2:	3301      	addle	r3, #1
 80039a4:	b25b      	sxtble	r3, r3
 80039a6:	f06f 030b 	mvngt.w	r3, #11
 80039aa:	7253      	strb	r3, [r2, #9]
 80039ac:	4770      	bx	lr
 80039ae:	bf00      	nop
 80039b0:	20000926 	.word	0x20000926

080039b4 <set_timezone_down>:
 80039b4:	4a05      	ldr	r2, [pc, #20]	; (80039cc <set_timezone_down+0x18>)
 80039b6:	f992 3009 	ldrsb.w	r3, [r2, #9]
 80039ba:	f113 0f0b 	cmn.w	r3, #11
 80039be:	bfa6      	itte	ge
 80039c0:	f103 33ff 	addge.w	r3, r3, #4294967295	; 0xffffffff
 80039c4:	b25b      	sxtbge	r3, r3
 80039c6:	230c      	movlt	r3, #12
 80039c8:	7253      	strb	r3, [r2, #9]
 80039ca:	4770      	bx	lr
 80039cc:	20000926 	.word	0x20000926

080039d0 <set_timezone_esc>:
 80039d0:	4b04      	ldr	r3, [pc, #16]	; (80039e4 <set_timezone_esc+0x14>)
 80039d2:	681b      	ldr	r3, [r3, #0]
 80039d4:	f993 2009 	ldrsb.w	r2, [r3, #9]
 80039d8:	4b03      	ldr	r3, [pc, #12]	; (80039e8 <set_timezone_esc+0x18>)
 80039da:	725a      	strb	r2, [r3, #9]
 80039dc:	4b03      	ldr	r3, [pc, #12]	; (80039ec <set_timezone_esc+0x1c>)
 80039de:	2207      	movs	r2, #7
 80039e0:	701a      	strb	r2, [r3, #0]
 80039e2:	4770      	bx	lr
 80039e4:	20000914 	.word	0x20000914
 80039e8:	20000926 	.word	0x20000926
 80039ec:	200008e9 	.word	0x200008e9

080039f0 <draw_navto_points>:
 80039f0:	b51f      	push	{r0, r1, r2, r3, r4, lr}
 80039f2:	2100      	movs	r1, #0
 80039f4:	f240 72ff 	movw	r2, #2047	; 0x7ff
 80039f8:	e9cd 2101 	strd	r2, r1, [sp, #4]
 80039fc:	4b05      	ldr	r3, [pc, #20]	; (8003a14 <draw_navto_points+0x24>)
 80039fe:	685a      	ldr	r2, [r3, #4]
 8003a00:	9200      	str	r2, [sp, #0]
 8003a02:	681b      	ldr	r3, [r3, #0]
 8003a04:	4a04      	ldr	r2, [pc, #16]	; (8003a18 <draw_navto_points+0x28>)
 8003a06:	4608      	mov	r0, r1
 8003a08:	f7fe fa18 	bl	8001e3c <draw_str_by_rows>
 8003a0c:	b005      	add	sp, #20
 8003a0e:	f85d fb04 	ldr.w	pc, [sp], #4
 8003a12:	bf00      	nop
 8003a14:	20000014 	.word	0x20000014
 8003a18:	08010573 	.word	0x08010573

08003a1c <draw_points>:
 8003a1c:	f7ff bfe8 	b.w	80039f0 <draw_navto_points>

08003a20 <draw_restore_defaults>:
 8003a20:	e92d 41ff 	stmdb	sp!, {r0, r1, r2, r3, r4, r5, r6, r7, r8, lr}
 8003a24:	492f      	ldr	r1, [pc, #188]	; (8003ae4 <draw_restore_defaults+0xc4>)
 8003a26:	4830      	ldr	r0, [pc, #192]	; (8003ae8 <draw_restore_defaults+0xc8>)
 8003a28:	4f2f      	ldr	r7, [pc, #188]	; (8003ae8 <draw_restore_defaults+0xc8>)
 8003a2a:	4c30      	ldr	r4, [pc, #192]	; (8003aec <draw_restore_defaults+0xcc>)
 8003a2c:	f008 f984 	bl	800bd38 <strcpy>
 8003a30:	492f      	ldr	r1, [pc, #188]	; (8003af0 <draw_restore_defaults+0xd0>)
 8003a32:	4830      	ldr	r0, [pc, #192]	; (8003af4 <draw_restore_defaults+0xd4>)
 8003a34:	f008 f980 	bl	800bd38 <strcpy>
 8003a38:	492f      	ldr	r1, [pc, #188]	; (8003af8 <draw_restore_defaults+0xd8>)
 8003a3a:	4830      	ldr	r0, [pc, #192]	; (8003afc <draw_restore_defaults+0xdc>)
 8003a3c:	f008 f97c 	bl	800bd38 <strcpy>
 8003a40:	260b      	movs	r6, #11
 8003a42:	2500      	movs	r5, #0
 8003a44:	f240 78ff 	movw	r8, #2047	; 0x7ff
 8003a48:	6863      	ldr	r3, [r4, #4]
 8003a4a:	9300      	str	r3, [sp, #0]
 8003a4c:	4631      	mov	r1, r6
 8003a4e:	360b      	adds	r6, #11
 8003a50:	463a      	mov	r2, r7
 8003a52:	e9cd 8501 	strd	r8, r5, [sp, #4]
 8003a56:	6823      	ldr	r3, [r4, #0]
 8003a58:	2000      	movs	r0, #0
 8003a5a:	b2f6      	uxtb	r6, r6
 8003a5c:	f7fe f9ee 	bl	8001e3c <draw_str_by_rows>
 8003a60:	2e2c      	cmp	r6, #44	; 0x2c
 8003a62:	f107 0720 	add.w	r7, r7, #32
 8003a66:	d1ef      	bne.n	8003a48 <draw_restore_defaults+0x28>
 8003a68:	4e25      	ldr	r6, [pc, #148]	; (8003b00 <draw_restore_defaults+0xe0>)
 8003a6a:	9502      	str	r5, [sp, #8]
 8003a6c:	f64f 78e0 	movw	r8, #65504	; 0xffe0
 8003a70:	f8cd 8004 	str.w	r8, [sp, #4]
 8003a74:	6873      	ldr	r3, [r6, #4]
 8003a76:	9300      	str	r3, [sp, #0]
 8003a78:	6833      	ldr	r3, [r6, #0]
 8003a7a:	4a22      	ldr	r2, [pc, #136]	; (8003b04 <draw_restore_defaults+0xe4>)
 8003a7c:	2137      	movs	r1, #55	; 0x37
 8003a7e:	2000      	movs	r0, #0
 8003a80:	f7fe f9dc 	bl	8001e3c <draw_str_by_rows>
 8003a84:	f44f 67fc 	mov.w	r7, #2016	; 0x7e0
 8003a88:	6863      	ldr	r3, [r4, #4]
 8003a8a:	9300      	str	r3, [sp, #0]
 8003a8c:	4a1e      	ldr	r2, [pc, #120]	; (8003b08 <draw_restore_defaults+0xe8>)
 8003a8e:	6823      	ldr	r3, [r4, #0]
 8003a90:	9502      	str	r5, [sp, #8]
 8003a92:	9701      	str	r7, [sp, #4]
 8003a94:	214d      	movs	r1, #77	; 0x4d
 8003a96:	2000      	movs	r0, #0
 8003a98:	f7fe f9d0 	bl	8001e3c <draw_str_by_rows>
 8003a9c:	f64f 0322 	movw	r3, #63522	; 0xf822
 8003aa0:	9301      	str	r3, [sp, #4]
 8003aa2:	6863      	ldr	r3, [r4, #4]
 8003aa4:	9300      	str	r3, [sp, #0]
 8003aa6:	4a19      	ldr	r2, [pc, #100]	; (8003b0c <draw_restore_defaults+0xec>)
 8003aa8:	6823      	ldr	r3, [r4, #0]
 8003aaa:	9502      	str	r5, [sp, #8]
 8003aac:	2158      	movs	r1, #88	; 0x58
 8003aae:	2000      	movs	r0, #0
 8003ab0:	f7fe f9c4 	bl	8001e3c <draw_str_by_rows>
 8003ab4:	e9cd 8501 	strd	r8, r5, [sp, #4]
 8003ab8:	6873      	ldr	r3, [r6, #4]
 8003aba:	9300      	str	r3, [sp, #0]
 8003abc:	6833      	ldr	r3, [r6, #0]
 8003abe:	4a14      	ldr	r2, [pc, #80]	; (8003b10 <draw_restore_defaults+0xf0>)
 8003ac0:	216e      	movs	r1, #110	; 0x6e
 8003ac2:	2000      	movs	r0, #0
 8003ac4:	f7fe f9ba 	bl	8001e3c <draw_str_by_rows>
 8003ac8:	6863      	ldr	r3, [r4, #4]
 8003aca:	9300      	str	r3, [sp, #0]
 8003acc:	e9cd 7501 	strd	r7, r5, [sp, #4]
 8003ad0:	6823      	ldr	r3, [r4, #0]
 8003ad2:	4a10      	ldr	r2, [pc, #64]	; (8003b14 <draw_restore_defaults+0xf4>)
 8003ad4:	2184      	movs	r1, #132	; 0x84
 8003ad6:	2000      	movs	r0, #0
 8003ad8:	f7fe f9b0 	bl	8001e3c <draw_str_by_rows>
 8003adc:	b004      	add	sp, #16
 8003ade:	e8bd 81f0 	ldmia.w	sp!, {r4, r5, r6, r7, r8, pc}
 8003ae2:	bf00      	nop
 8003ae4:	08010583 	.word	0x08010583
 8003ae8:	200005ac 	.word	0x200005ac
 8003aec:	20000014 	.word	0x20000014
 8003af0:	08010595 	.word	0x08010595
 8003af4:	200005cc 	.word	0x200005cc
 8003af8:	08010803 	.word	0x08010803
 8003afc:	200005ec 	.word	0x200005ec
 8003b00:	20000004 	.word	0x20000004
 8003b04:	080105a7 	.word	0x080105a7
 8003b08:	080105b3 	.word	0x080105b3
 8003b0c:	080105c6 	.word	0x080105c6
 8003b10:	080105d9 	.word	0x080105d9
 8003b14:	080105e5 	.word	0x080105e5

08003b18 <power_long>:
 8003b18:	4b04      	ldr	r3, [pc, #16]	; (8003b2c <power_long+0x14>)
 8003b1a:	4a05      	ldr	r2, [pc, #20]	; (8003b30 <power_long+0x18>)
 8003b1c:	7819      	ldrb	r1, [r3, #0]
 8003b1e:	7011      	strb	r1, [r2, #0]
 8003b20:	2002      	movs	r0, #2
 8003b22:	2211      	movs	r2, #17
 8003b24:	701a      	strb	r2, [r3, #0]
 8003b26:	f7ff bc3b 	b.w	80033a0 <shortBeeps>
 8003b2a:	bf00      	nop
 8003b2c:	200008e9 	.word	0x200008e9
 8003b30:	20000921 	.word	0x20000921

08003b34 <draw_set_settings>:
 8003b34:	e92d 43f0 	stmdb	sp!, {r4, r5, r6, r7, r8, r9, lr}
 8003b38:	f240 72ff 	movw	r2, #2047	; 0x7ff
 8003b3c:	b085      	sub	sp, #20
 8003b3e:	2400      	movs	r4, #0
 8003b40:	e9cd 2401 	strd	r2, r4, [sp, #4]
 8003b44:	4b3a      	ldr	r3, [pc, #232]	; (8003c30 <draw_set_settings+0xfc>)
 8003b46:	4d3b      	ldr	r5, [pc, #236]	; (8003c34 <draw_set_settings+0x100>)
 8003b48:	685a      	ldr	r2, [r3, #4]
 8003b4a:	9200      	str	r2, [sp, #0]
 8003b4c:	681b      	ldr	r3, [r3, #0]
 8003b4e:	4a3a      	ldr	r2, [pc, #232]	; (8003c38 <draw_set_settings+0x104>)
 8003b50:	f8df 90e8 	ldr.w	r9, [pc, #232]	; 8003c3c <draw_set_settings+0x108>
 8003b54:	4f3a      	ldr	r7, [pc, #232]	; (8003c40 <draw_set_settings+0x10c>)
 8003b56:	4e3b      	ldr	r6, [pc, #236]	; (8003c44 <draw_set_settings+0x110>)
 8003b58:	4621      	mov	r1, r4
 8003b5a:	4620      	mov	r0, r4
 8003b5c:	f7fe f96e 	bl	8001e3c <draw_str_by_rows>
 8003b60:	78ab      	ldrb	r3, [r5, #2]
 8003b62:	786a      	ldrb	r2, [r5, #1]
 8003b64:	4938      	ldr	r1, [pc, #224]	; (8003c48 <draw_set_settings+0x114>)
 8003b66:	4835      	ldr	r0, [pc, #212]	; (8003c3c <draw_set_settings+0x108>)
 8003b68:	f008 f8c6 	bl	800bcf8 <siprintf>
 8003b6c:	78ea      	ldrb	r2, [r5, #3]
 8003b6e:	4937      	ldr	r1, [pc, #220]	; (8003c4c <draw_set_settings+0x118>)
 8003b70:	4837      	ldr	r0, [pc, #220]	; (8003c50 <draw_set_settings+0x11c>)
 8003b72:	f008 f8c1 	bl	800bcf8 <siprintf>
 8003b76:	792a      	ldrb	r2, [r5, #4]
 8003b78:	4936      	ldr	r1, [pc, #216]	; (8003c54 <draw_set_settings+0x120>)
 8003b7a:	4837      	ldr	r0, [pc, #220]	; (8003c58 <draw_set_settings+0x124>)
 8003b7c:	f008 f8bc 	bl	800bcf8 <siprintf>
 8003b80:	796a      	ldrb	r2, [r5, #5]
 8003b82:	4936      	ldr	r1, [pc, #216]	; (8003c5c <draw_set_settings+0x128>)
 8003b84:	4836      	ldr	r0, [pc, #216]	; (8003c60 <draw_set_settings+0x12c>)
 8003b86:	f008 f8b7 	bl	800bcf8 <siprintf>
 8003b8a:	4a36      	ldr	r2, [pc, #216]	; (8003c64 <draw_set_settings+0x130>)
 8003b8c:	79ab      	ldrb	r3, [r5, #6]
 8003b8e:	6812      	ldr	r2, [r2, #0]
 8003b90:	4935      	ldr	r1, [pc, #212]	; (8003c68 <draw_set_settings+0x134>)
 8003b92:	5cd2      	ldrb	r2, [r2, r3]
 8003b94:	4835      	ldr	r0, [pc, #212]	; (8003c6c <draw_set_settings+0x138>)
 8003b96:	f008 f8af 	bl	800bcf8 <siprintf>
 8003b9a:	f995 2009 	ldrsb.w	r2, [r5, #9]
 8003b9e:	4934      	ldr	r1, [pc, #208]	; (8003c70 <draw_set_settings+0x13c>)
 8003ba0:	4834      	ldr	r0, [pc, #208]	; (8003c74 <draw_set_settings+0x140>)
 8003ba2:	f008 f8a9 	bl	800bcf8 <siprintf>
 8003ba6:	79ea      	ldrb	r2, [r5, #7]
 8003ba8:	4933      	ldr	r1, [pc, #204]	; (8003c78 <draw_set_settings+0x144>)
 8003baa:	4834      	ldr	r0, [pc, #208]	; (8003c7c <draw_set_settings+0x148>)
 8003bac:	f008 f8a4 	bl	800bcf8 <siprintf>
 8003bb0:	7a2a      	ldrb	r2, [r5, #8]
 8003bb2:	4933      	ldr	r1, [pc, #204]	; (8003c80 <draw_set_settings+0x14c>)
 8003bb4:	4833      	ldr	r0, [pc, #204]	; (8003c84 <draw_set_settings+0x150>)
 8003bb6:	f008 f89f 	bl	800bcf8 <siprintf>
 8003bba:	250a      	movs	r5, #10
 8003bbc:	46c8      	mov	r8, r9
 8003bbe:	f997 3000 	ldrsb.w	r3, [r7]
 8003bc2:	42a3      	cmp	r3, r4
 8003bc4:	f04f 0300 	mov.w	r3, #0
 8003bc8:	9302      	str	r3, [sp, #8]
 8003bca:	bf0c      	ite	eq
 8003bcc:	f240 73ff 	movweq	r3, #2047	; 0x7ff
 8003bd0:	f44f 63fc 	movne.w	r3, #2016	; 0x7e0
 8003bd4:	9301      	str	r3, [sp, #4]
 8003bd6:	6873      	ldr	r3, [r6, #4]
 8003bd8:	9300      	str	r3, [sp, #0]
 8003bda:	464a      	mov	r2, r9
 8003bdc:	4629      	mov	r1, r5
 8003bde:	6833      	ldr	r3, [r6, #0]
 8003be0:	2003      	movs	r0, #3
 8003be2:	3401      	adds	r4, #1
 8003be4:	f7fe f92a 	bl	8001e3c <draw_str_by_rows>
 8003be8:	3513      	adds	r5, #19
 8003bea:	2c08      	cmp	r4, #8
 8003bec:	b2ed      	uxtb	r5, r5
 8003bee:	f109 0920 	add.w	r9, r9, #32
 8003bf2:	d1e4      	bne.n	8003bbe <draw_set_settings+0x8a>
 8003bf4:	f997 0000 	ldrsb.w	r0, [r7]
 8003bf8:	4923      	ldr	r1, [pc, #140]	; (8003c88 <draw_set_settings+0x154>)
 8003bfa:	eb08 1040 	add.w	r0, r8, r0, lsl #5
 8003bfe:	f008 f89b 	bl	800bd38 <strcpy>
 8003c02:	7839      	ldrb	r1, [r7, #0]
 8003c04:	eb01 03c1 	add.w	r3, r1, r1, lsl #3
 8003c08:	eb01 0143 	add.w	r1, r1, r3, lsl #1
 8003c0c:	2200      	movs	r2, #0
 8003c0e:	f240 73ff 	movw	r3, #2047	; 0x7ff
 8003c12:	e9cd 3201 	strd	r3, r2, [sp, #4]
 8003c16:	310a      	adds	r1, #10
 8003c18:	6873      	ldr	r3, [r6, #4]
 8003c1a:	9300      	str	r3, [sp, #0]
 8003c1c:	223e      	movs	r2, #62	; 0x3e
 8003c1e:	6833      	ldr	r3, [r6, #0]
 8003c20:	b2c9      	uxtb	r1, r1
 8003c22:	2003      	movs	r0, #3
 8003c24:	f7fe f9a0 	bl	8001f68 <draw_char>
 8003c28:	b005      	add	sp, #20
 8003c2a:	e8bd 83f0 	ldmia.w	sp!, {r4, r5, r6, r7, r8, r9, pc}
 8003c2e:	bf00      	nop
 8003c30:	20000014 	.word	0x20000014
 8003c34:	20000926 	.word	0x20000926
 8003c38:	080105f8 	.word	0x080105f8
 8003c3c:	2000058c 	.word	0x2000058c
 8003c40:	20000922 	.word	0x20000922
 8003c44:	20000004 	.word	0x20000004
 8003c48:	0801060b 	.word	0x0801060b
 8003c4c:	0801061b 	.word	0x0801061b
 8003c50:	200005ac 	.word	0x200005ac
 8003c54:	08010629 	.word	0x08010629
 8003c58:	200005cc 	.word	0x200005cc
 8003c5c:	08010636 	.word	0x08010636
 8003c60:	200005ec 	.word	0x200005ec
 8003c64:	20000918 	.word	0x20000918
 8003c68:	08010643 	.word	0x08010643
 8003c6c:	2000060c 	.word	0x2000060c
 8003c70:	0801064f 	.word	0x0801064f
 8003c74:	2000062c 	.word	0x2000062c
 8003c78:	0801065c 	.word	0x0801065c
 8003c7c:	2000064c 	.word	0x2000064c
 8003c80:	08010668 	.word	0x08010668
 8003c84:	2000066c 	.word	0x2000066c
 8003c88:	08010674 	.word	0x08010674
 8003c8c:	00000000 	.word	0x00000000

08003c90 <draw_navigation>:
 8003c90:	e92d 4ff0 	stmdb	sp!, {r4, r5, r6, r7, r8, r9, sl, fp, lr}
 8003c94:	4bc0      	ldr	r3, [pc, #768]	; (8003f98 <draw_navigation+0x308>)
 8003c96:	4fc1      	ldr	r7, [pc, #772]	; (8003f9c <draw_navigation+0x30c>)
 8003c98:	4cc1      	ldr	r4, [pc, #772]	; (8003fa0 <draw_navigation+0x310>)
 8003c9a:	f993 2000 	ldrsb.w	r2, [r3]
 8003c9e:	683b      	ldr	r3, [r7, #0]
 8003ca0:	4ec0      	ldr	r6, [pc, #768]	; (8003fa4 <draw_navigation+0x314>)
 8003ca2:	4dc1      	ldr	r5, [pc, #772]	; (8003fa8 <draw_navigation+0x318>)
 8003ca4:	f04f 0a00 	mov.w	sl, #0
 8003ca8:	f884 a000 	strb.w	sl, [r4]
 8003cac:	f853 3022 	ldr.w	r3, [r3, r2, lsl #2]
 8003cb0:	f893 2028 	ldrb.w	r2, [r3, #40]	; 0x28
 8003cb4:	2a03      	cmp	r2, #3
 8003cb6:	b089      	sub	sp, #36	; 0x24
 8003cb8:	f240 821e 	bls.w	80040f8 <draw_navigation+0x468>
 8003cbc:	49bb      	ldr	r1, [pc, #748]	; (8003fac <draw_navigation+0x31c>)
 8003cbe:	1d30      	adds	r0, r6, #4
 8003cc0:	f008 f81a 	bl	800bcf8 <siprintf>
 8003cc4:	f994 1000 	ldrsb.w	r1, [r4]
 8003cc8:	f8cd a008 	str.w	sl, [sp, #8]
 8003ccc:	f04f 0820 	mov.w	r8, #32
 8003cd0:	f04f 0904 	mov.w	r9, #4
 8003cd4:	eb01 03c1 	add.w	r3, r1, r1, lsl #3
 8003cd8:	fb18 9201 	smlabb	r2, r8, r1, r9
 8003cdc:	eb01 0143 	add.w	r1, r1, r3, lsl #1
 8003ce0:	f44f 63fc 	mov.w	r3, #2016	; 0x7e0
 8003ce4:	9301      	str	r3, [sp, #4]
 8003ce6:	686b      	ldr	r3, [r5, #4]
 8003ce8:	9300      	str	r3, [sp, #0]
 8003cea:	b2c9      	uxtb	r1, r1
 8003cec:	682b      	ldr	r3, [r5, #0]
 8003cee:	4432      	add	r2, r6
 8003cf0:	2025      	movs	r0, #37	; 0x25
 8003cf2:	f7fe f8a3 	bl	8001e3c <draw_str_by_rows>
 8003cf6:	4bae      	ldr	r3, [pc, #696]	; (8003fb0 <draw_navigation+0x320>)
 8003cf8:	7820      	ldrb	r0, [r4, #0]
 8003cfa:	f9b3 2000 	ldrsh.w	r2, [r3]
 8003cfe:	3001      	adds	r0, #1
 8003d00:	b240      	sxtb	r0, r0
 8003d02:	2a63      	cmp	r2, #99	; 0x63
 8003d04:	7020      	strb	r0, [r4, #0]
 8003d06:	fb18 9000 	smlabb	r0, r8, r0, r9
 8003d0a:	bfd4      	ite	le
 8003d0c:	49a9      	ldrle	r1, [pc, #676]	; (8003fb4 <draw_navigation+0x324>)
 8003d0e:	49aa      	ldrgt	r1, [pc, #680]	; (8003fb8 <draw_navigation+0x328>)
 8003d10:	4430      	add	r0, r6
 8003d12:	f007 fff1 	bl	800bcf8 <siprintf>
 8003d16:	f994 1000 	ldrsb.w	r1, [r4]
 8003d1a:	eb01 03c1 	add.w	r3, r1, r1, lsl #3
 8003d1e:	eb06 1241 	add.w	r2, r6, r1, lsl #5
 8003d22:	eb01 0143 	add.w	r1, r1, r3, lsl #1
 8003d26:	2300      	movs	r3, #0
 8003d28:	9302      	str	r3, [sp, #8]
 8003d2a:	f64f 73e0 	movw	r3, #65504	; 0xffe0
 8003d2e:	9301      	str	r3, [sp, #4]
 8003d30:	686b      	ldr	r3, [r5, #4]
 8003d32:	9300      	str	r3, [sp, #0]
 8003d34:	682b      	ldr	r3, [r5, #0]
 8003d36:	3204      	adds	r2, #4
 8003d38:	b2c9      	uxtb	r1, r1
 8003d3a:	2025      	movs	r0, #37	; 0x25
 8003d3c:	f7fe f87e 	bl	8001e3c <draw_str_by_rows>
 8003d40:	4b9e      	ldr	r3, [pc, #632]	; (8003fbc <draw_navigation+0x32c>)
 8003d42:	e9d3 8500 	ldrd	r8, r5, [r3]
 8003d46:	2200      	movs	r2, #0
 8003d48:	2300      	movs	r3, #0
 8003d4a:	4640      	mov	r0, r8
 8003d4c:	4629      	mov	r1, r5
 8003d4e:	f7fc fe95 	bl	8000a7c <__aeabi_dcmplt>
 8003d52:	2800      	cmp	r0, #0
 8003d54:	f000 81fa 	beq.w	800414c <draw_navigation+0x4bc>
 8003d58:	f105 4500 	add.w	r5, r5, #2147483648	; 0x80000000
 8003d5c:	f8df 9260 	ldr.w	r9, [pc, #608]	; 8003fc0 <draw_navigation+0x330>
 8003d60:	4642      	mov	r2, r8
 8003d62:	462b      	mov	r3, r5
 8003d64:	e9c9 2300 	strd	r2, r3, [r9]
 8003d68:	2300      	movs	r3, #0
 8003d6a:	e9cd 3303 	strd	r3, r3, [sp, #12]
 8003d6e:	f04f 081c 	mov.w	r8, #28
 8003d72:	4d94      	ldr	r5, [pc, #592]	; (8003fc4 <draw_navigation+0x334>)
 8003d74:	f8cd 8008 	str.w	r8, [sp, #8]
 8003d78:	e9d5 2300 	ldrd	r2, r3, [r5]
 8003d7c:	2161      	movs	r1, #97	; 0x61
 8003d7e:	e9cd 2300 	strd	r2, r3, [sp]
 8003d82:	203f      	movs	r0, #63	; 0x3f
 8003d84:	2239      	movs	r2, #57	; 0x39
 8003d86:	f7fd fb7f 	bl	8001488 <drawArrow>
 8003d8a:	f645 63ff 	movw	r3, #24319	; 0x5eff
 8003d8e:	f64f 0122 	movw	r1, #63522	; 0xf822
 8003d92:	e9cd 3103 	strd	r3, r1, [sp, #12]
 8003d96:	f8cd 8008 	str.w	r8, [sp, #8]
 8003d9a:	e9d9 2300 	ldrd	r2, r3, [r9]
 8003d9e:	203f      	movs	r0, #63	; 0x3f
 8003da0:	e9cd 2300 	strd	r2, r3, [sp]
 8003da4:	2161      	movs	r1, #97	; 0x61
 8003da6:	2239      	movs	r2, #57	; 0x39
 8003da8:	f7fd fb6e 	bl	8001488 <drawArrow>
 8003dac:	e9d9 2300 	ldrd	r2, r3, [r9]
 8003db0:	f8df 9214 	ldr.w	r9, [pc, #532]	; 8003fc8 <draw_navigation+0x338>
 8003db4:	e9c5 2300 	strd	r2, r3, [r5]
 8003db8:	f8d9 3000 	ldr.w	r3, [r9]
 8003dbc:	789a      	ldrb	r2, [r3, #2]
 8003dbe:	4b76      	ldr	r3, [pc, #472]	; (8003f98 <draw_navigation+0x308>)
 8003dc0:	f993 0000 	ldrsb.w	r0, [r3]
 8003dc4:	683b      	ldr	r3, [r7, #0]
 8003dc6:	f04f 0801 	mov.w	r8, #1
 8003dca:	4590      	cmp	r8, r2
 8003dcc:	f240 81c8 	bls.w	8004160 <draw_navigation+0x4d0>
 8003dd0:	fa0f f588 	sxth.w	r5, r8
 8003dd4:	ea4f 0288 	mov.w	r2, r8, lsl #2
 8003dd8:	f853 3025 	ldr.w	r3, [r3, r5, lsl #2]
 8003ddc:	9206      	str	r2, [sp, #24]
 8003dde:	791b      	ldrb	r3, [r3, #4]
 8003de0:	4642      	mov	r2, r8
 8003de2:	2b00      	cmp	r3, #0
 8003de4:	f000 81ce 	beq.w	8004184 <draw_navigation+0x4f4>
 8003de8:	4978      	ldr	r1, [pc, #480]	; (8003fcc <draw_navigation+0x33c>)
 8003dea:	486e      	ldr	r0, [pc, #440]	; (8003fa4 <draw_navigation+0x314>)
 8003dec:	f8df a1e0 	ldr.w	sl, [pc, #480]	; 8003fd0 <draw_navigation+0x340>
 8003df0:	f8df b1b0 	ldr.w	fp, [pc, #432]	; 8003fa4 <draw_navigation+0x314>
 8003df4:	f007 ff80 	bl	800bcf8 <siprintf>
 8003df8:	4b76      	ldr	r3, [pc, #472]	; (8003fd4 <draw_navigation+0x344>)
 8003dfa:	4a6d      	ldr	r2, [pc, #436]	; (8003fb0 <draw_navigation+0x320>)
 8003dfc:	f833 3018 	ldrh.w	r3, [r3, r8, lsl #1]
 8003e00:	8812      	ldrh	r2, [r2, #0]
 8003e02:	4975      	ldr	r1, [pc, #468]	; (8003fd8 <draw_navigation+0x348>)
 8003e04:	4875      	ldr	r0, [pc, #468]	; (8003fdc <draw_navigation+0x34c>)
 8003e06:	1a9b      	subs	r3, r3, r2
 8003e08:	b29a      	uxth	r2, r3
 8003e0a:	b21b      	sxth	r3, r3
 8003e0c:	2bb4      	cmp	r3, #180	; 0xb4
 8003e0e:	bfc8      	it	gt
 8003e10:	f5a2 73b4 	subgt.w	r3, r2, #360	; 0x168
 8003e14:	f8aa 3000 	strh.w	r3, [sl]
 8003e18:	f9ba 3000 	ldrsh.w	r3, [sl]
 8003e1c:	f113 0fb4 	cmn.w	r3, #180	; 0xb4
 8003e20:	bfbc      	itt	lt
 8003e22:	f503 73b4 	addlt.w	r3, r3, #360	; 0x168
 8003e26:	f8aa 3000 	strhlt.w	r3, [sl]
 8003e2a:	f9ba 2000 	ldrsh.w	r2, [sl]
 8003e2e:	f007 ff63 	bl	800bcf8 <siprintf>
 8003e32:	4b6b      	ldr	r3, [pc, #428]	; (8003fe0 <draw_navigation+0x350>)
 8003e34:	eb03 08c8 	add.w	r8, r3, r8, lsl #3
 8003e38:	e9d8 0100 	ldrd	r0, r1, [r8]
 8003e3c:	f7fc fe84 	bl	8000b48 <__aeabi_d2uiz>
 8003e40:	4968      	ldr	r1, [pc, #416]	; (8003fe4 <draw_navigation+0x354>)
 8003e42:	f3c0 020c 	ubfx	r2, r0, #0, #13
 8003e46:	4868      	ldr	r0, [pc, #416]	; (8003fe8 <draw_navigation+0x358>)
 8003e48:	f007 ff56 	bl	800bcf8 <siprintf>
 8003e4c:	683b      	ldr	r3, [r7, #0]
 8003e4e:	4967      	ldr	r1, [pc, #412]	; (8003fec <draw_navigation+0x35c>)
 8003e50:	f853 3025 	ldr.w	r3, [r3, r5, lsl #2]
 8003e54:	4866      	ldr	r0, [pc, #408]	; (8003ff0 <draw_navigation+0x360>)
 8003e56:	f993 2043 	ldrsb.w	r2, [r3, #67]	; 0x43
 8003e5a:	4d66      	ldr	r5, [pc, #408]	; (8003ff4 <draw_navigation+0x364>)
 8003e5c:	f007 ff4c 	bl	800bcf8 <siprintf>
 8003e60:	f04f 0800 	mov.w	r8, #0
 8003e64:	683b      	ldr	r3, [r7, #0]
 8003e66:	9a06      	ldr	r2, [sp, #24]
 8003e68:	589b      	ldr	r3, [r3, r2]
 8003e6a:	7dd8      	ldrb	r0, [r3, #23]
 8003e6c:	2800      	cmp	r0, #0
 8003e6e:	f000 818b 	beq.w	8004188 <draw_navigation+0x4f8>
 8003e72:	f64f 73e0 	movw	r3, #65504	; 0xffe0
 8003e76:	2200      	movs	r2, #0
 8003e78:	e9cd 3201 	strd	r3, r2, [sp, #4]
 8003e7c:	686b      	ldr	r3, [r5, #4]
 8003e7e:	9300      	str	r3, [sp, #0]
 8003e80:	682b      	ldr	r3, [r5, #0]
 8003e82:	465a      	mov	r2, fp
 8003e84:	4641      	mov	r1, r8
 8003e86:	2000      	movs	r0, #0
 8003e88:	f108 080b 	add.w	r8, r8, #11
 8003e8c:	fa5f f888 	uxtb.w	r8, r8
 8003e90:	f7fd ffd4 	bl	8001e3c <draw_str_by_rows>
 8003e94:	f1b8 0f2c 	cmp.w	r8, #44	; 0x2c
 8003e98:	f10b 0b20 	add.w	fp, fp, #32
 8003e9c:	d1e2      	bne.n	8003e64 <draw_navigation+0x1d4>
 8003e9e:	4b3e      	ldr	r3, [pc, #248]	; (8003f98 <draw_navigation+0x308>)
 8003ea0:	683a      	ldr	r2, [r7, #0]
 8003ea2:	f993 0000 	ldrsb.w	r0, [r3]
 8003ea6:	f8d9 3000 	ldr.w	r3, [r9]
 8003eaa:	789b      	ldrb	r3, [r3, #2]
 8003eac:	fa5f fb83 	uxtb.w	fp, r3
 8003eb0:	2b00      	cmp	r3, #0
 8003eb2:	f040 8173 	bne.w	800419c <draw_navigation+0x50c>
 8003eb6:	469b      	mov	fp, r3
 8003eb8:	fa0f f88b 	sxth.w	r8, fp
 8003ebc:	ea4f 098b 	mov.w	r9, fp, lsl #2
 8003ec0:	f852 3028 	ldr.w	r3, [r2, r8, lsl #2]
 8003ec4:	791b      	ldrb	r3, [r3, #4]
 8003ec6:	465a      	mov	r2, fp
 8003ec8:	2b00      	cmp	r3, #0
 8003eca:	f000 8171 	beq.w	80041b0 <draw_navigation+0x520>
 8003ece:	493f      	ldr	r1, [pc, #252]	; (8003fcc <draw_navigation+0x33c>)
 8003ed0:	4849      	ldr	r0, [pc, #292]	; (8003ff8 <draw_navigation+0x368>)
 8003ed2:	f007 ff11 	bl	800bcf8 <siprintf>
 8003ed6:	4b3f      	ldr	r3, [pc, #252]	; (8003fd4 <draw_navigation+0x344>)
 8003ed8:	4a35      	ldr	r2, [pc, #212]	; (8003fb0 <draw_navigation+0x320>)
 8003eda:	f833 301b 	ldrh.w	r3, [r3, fp, lsl #1]
 8003ede:	8812      	ldrh	r2, [r2, #0]
 8003ee0:	4846      	ldr	r0, [pc, #280]	; (8003ffc <draw_navigation+0x36c>)
 8003ee2:	1a9b      	subs	r3, r3, r2
 8003ee4:	b299      	uxth	r1, r3
 8003ee6:	b21b      	sxth	r3, r3
 8003ee8:	4a39      	ldr	r2, [pc, #228]	; (8003fd0 <draw_navigation+0x340>)
 8003eea:	2bb4      	cmp	r3, #180	; 0xb4
 8003eec:	bfc8      	it	gt
 8003eee:	f5a1 73b4 	subgt.w	r3, r1, #360	; 0x168
 8003ef2:	8013      	strh	r3, [r2, #0]
 8003ef4:	f9b2 3000 	ldrsh.w	r3, [r2]
 8003ef8:	4937      	ldr	r1, [pc, #220]	; (8003fd8 <draw_navigation+0x348>)
 8003efa:	f113 0fb4 	cmn.w	r3, #180	; 0xb4
 8003efe:	bfbc      	itt	lt
 8003f00:	f503 73b4 	addlt.w	r3, r3, #360	; 0x168
 8003f04:	8013      	strhlt	r3, [r2, #0]
 8003f06:	f9ba 2000 	ldrsh.w	r2, [sl]
 8003f0a:	f8df a0ec 	ldr.w	sl, [pc, #236]	; 8003ff8 <draw_navigation+0x368>
 8003f0e:	f007 fef3 	bl	800bcf8 <siprintf>
 8003f12:	4b33      	ldr	r3, [pc, #204]	; (8003fe0 <draw_navigation+0x350>)
 8003f14:	eb03 0bcb 	add.w	fp, r3, fp, lsl #3
 8003f18:	e9db 0100 	ldrd	r0, r1, [fp]
 8003f1c:	f7fc fe14 	bl	8000b48 <__aeabi_d2uiz>
 8003f20:	4930      	ldr	r1, [pc, #192]	; (8003fe4 <draw_navigation+0x354>)
 8003f22:	f3c0 020c 	ubfx	r2, r0, #0, #13
 8003f26:	4836      	ldr	r0, [pc, #216]	; (8004000 <draw_navigation+0x370>)
 8003f28:	f007 fee6 	bl	800bcf8 <siprintf>
 8003f2c:	683b      	ldr	r3, [r7, #0]
 8003f2e:	492f      	ldr	r1, [pc, #188]	; (8003fec <draw_navigation+0x35c>)
 8003f30:	f853 3028 	ldr.w	r3, [r3, r8, lsl #2]
 8003f34:	4833      	ldr	r0, [pc, #204]	; (8004004 <draw_navigation+0x374>)
 8003f36:	f993 2043 	ldrsb.w	r2, [r3, #67]	; 0x43
 8003f3a:	f007 fedd 	bl	800bcf8 <siprintf>
 8003f3e:	f04f 0800 	mov.w	r8, #0
 8003f42:	46c3      	mov	fp, r8
 8003f44:	683b      	ldr	r3, [r7, #0]
 8003f46:	f853 3009 	ldr.w	r3, [r3, r9]
 8003f4a:	7ddb      	ldrb	r3, [r3, #23]
 8003f4c:	2b00      	cmp	r3, #0
 8003f4e:	f000 8131 	beq.w	80041b4 <draw_navigation+0x524>
 8003f52:	f8cd b008 	str.w	fp, [sp, #8]
 8003f56:	f64f 73e0 	movw	r3, #65504	; 0xffe0
 8003f5a:	9301      	str	r3, [sp, #4]
 8003f5c:	686b      	ldr	r3, [r5, #4]
 8003f5e:	9300      	str	r3, [sp, #0]
 8003f60:	4641      	mov	r1, r8
 8003f62:	f108 080b 	add.w	r8, r8, #11
 8003f66:	4652      	mov	r2, sl
 8003f68:	682b      	ldr	r3, [r5, #0]
 8003f6a:	205b      	movs	r0, #91	; 0x5b
 8003f6c:	fa5f f888 	uxtb.w	r8, r8
 8003f70:	f7fd ff64 	bl	8001e3c <draw_str_by_rows>
 8003f74:	f1b8 0f2c 	cmp.w	r8, #44	; 0x2c
 8003f78:	f10a 0a20 	add.w	sl, sl, #32
 8003f7c:	d1e2      	bne.n	8003f44 <draw_navigation+0x2b4>
 8003f7e:	2300      	movs	r3, #0
 8003f80:	f8df 9084 	ldr.w	r9, [pc, #132]	; 8004008 <draw_navigation+0x378>
 8003f84:	9306      	str	r3, [sp, #24]
 8003f86:	4b04      	ldr	r3, [pc, #16]	; (8003f98 <draw_navigation+0x308>)
 8003f88:	f89d 8018 	ldrb.w	r8, [sp, #24]
 8003f8c:	f993 3000 	ldrsb.w	r3, [r3]
 8003f90:	4598      	cmp	r8, r3
 8003f92:	f040 8113 	bne.w	80041bc <draw_navigation+0x52c>
 8003f96:	e039      	b.n	800400c <draw_navigation+0x37c>
 8003f98:	20000946 	.word	0x20000946
 8003f9c:	2000091c 	.word	0x2000091c
 8003fa0:	20000922 	.word	0x20000922
 8003fa4:	2000058c 	.word	0x2000058c
 8003fa8:	20000004 	.word	0x20000004
 8003fac:	08010676 	.word	0x08010676
 8003fb0:	200002f4 	.word	0x200002f4
 8003fb4:	0801067d 	.word	0x0801067d
 8003fb8:	08010684 	.word	0x08010684
 8003fbc:	200002f8 	.word	0x200002f8
 8003fc0:	20000900 	.word	0x20000900
 8003fc4:	20000908 	.word	0x20000908
 8003fc8:	20000914 	.word	0x20000914
 8003fcc:	08010691 	.word	0x08010691
 8003fd0:	2000088c 	.word	0x2000088c
 8003fd4:	20000330 	.word	0x20000330
 8003fd8:	0801069f 	.word	0x0801069f
 8003fdc:	200005ac 	.word	0x200005ac
 8003fe0:	20000528 	.word	0x20000528
 8003fe4:	080106a5 	.word	0x080106a5
 8003fe8:	200005cc 	.word	0x200005cc
 8003fec:	080106aa 	.word	0x080106aa
 8003ff0:	200005ec 	.word	0x200005ec
 8003ff4:	20000014 	.word	0x20000014
 8003ff8:	20000599 	.word	0x20000599
 8003ffc:	200005b9 	.word	0x200005b9
 8004000:	200005d9 	.word	0x200005d9
 8004004:	200005f9 	.word	0x200005f9
 8004008:	20000924 	.word	0x20000924
 800400c:	f44f 63fc 	mov.w	r3, #2016	; 0x7e0
 8004010:	e9cd 8303 	strd	r8, r3, [sp, #12]
 8004014:	2307      	movs	r3, #7
 8004016:	2200      	movs	r2, #0
 8004018:	9302      	str	r3, [sp, #8]
 800401a:	2300      	movs	r3, #0
 800401c:	e9cd 2300 	strd	r2, r3, [sp]
 8004020:	2161      	movs	r1, #97	; 0x61
 8004022:	2200      	movs	r2, #0
 8004024:	203f      	movs	r0, #63	; 0x3f
 8004026:	f7fd fdad 	bl	8001b84 <drawPosition>
 800402a:	9b06      	ldr	r3, [sp, #24]
 800402c:	3301      	adds	r3, #1
 800402e:	9306      	str	r3, [sp, #24]
 8004030:	4ba3      	ldr	r3, [pc, #652]	; (80042c0 <draw_navigation+0x630>)
 8004032:	681b      	ldr	r3, [r3, #0]
 8004034:	789a      	ldrb	r2, [r3, #2]
 8004036:	f89d 3018 	ldrb.w	r3, [sp, #24]
 800403a:	429a      	cmp	r2, r3
 800403c:	d2a3      	bcs.n	8003f86 <draw_navigation+0x2f6>
 800403e:	f64f 73ff 	movw	r3, #65535	; 0xffff
 8004042:	223c      	movs	r2, #60	; 0x3c
 8004044:	2161      	movs	r1, #97	; 0x61
 8004046:	203f      	movs	r0, #63	; 0x3f
 8004048:	f7fd fd0e 	bl	8001a68 <drawCircle>
 800404c:	4b9d      	ldr	r3, [pc, #628]	; (80042c4 <draw_navigation+0x634>)
 800404e:	489e      	ldr	r0, [pc, #632]	; (80042c8 <draw_navigation+0x638>)
 8004050:	f993 2000 	ldrsb.w	r2, [r3]
 8004054:	683b      	ldr	r3, [r7, #0]
 8004056:	f04f 080d 	mov.w	r8, #13
 800405a:	f884 8000 	strb.w	r8, [r4]
 800405e:	f853 3022 	ldr.w	r3, [r3, r2, lsl #2]
 8004062:	f893 3041 	ldrb.w	r3, [r3, #65]	; 0x41
 8004066:	2164      	movs	r1, #100	; 0x64
 8004068:	f503 7387 	add.w	r3, r3, #270	; 0x10e
 800406c:	fbb3 f2f1 	udiv	r2, r3, r1
 8004070:	fb01 3312 	mls	r3, r1, r2, r3
 8004074:	4995      	ldr	r1, [pc, #596]	; (80042cc <draw_navigation+0x63c>)
 8004076:	f007 fe3f 	bl	800bcf8 <siprintf>
 800407a:	f994 1000 	ldrsb.w	r1, [r4]
 800407e:	eb01 0381 	add.w	r3, r1, r1, lsl #2
 8004082:	2700      	movs	r7, #0
 8004084:	460a      	mov	r2, r1
 8004086:	eb01 0143 	add.w	r1, r1, r3, lsl #1
 800408a:	f44f 63fc 	mov.w	r3, #2016	; 0x7e0
 800408e:	e9cd 3701 	strd	r3, r7, [sp, #4]
 8004092:	686b      	ldr	r3, [r5, #4]
 8004094:	9300      	str	r3, [sp, #0]
 8004096:	3107      	adds	r1, #7
 8004098:	682b      	ldr	r3, [r5, #0]
 800409a:	eb06 1242 	add.w	r2, r6, r2, lsl #5
 800409e:	4638      	mov	r0, r7
 80040a0:	b2c9      	uxtb	r1, r1
 80040a2:	f7fd fecb 	bl	8001e3c <draw_str_by_rows>
 80040a6:	4b8a      	ldr	r3, [pc, #552]	; (80042d0 <draw_navigation+0x640>)
 80040a8:	4a8a      	ldr	r2, [pc, #552]	; (80042d4 <draw_navigation+0x644>)
 80040aa:	781b      	ldrb	r3, [r3, #0]
 80040ac:	f994 0000 	ldrsb.w	r0, [r4]
 80040b0:	5cd3      	ldrb	r3, [r2, r3]
 80040b2:	4a89      	ldr	r2, [pc, #548]	; (80042d8 <draw_navigation+0x648>)
 80040b4:	4989      	ldr	r1, [pc, #548]	; (80042dc <draw_navigation+0x64c>)
 80040b6:	8812      	ldrh	r2, [r2, #0]
 80040b8:	f04f 0920 	mov.w	r9, #32
 80040bc:	fb19 8000 	smlabb	r0, r9, r0, r8
 80040c0:	435a      	muls	r2, r3
 80040c2:	4430      	add	r0, r6
 80040c4:	f007 fe18 	bl	800bcf8 <siprintf>
 80040c8:	f994 1000 	ldrsb.w	r1, [r4]
 80040cc:	9702      	str	r7, [sp, #8]
 80040ce:	eb01 0381 	add.w	r3, r1, r1, lsl #2
 80040d2:	fb19 8201 	smlabb	r2, r9, r1, r8
 80040d6:	eb01 0143 	add.w	r1, r1, r3, lsl #1
 80040da:	f64f 73ff 	movw	r3, #65535	; 0xffff
 80040de:	9301      	str	r3, [sp, #4]
 80040e0:	686b      	ldr	r3, [r5, #4]
 80040e2:	9300      	str	r3, [sp, #0]
 80040e4:	3107      	adds	r1, #7
 80040e6:	682b      	ldr	r3, [r5, #0]
 80040e8:	4432      	add	r2, r6
 80040ea:	b2c9      	uxtb	r1, r1
 80040ec:	205c      	movs	r0, #92	; 0x5c
 80040ee:	f7fd fea5 	bl	8001e3c <draw_str_by_rows>
 80040f2:	b009      	add	sp, #36	; 0x24
 80040f4:	e8bd 8ff0 	ldmia.w	sp!, {r4, r5, r6, r7, r8, r9, sl, fp, pc}
 80040f8:	f645 63ff 	movw	r3, #24319	; 0x5eff
 80040fc:	f8cd a008 	str.w	sl, [sp, #8]
 8004100:	9301      	str	r3, [sp, #4]
 8004102:	686b      	ldr	r3, [r5, #4]
 8004104:	9300      	str	r3, [sp, #0]
 8004106:	4651      	mov	r1, sl
 8004108:	682b      	ldr	r3, [r5, #0]
 800410a:	4a75      	ldr	r2, [pc, #468]	; (80042e0 <draw_navigation+0x650>)
 800410c:	2025      	movs	r0, #37	; 0x25
 800410e:	f7fd fe95 	bl	8001e3c <draw_str_by_rows>
 8004112:	4b74      	ldr	r3, [pc, #464]	; (80042e4 <draw_navigation+0x654>)
 8004114:	7820      	ldrb	r0, [r4, #0]
 8004116:	f9b3 2000 	ldrsh.w	r2, [r3]
 800411a:	3001      	adds	r0, #1
 800411c:	b240      	sxtb	r0, r0
 800411e:	2a63      	cmp	r2, #99	; 0x63
 8004120:	7020      	strb	r0, [r4, #0]
 8004122:	eb06 1040 	add.w	r0, r6, r0, lsl #5
 8004126:	bfd4      	ite	le
 8004128:	496f      	ldrle	r1, [pc, #444]	; (80042e8 <draw_navigation+0x658>)
 800412a:	4970      	ldrgt	r1, [pc, #448]	; (80042ec <draw_navigation+0x65c>)
 800412c:	3004      	adds	r0, #4
 800412e:	f007 fde3 	bl	800bcf8 <siprintf>
 8004132:	f994 1000 	ldrsb.w	r1, [r4]
 8004136:	eb01 03c1 	add.w	r3, r1, r1, lsl #3
 800413a:	eb06 1241 	add.w	r2, r6, r1, lsl #5
 800413e:	eb01 0143 	add.w	r1, r1, r3, lsl #1
 8004142:	2300      	movs	r3, #0
 8004144:	9302      	str	r3, [sp, #8]
 8004146:	f44f 63fc 	mov.w	r3, #2016	; 0x7e0
 800414a:	e5f0      	b.n	8003d2e <draw_navigation+0x9e>
 800414c:	4642      	mov	r2, r8
 800414e:	462b      	mov	r3, r5
 8004150:	a159      	add	r1, pc, #356	; (adr r1, 80042b8 <draw_navigation+0x628>)
 8004152:	e9d1 0100 	ldrd	r0, r1, [r1]
 8004156:	f7fc f867 	bl	8000228 <__aeabi_dsub>
 800415a:	4680      	mov	r8, r0
 800415c:	460d      	mov	r5, r1
 800415e:	e5fd      	b.n	8003d5c <draw_navigation+0xcc>
 8004160:	4540      	cmp	r0, r8
 8004162:	d005      	beq.n	8004170 <draw_navigation+0x4e0>
 8004164:	f853 1028 	ldr.w	r1, [r3, r8, lsl #2]
 8004168:	7dc9      	ldrb	r1, [r1, #23]
 800416a:	2900      	cmp	r1, #0
 800416c:	f47f ae30 	bne.w	8003dd0 <draw_navigation+0x140>
 8004170:	4590      	cmp	r8, r2
 8004172:	d004      	beq.n	800417e <draw_navigation+0x4ee>
 8004174:	f108 0801 	add.w	r8, r8, #1
 8004178:	fa5f f888 	uxtb.w	r8, r8
 800417c:	e625      	b.n	8003dca <draw_navigation+0x13a>
 800417e:	f04f 0800 	mov.w	r8, #0
 8004182:	e625      	b.n	8003dd0 <draw_navigation+0x140>
 8004184:	495a      	ldr	r1, [pc, #360]	; (80042f0 <draw_navigation+0x660>)
 8004186:	e630      	b.n	8003dea <draw_navigation+0x15a>
 8004188:	f64f 031f 	movw	r3, #63519	; 0xf81f
 800418c:	9002      	str	r0, [sp, #8]
 800418e:	9301      	str	r3, [sp, #4]
 8004190:	686b      	ldr	r3, [r5, #4]
 8004192:	9300      	str	r3, [sp, #0]
 8004194:	682b      	ldr	r3, [r5, #0]
 8004196:	465a      	mov	r2, fp
 8004198:	4641      	mov	r1, r8
 800419a:	e675      	b.n	8003e88 <draw_navigation+0x1f8>
 800419c:	4298      	cmp	r0, r3
 800419e:	d005      	beq.n	80041ac <draw_navigation+0x51c>
 80041a0:	f852 1023 	ldr.w	r1, [r2, r3, lsl #2]
 80041a4:	7dc9      	ldrb	r1, [r1, #23]
 80041a6:	2900      	cmp	r1, #0
 80041a8:	f47f ae86 	bne.w	8003eb8 <draw_navigation+0x228>
 80041ac:	3b01      	subs	r3, #1
 80041ae:	e67d      	b.n	8003eac <draw_navigation+0x21c>
 80041b0:	494f      	ldr	r1, [pc, #316]	; (80042f0 <draw_navigation+0x660>)
 80041b2:	e68d      	b.n	8003ed0 <draw_navigation+0x240>
 80041b4:	9302      	str	r3, [sp, #8]
 80041b6:	f64f 031f 	movw	r3, #63519	; 0xf81f
 80041ba:	e6ce      	b.n	8003f5a <draw_navigation+0x2ca>
 80041bc:	4b4d      	ldr	r3, [pc, #308]	; (80042f4 <draw_navigation+0x664>)
 80041be:	f933 b018 	ldrsh.w	fp, [r3, r8, lsl #1]
 80041c2:	683b      	ldr	r3, [r7, #0]
 80041c4:	f853 3028 	ldr.w	r3, [r3, r8, lsl #2]
 80041c8:	7ddb      	ldrb	r3, [r3, #23]
 80041ca:	2b00      	cmp	r3, #0
 80041cc:	d05e      	beq.n	800428c <draw_navigation+0x5fc>
 80041ce:	ea4f 03c8 	mov.w	r3, r8, lsl #3
 80041d2:	9307      	str	r3, [sp, #28]
 80041d4:	4b48      	ldr	r3, [pc, #288]	; (80042f8 <draw_navigation+0x668>)
 80041d6:	f8df a124 	ldr.w	sl, [pc, #292]	; 80042fc <draw_navigation+0x66c>
 80041da:	eb03 03c8 	add.w	r3, r3, r8, lsl #3
 80041de:	e9d3 0100 	ldrd	r0, r1, [r3]
 80041e2:	f7fc fc89 	bl	8000af8 <__aeabi_d2iz>
 80041e6:	4b3a      	ldr	r3, [pc, #232]	; (80042d0 <draw_navigation+0x640>)
 80041e8:	4a3a      	ldr	r2, [pc, #232]	; (80042d4 <draw_navigation+0x644>)
 80041ea:	781b      	ldrb	r3, [r3, #0]
 80041ec:	4944      	ldr	r1, [pc, #272]	; (8004300 <draw_navigation+0x670>)
 80041ee:	5cd3      	ldrb	r3, [r2, r3]
 80041f0:	f3c0 000c 	ubfx	r0, r0, #0, #13
 80041f4:	0040      	lsls	r0, r0, #1
 80041f6:	fbb0 f0f3 	udiv	r0, r0, r3
 80041fa:	ea4f 03c8 	mov.w	r3, r8, lsl #3
 80041fe:	4419      	add	r1, r3
 8004200:	4b40      	ldr	r3, [pc, #256]	; (8004304 <draw_navigation+0x674>)
 8004202:	f8a9 0000 	strh.w	r0, [r9]
 8004206:	e9d3 2300 	ldrd	r2, r3, [r3]
 800420a:	e9d1 0100 	ldrd	r0, r1, [r1]
 800420e:	f7fc f80b 	bl	8000228 <__aeabi_dsub>
 8004212:	2308      	movs	r3, #8
 8004214:	e9ca 0100 	strd	r0, r1, [sl]
 8004218:	9302      	str	r3, [sp, #8]
 800421a:	4b3b      	ldr	r3, [pc, #236]	; (8004308 <draw_navigation+0x678>)
 800421c:	ea4f 02c8 	mov.w	r2, r8, lsl #3
 8004220:	4413      	add	r3, r2
 8004222:	e9d3 2300 	ldrd	r2, r3, [r3]
 8004226:	2161      	movs	r1, #97	; 0x61
 8004228:	e9cd 2300 	strd	r2, r3, [sp]
 800422c:	203f      	movs	r0, #63	; 0x3f
 800422e:	465a      	mov	r2, fp
 8004230:	f7fd fd94 	bl	8001d5c <erasePosition>
 8004234:	4b28      	ldr	r3, [pc, #160]	; (80042d8 <draw_navigation+0x648>)
 8004236:	f9b9 2000 	ldrsh.w	r2, [r9]
 800423a:	8818      	ldrh	r0, [r3, #0]
 800423c:	ebb2 0f40 	cmp.w	r2, r0, lsl #1
 8004240:	ea4f 0340 	mov.w	r3, r0, lsl #1
 8004244:	bfca      	itet	gt
 8004246:	b21a      	sxthgt	r2, r3
 8004248:	f64f 73e0 	movwle	r3, #65504	; 0xffe0
 800424c:	f64f 0322 	movwgt	r3, #63522	; 0xf822
 8004250:	fa0f f188 	sxth.w	r1, r8
 8004254:	bfc8      	it	gt
 8004256:	f8a9 2000 	strhgt.w	r2, [r9]
 800425a:	e9cd 1303 	strd	r1, r3, [sp, #12]
 800425e:	2307      	movs	r3, #7
 8004260:	9302      	str	r3, [sp, #8]
 8004262:	e9da 0100 	ldrd	r0, r1, [sl]
 8004266:	e9cd 0100 	strd	r0, r1, [sp]
 800426a:	2161      	movs	r1, #97	; 0x61
 800426c:	203f      	movs	r0, #63	; 0x3f
 800426e:	f7fd fc89 	bl	8001b84 <drawPosition>
 8004272:	4b20      	ldr	r3, [pc, #128]	; (80042f4 <draw_navigation+0x664>)
 8004274:	f8b9 2000 	ldrh.w	r2, [r9]
 8004278:	f823 2018 	strh.w	r2, [r3, r8, lsl #1]
 800427c:	9907      	ldr	r1, [sp, #28]
 800427e:	4b22      	ldr	r3, [pc, #136]	; (8004308 <draw_navigation+0x678>)
 8004280:	4419      	add	r1, r3
 8004282:	e9da 2300 	ldrd	r2, r3, [sl]
 8004286:	e9c1 2300 	strd	r2, r3, [r1]
 800428a:	e6ce      	b.n	800402a <draw_navigation+0x39a>
 800428c:	f1bb 0f03 	cmp.w	fp, #3
 8004290:	f77f aecb 	ble.w	800402a <draw_navigation+0x39a>
 8004294:	2308      	movs	r3, #8
 8004296:	9302      	str	r3, [sp, #8]
 8004298:	4b1b      	ldr	r3, [pc, #108]	; (8004308 <draw_navigation+0x678>)
 800429a:	eb03 08c8 	add.w	r8, r3, r8, lsl #3
 800429e:	e9d8 2300 	ldrd	r2, r3, [r8]
 80042a2:	2161      	movs	r1, #97	; 0x61
 80042a4:	e9cd 2300 	strd	r2, r3, [sp]
 80042a8:	203f      	movs	r0, #63	; 0x3f
 80042aa:	465a      	mov	r2, fp
 80042ac:	f7fd fd56 	bl	8001d5c <erasePosition>
 80042b0:	e6bb      	b.n	800402a <draw_navigation+0x39a>
 80042b2:	bf00      	nop
 80042b4:	f3af 8000 	nop.w
 80042b8:	54442d18 	.word	0x54442d18
 80042bc:	401921fb 	.word	0x401921fb
 80042c0:	20000914 	.word	0x20000914
 80042c4:	20000946 	.word	0x20000946
 80042c8:	2000072c 	.word	0x2000072c
 80042cc:	080106b0 	.word	0x080106b0
 80042d0:	20000920 	.word	0x20000920
 80042d4:	20000052 	.word	0x20000052
 80042d8:	20000050 	.word	0x20000050
 80042dc:	080106a5 	.word	0x080106a5
 80042e0:	0801068b 	.word	0x0801068b
 80042e4:	200002f4 	.word	0x200002f4
 80042e8:	0801067d 	.word	0x0801067d
 80042ec:	08010684 	.word	0x08010684
 80042f0:	08010698 	.word	0x08010698
 80042f4:	200008ea 	.word	0x200008ea
 80042f8:	20000528 	.word	0x20000528
 80042fc:	20000890 	.word	0x20000890
 8004300:	20000348 	.word	0x20000348
 8004304:	200002f8 	.word	0x200002f8
 8004308:	20000898 	.word	0x20000898

0800430c <set_timeout_ok>:
 800430c:	b508      	push	{r3, lr}
 800430e:	4b07      	ldr	r3, [pc, #28]	; (800432c <set_timeout_ok+0x20>)
 8004310:	4807      	ldr	r0, [pc, #28]	; (8004330 <set_timeout_ok+0x24>)
 8004312:	681b      	ldr	r3, [r3, #0]
 8004314:	79c2      	ldrb	r2, [r0, #7]
 8004316:	79db      	ldrb	r3, [r3, #7]
 8004318:	429a      	cmp	r2, r3
 800431a:	d003      	beq.n	8004324 <set_timeout_ok+0x18>
 800431c:	f001 fac0 	bl	80058a0 <settings_save>
 8004320:	f001 fa5e 	bl	80057e0 <settings_load>
 8004324:	4b03      	ldr	r3, [pc, #12]	; (8004334 <set_timeout_ok+0x28>)
 8004326:	2207      	movs	r2, #7
 8004328:	701a      	strb	r2, [r3, #0]
 800432a:	bd08      	pop	{r3, pc}
 800432c:	20000914 	.word	0x20000914
 8004330:	20000926 	.word	0x20000926
 8004334:	200008e9 	.word	0x200008e9

08004338 <set_fence_ok>:
 8004338:	b508      	push	{r3, lr}
 800433a:	4b07      	ldr	r3, [pc, #28]	; (8004358 <set_fence_ok+0x20>)
 800433c:	4807      	ldr	r0, [pc, #28]	; (800435c <set_fence_ok+0x24>)
 800433e:	681b      	ldr	r3, [r3, #0]
 8004340:	7a02      	ldrb	r2, [r0, #8]
 8004342:	7a1b      	ldrb	r3, [r3, #8]
 8004344:	429a      	cmp	r2, r3
 8004346:	d003      	beq.n	8004350 <set_fence_ok+0x18>
 8004348:	f001 faaa 	bl	80058a0 <settings_save>
 800434c:	f001 fa48 	bl	80057e0 <settings_load>
 8004350:	4b03      	ldr	r3, [pc, #12]	; (8004360 <set_fence_ok+0x28>)
 8004352:	2207      	movs	r2, #7
 8004354:	701a      	strb	r2, [r3, #0]
 8004356:	bd08      	pop	{r3, pc}
 8004358:	20000914 	.word	0x20000914
 800435c:	20000926 	.word	0x20000926
 8004360:	200008e9 	.word	0x200008e9

08004364 <set_timezone_ok>:
 8004364:	b508      	push	{r3, lr}
 8004366:	4b08      	ldr	r3, [pc, #32]	; (8004388 <set_timezone_ok+0x24>)
 8004368:	4808      	ldr	r0, [pc, #32]	; (800438c <set_timezone_ok+0x28>)
 800436a:	681b      	ldr	r3, [r3, #0]
 800436c:	f990 2009 	ldrsb.w	r2, [r0, #9]
 8004370:	f993 3009 	ldrsb.w	r3, [r3, #9]
 8004374:	429a      	cmp	r2, r3
 8004376:	d003      	beq.n	8004380 <set_timezone_ok+0x1c>
 8004378:	f001 fa92 	bl	80058a0 <settings_save>
 800437c:	f001 fa30 	bl	80057e0 <settings_load>
 8004380:	4b03      	ldr	r3, [pc, #12]	; (8004390 <set_timezone_ok+0x2c>)
 8004382:	2207      	movs	r2, #7
 8004384:	701a      	strb	r2, [r3, #0]
 8004386:	bd08      	pop	{r3, pc}
 8004388:	20000914 	.word	0x20000914
 800438c:	20000926 	.word	0x20000926
 8004390:	200008e9 	.word	0x200008e9

08004394 <confirm_settings_reboot>:
 8004394:	b51f      	push	{r0, r1, r2, r3, r4, lr}
 8004396:	2000      	movs	r0, #0
 8004398:	f7fd fe7e 	bl	8002098 <fill_screen>
 800439c:	4b0d      	ldr	r3, [pc, #52]	; (80043d4 <confirm_settings_reboot+0x40>)
 800439e:	2204      	movs	r2, #4
 80043a0:	701a      	strb	r2, [r3, #0]
 80043a2:	2400      	movs	r4, #0
 80043a4:	f64f 72e0 	movw	r2, #65504	; 0xffe0
 80043a8:	e9cd 2401 	strd	r2, r4, [sp, #4]
 80043ac:	4b0a      	ldr	r3, [pc, #40]	; (80043d8 <confirm_settings_reboot+0x44>)
 80043ae:	685a      	ldr	r2, [r3, #4]
 80043b0:	9200      	str	r2, [sp, #0]
 80043b2:	2148      	movs	r1, #72	; 0x48
 80043b4:	4a09      	ldr	r2, [pc, #36]	; (80043dc <confirm_settings_reboot+0x48>)
 80043b6:	681b      	ldr	r3, [r3, #0]
 80043b8:	4620      	mov	r0, r4
 80043ba:	f7fd fd3f 	bl	8001e3c <draw_str_by_rows>
 80043be:	4b08      	ldr	r3, [pc, #32]	; (80043e0 <confirm_settings_reboot+0x4c>)
 80043c0:	4808      	ldr	r0, [pc, #32]	; (80043e4 <confirm_settings_reboot+0x50>)
 80043c2:	701c      	strb	r4, [r3, #0]
 80043c4:	f001 fa6c 	bl	80058a0 <settings_save>
 80043c8:	f44f 707a 	mov.w	r0, #1000	; 0x3e8
 80043cc:	f001 fbbc 	bl	8005b48 <HAL_Delay>
 80043d0:	f7ff f91c 	bl	800360c <__NVIC_SystemReset>
 80043d4:	20000922 	.word	0x20000922
 80043d8:	20000004 	.word	0x20000004
 80043dc:	080106b9 	.word	0x080106b9
 80043e0:	200008fe 	.word	0x200008fe
 80043e4:	20000926 	.word	0x20000926

080043e8 <donot_save_settings>:
 80043e8:	b51f      	push	{r0, r1, r2, r3, r4, lr}
 80043ea:	2000      	movs	r0, #0
 80043ec:	f7fd fe54 	bl	8002098 <fill_screen>
 80043f0:	4b0a      	ldr	r3, [pc, #40]	; (800441c <donot_save_settings+0x34>)
 80043f2:	2204      	movs	r2, #4
 80043f4:	701a      	strb	r2, [r3, #0]
 80043f6:	2000      	movs	r0, #0
 80043f8:	f64f 72e0 	movw	r2, #65504	; 0xffe0
 80043fc:	e9cd 2001 	strd	r2, r0, [sp, #4]
 8004400:	4b07      	ldr	r3, [pc, #28]	; (8004420 <donot_save_settings+0x38>)
 8004402:	685a      	ldr	r2, [r3, #4]
 8004404:	9200      	str	r2, [sp, #0]
 8004406:	681b      	ldr	r3, [r3, #0]
 8004408:	4a06      	ldr	r2, [pc, #24]	; (8004424 <donot_save_settings+0x3c>)
 800440a:	2148      	movs	r1, #72	; 0x48
 800440c:	f7fd fd16 	bl	8001e3c <draw_str_by_rows>
 8004410:	f44f 707a 	mov.w	r0, #1000	; 0x3e8
 8004414:	f001 fb98 	bl	8005b48 <HAL_Delay>
 8004418:	f7ff f8f8 	bl	800360c <__NVIC_SystemReset>
 800441c:	20000922 	.word	0x20000922
 8004420:	20000004 	.word	0x20000004
 8004424:	080106c4 	.word	0x080106c4

08004428 <confirm_settings_restore>:
 8004428:	b51f      	push	{r0, r1, r2, r3, r4, lr}
 800442a:	2000      	movs	r0, #0
 800442c:	f7fd fe34 	bl	8002098 <fill_screen>
 8004430:	4b0c      	ldr	r3, [pc, #48]	; (8004464 <confirm_settings_restore+0x3c>)
 8004432:	2204      	movs	r2, #4
 8004434:	701a      	strb	r2, [r3, #0]
 8004436:	2000      	movs	r0, #0
 8004438:	f64f 72e0 	movw	r2, #65504	; 0xffe0
 800443c:	e9cd 2001 	strd	r2, r0, [sp, #4]
 8004440:	4b09      	ldr	r3, [pc, #36]	; (8004468 <confirm_settings_restore+0x40>)
 8004442:	685a      	ldr	r2, [r3, #4]
 8004444:	9200      	str	r2, [sp, #0]
 8004446:	2148      	movs	r1, #72	; 0x48
 8004448:	4a08      	ldr	r2, [pc, #32]	; (800446c <confirm_settings_restore+0x44>)
 800444a:	681b      	ldr	r3, [r3, #0]
 800444c:	f7fd fcf6 	bl	8001e3c <draw_str_by_rows>
 8004450:	4b07      	ldr	r3, [pc, #28]	; (8004470 <confirm_settings_restore+0x48>)
 8004452:	6818      	ldr	r0, [r3, #0]
 8004454:	f001 f988 	bl	8005768 <settings_save_default>
 8004458:	f44f 707a 	mov.w	r0, #1000	; 0x3e8
 800445c:	f001 fb74 	bl	8005b48 <HAL_Delay>
 8004460:	f7ff f8d4 	bl	800360c <__NVIC_SystemReset>
 8004464:	20000922 	.word	0x20000922
 8004468:	20000004 	.word	0x20000004
 800446c:	080106c4 	.word	0x080106c4
 8004470:	20000914 	.word	0x20000914

08004474 <set_device_number_down>:
 8004474:	4a07      	ldr	r2, [pc, #28]	; (8004494 <set_device_number_down+0x20>)
 8004476:	7853      	ldrb	r3, [r2, #1]
 8004478:	2b01      	cmp	r3, #1
 800447a:	d109      	bne.n	8004490 <set_device_number_down+0x1c>
 800447c:	7893      	ldrb	r3, [r2, #2]
 800447e:	2b03      	cmp	r3, #3
 8004480:	bf1a      	itte	ne
 8004482:	f103 33ff 	addne.w	r3, r3, #4294967295	; 0xffffffff
 8004486:	b2db      	uxtbne	r3, r3
 8004488:	2305      	moveq	r3, #5
 800448a:	7093      	strb	r3, [r2, #2]
 800448c:	7053      	strb	r3, [r2, #1]
 800448e:	4770      	bx	lr
 8004490:	3b01      	subs	r3, #1
 8004492:	e7fb      	b.n	800448c <set_device_number_down+0x18>
 8004494:	20000926 	.word	0x20000926

08004498 <draw_confirm_settings>:
 8004498:	e92d 43f0 	stmdb	sp!, {r4, r5, r6, r7, r8, r9, lr}
 800449c:	4b38      	ldr	r3, [pc, #224]	; (8004580 <draw_confirm_settings+0xe8>)
 800449e:	781b      	ldrb	r3, [r3, #0]
 80044a0:	b085      	sub	sp, #20
 80044a2:	2b00      	cmp	r3, #0
 80044a4:	d068      	beq.n	8004578 <draw_confirm_settings+0xe0>
 80044a6:	4937      	ldr	r1, [pc, #220]	; (8004584 <draw_confirm_settings+0xec>)
 80044a8:	4837      	ldr	r0, [pc, #220]	; (8004588 <draw_confirm_settings+0xf0>)
 80044aa:	f8df 80dc 	ldr.w	r8, [pc, #220]	; 8004588 <draw_confirm_settings+0xf0>
 80044ae:	4c37      	ldr	r4, [pc, #220]	; (800458c <draw_confirm_settings+0xf4>)
 80044b0:	f007 fc42 	bl	800bd38 <strcpy>
 80044b4:	4936      	ldr	r1, [pc, #216]	; (8004590 <draw_confirm_settings+0xf8>)
 80044b6:	4837      	ldr	r0, [pc, #220]	; (8004594 <draw_confirm_settings+0xfc>)
 80044b8:	f007 fc3e 	bl	800bd38 <strcpy>
 80044bc:	4936      	ldr	r1, [pc, #216]	; (8004598 <draw_confirm_settings+0x100>)
 80044be:	4837      	ldr	r0, [pc, #220]	; (800459c <draw_confirm_settings+0x104>)
 80044c0:	f007 fc3a 	bl	800bd38 <strcpy>
 80044c4:	250b      	movs	r5, #11
 80044c6:	2600      	movs	r6, #0
 80044c8:	f44f 67fc 	mov.w	r7, #2016	; 0x7e0
 80044cc:	6863      	ldr	r3, [r4, #4]
 80044ce:	9300      	str	r3, [sp, #0]
 80044d0:	4629      	mov	r1, r5
 80044d2:	350b      	adds	r5, #11
 80044d4:	4642      	mov	r2, r8
 80044d6:	e9cd 7601 	strd	r7, r6, [sp, #4]
 80044da:	6823      	ldr	r3, [r4, #0]
 80044dc:	2000      	movs	r0, #0
 80044de:	b2ed      	uxtb	r5, r5
 80044e0:	f7fd fcac 	bl	8001e3c <draw_str_by_rows>
 80044e4:	2d2c      	cmp	r5, #44	; 0x2c
 80044e6:	f108 0820 	add.w	r8, r8, #32
 80044ea:	d1ef      	bne.n	80044cc <draw_confirm_settings+0x34>
 80044ec:	f8df 80b0 	ldr.w	r8, [pc, #176]	; 80045a0 <draw_confirm_settings+0x108>
 80044f0:	9602      	str	r6, [sp, #8]
 80044f2:	f64f 79e0 	movw	r9, #65504	; 0xffe0
 80044f6:	f8cd 9004 	str.w	r9, [sp, #4]
 80044fa:	f8d8 3004 	ldr.w	r3, [r8, #4]
 80044fe:	9300      	str	r3, [sp, #0]
 8004500:	f8d8 3000 	ldr.w	r3, [r8]
 8004504:	4a27      	ldr	r2, [pc, #156]	; (80045a4 <draw_confirm_settings+0x10c>)
 8004506:	4629      	mov	r1, r5
 8004508:	2000      	movs	r0, #0
 800450a:	f7fd fc97 	bl	8001e3c <draw_str_by_rows>
 800450e:	6863      	ldr	r3, [r4, #4]
 8004510:	4a25      	ldr	r2, [pc, #148]	; (80045a8 <draw_confirm_settings+0x110>)
 8004512:	9300      	str	r3, [sp, #0]
 8004514:	2142      	movs	r1, #66	; 0x42
 8004516:	6823      	ldr	r3, [r4, #0]
 8004518:	2000      	movs	r0, #0
 800451a:	e9cd 7601 	strd	r7, r6, [sp, #4]
 800451e:	f7fd fc8d 	bl	8001e3c <draw_str_by_rows>
 8004522:	e9cd 9601 	strd	r9, r6, [sp, #4]
 8004526:	f8d8 3004 	ldr.w	r3, [r8, #4]
 800452a:	9300      	str	r3, [sp, #0]
 800452c:	f8d8 3000 	ldr.w	r3, [r8]
 8004530:	4a1e      	ldr	r2, [pc, #120]	; (80045ac <draw_confirm_settings+0x114>)
 8004532:	2158      	movs	r1, #88	; 0x58
 8004534:	2000      	movs	r0, #0
 8004536:	f7fd fc81 	bl	8001e3c <draw_str_by_rows>
 800453a:	491d      	ldr	r1, [pc, #116]	; (80045b0 <draw_confirm_settings+0x118>)
 800453c:	481d      	ldr	r0, [pc, #116]	; (80045b4 <draw_confirm_settings+0x11c>)
 800453e:	f007 fbfb 	bl	800bd38 <strcpy>
 8004542:	491d      	ldr	r1, [pc, #116]	; (80045b8 <draw_confirm_settings+0x120>)
 8004544:	481d      	ldr	r0, [pc, #116]	; (80045bc <draw_confirm_settings+0x124>)
 8004546:	f007 fbf7 	bl	800bd38 <strcpy>
 800454a:	6863      	ldr	r3, [r4, #4]
 800454c:	4a19      	ldr	r2, [pc, #100]	; (80045b4 <draw_confirm_settings+0x11c>)
 800454e:	9300      	str	r3, [sp, #0]
 8004550:	216e      	movs	r1, #110	; 0x6e
 8004552:	6823      	ldr	r3, [r4, #0]
 8004554:	2000      	movs	r0, #0
 8004556:	e9cd 7601 	strd	r7, r6, [sp, #4]
 800455a:	f7fd fc6f 	bl	8001e3c <draw_str_by_rows>
 800455e:	6863      	ldr	r3, [r4, #4]
 8004560:	9300      	str	r3, [sp, #0]
 8004562:	e9cd 7601 	strd	r7, r6, [sp, #4]
 8004566:	6823      	ldr	r3, [r4, #0]
 8004568:	4a14      	ldr	r2, [pc, #80]	; (80045bc <draw_confirm_settings+0x124>)
 800456a:	2179      	movs	r1, #121	; 0x79
 800456c:	2000      	movs	r0, #0
 800456e:	f7fd fc65 	bl	8001e3c <draw_str_by_rows>
 8004572:	b005      	add	sp, #20
 8004574:	e8bd 83f0 	ldmia.w	sp!, {r4, r5, r6, r7, r8, r9, pc}
 8004578:	4b11      	ldr	r3, [pc, #68]	; (80045c0 <draw_confirm_settings+0x128>)
 800457a:	2201      	movs	r2, #1
 800457c:	701a      	strb	r2, [r3, #0]
 800457e:	e7f8      	b.n	8004572 <draw_confirm_settings+0xda>
 8004580:	200008fe 	.word	0x200008fe
 8004584:	08010803 	.word	0x08010803
 8004588:	200005ac 	.word	0x200005ac
 800458c:	20000014 	.word	0x20000014
 8004590:	080106d0 	.word	0x080106d0
 8004594:	200005cc 	.word	0x200005cc
 8004598:	08010a05 	.word	0x08010a05
 800459c:	200005ec 	.word	0x200005ec
 80045a0:	20000004 	.word	0x20000004
 80045a4:	080106e2 	.word	0x080106e2
 80045a8:	080106ee 	.word	0x080106ee
 80045ac:	080105d9 	.word	0x080105d9
 80045b0:	08010700 	.word	0x08010700
 80045b4:	2000068c 	.word	0x2000068c
 80045b8:	0801070f 	.word	0x0801070f
 80045bc:	200006ac 	.word	0x200006ac
 80045c0:	200008e9 	.word	0x200008e9

080045c4 <devices_esc>:
 80045c4:	4b01      	ldr	r3, [pc, #4]	; (80045cc <devices_esc+0x8>)
 80045c6:	2201      	movs	r2, #1
 80045c8:	701a      	strb	r2, [r3, #0]
 80045ca:	4770      	bx	lr
 80045cc:	200008e9 	.word	0x200008e9

080045d0 <get_current_item>:
 80045d0:	b530      	push	{r4, r5, lr}
 80045d2:	4b08      	ldr	r3, [pc, #32]	; (80045f4 <get_current_item+0x24>)
 80045d4:	4908      	ldr	r1, [pc, #32]	; (80045f8 <get_current_item+0x28>)
 80045d6:	781d      	ldrb	r5, [r3, #0]
 80045d8:	2200      	movs	r2, #0
 80045da:	b2d3      	uxtb	r3, r2
 80045dc:	eb03 0343 	add.w	r3, r3, r3, lsl #1
 80045e0:	18cc      	adds	r4, r1, r3
 80045e2:	5cc8      	ldrb	r0, [r1, r3]
 80045e4:	b120      	cbz	r0, 80045f0 <get_current_item+0x20>
 80045e6:	4285      	cmp	r5, r0
 80045e8:	f102 0201 	add.w	r2, r2, #1
 80045ec:	d1f5      	bne.n	80045da <get_current_item+0xa>
 80045ee:	7860      	ldrb	r0, [r4, #1]
 80045f0:	bd30      	pop	{r4, r5, pc}
 80045f2:	bf00      	nop
 80045f4:	200008e9 	.word	0x200008e9
 80045f8:	20000044 	.word	0x20000044

080045fc <switch_forward>:
 80045fc:	e92d 41f0 	stmdb	sp!, {r4, r5, r6, r7, r8, lr}
 8004600:	4f0b      	ldr	r7, [pc, #44]	; (8004630 <switch_forward+0x34>)
 8004602:	4d0c      	ldr	r5, [pc, #48]	; (8004634 <switch_forward+0x38>)
 8004604:	f897 8000 	ldrb.w	r8, [r7]
 8004608:	2400      	movs	r4, #0
 800460a:	b2e3      	uxtb	r3, r4
 800460c:	eb03 0343 	add.w	r3, r3, r3, lsl #1
 8004610:	18ee      	adds	r6, r5, r3
 8004612:	5ceb      	ldrb	r3, [r5, r3]
 8004614:	b143      	cbz	r3, 8004628 <switch_forward+0x2c>
 8004616:	4598      	cmp	r8, r3
 8004618:	d108      	bne.n	800462c <switch_forward+0x30>
 800461a:	f7ff ffd9 	bl	80045d0 <get_current_item>
 800461e:	7873      	ldrb	r3, [r6, #1]
 8004620:	4283      	cmp	r3, r0
 8004622:	d103      	bne.n	800462c <switch_forward+0x30>
 8004624:	78b3      	ldrb	r3, [r6, #2]
 8004626:	703b      	strb	r3, [r7, #0]
 8004628:	e8bd 81f0 	ldmia.w	sp!, {r4, r5, r6, r7, r8, pc}
 800462c:	3401      	adds	r4, #1
 800462e:	e7ec      	b.n	800460a <switch_forward+0xe>
 8004630:	200008e9 	.word	0x200008e9
 8004634:	08010cd0 	.word	0x08010cd0

08004638 <draw_main>:
 8004638:	e92d 4ff0 	stmdb	sp!, {r4, r5, r6, r7, r8, r9, sl, fp, lr}
 800463c:	4fbb      	ldr	r7, [pc, #748]	; (800492c <draw_main+0x2f4>)
 800463e:	4cbc      	ldr	r4, [pc, #752]	; (8004930 <draw_main+0x2f8>)
 8004640:	f8df 82f0 	ldr.w	r8, [pc, #752]	; 8004934 <draw_main+0x2fc>
 8004644:	f8df 92f0 	ldr.w	r9, [pc, #752]	; 8004938 <draw_main+0x300>
 8004648:	f897 a00d 	ldrb.w	sl, [r7, #13]
 800464c:	f897 b00c 	ldrb.w	fp, [r7, #12]
 8004650:	7af8      	ldrb	r0, [r7, #11]
 8004652:	7abe      	ldrb	r6, [r7, #10]
 8004654:	7bb9      	ldrb	r1, [r7, #14]
 8004656:	f998 2000 	ldrsb.w	r2, [r8]
 800465a:	2300      	movs	r3, #0
 800465c:	7023      	strb	r3, [r4, #0]
 800465e:	f8d9 3000 	ldr.w	r3, [r9]
 8004662:	f853 3022 	ldr.w	r3, [r3, r2, lsl #2]
 8004666:	7e1d      	ldrb	r5, [r3, #24]
 8004668:	b085      	sub	sp, #20
 800466a:	2d00      	cmp	r5, #0
 800466c:	f000 8101 	beq.w	8004872 <draw_main+0x23a>
 8004670:	f5a6 66fa 	sub.w	r6, r6, #2000	; 0x7d0
 8004674:	eb06 2600 	add.w	r6, r6, r0, lsl #8
 8004678:	48b0      	ldr	r0, [pc, #704]	; (800493c <draw_main+0x304>)
 800467a:	6800      	ldr	r0, [r0, #0]
 800467c:	7a45      	ldrb	r5, [r0, #9]
 800467e:	440d      	add	r5, r1
 8004680:	b2ed      	uxtb	r5, r5
 8004682:	2d17      	cmp	r5, #23
 8004684:	b2b6      	uxth	r6, r6
 8004686:	d901      	bls.n	800468c <draw_main+0x54>
 8004688:	3d18      	subs	r5, #24
 800468a:	b2ed      	uxtb	r5, r5
 800468c:	f893 1041 	ldrb.w	r1, [r3, #65]	; 0x41
 8004690:	2931      	cmp	r1, #49	; 0x31
 8004692:	f200 80f2 	bhi.w	800487a <draw_main+0x242>
 8004696:	49aa      	ldr	r1, [pc, #680]	; (8004940 <draw_main+0x308>)
 8004698:	48aa      	ldr	r0, [pc, #680]	; (8004944 <draw_main+0x30c>)
 800469a:	f007 fb2d 	bl	800bcf8 <siprintf>
 800469e:	7820      	ldrb	r0, [r4, #0]
 80046a0:	49a9      	ldr	r1, [pc, #676]	; (8004948 <draw_main+0x310>)
 80046a2:	3001      	adds	r0, #1
 80046a4:	b240      	sxtb	r0, r0
 80046a6:	7020      	strb	r0, [r4, #0]
 80046a8:	7c3b      	ldrb	r3, [r7, #16]
 80046aa:	9303      	str	r3, [sp, #12]
 80046ac:	7bfb      	ldrb	r3, [r7, #15]
 80046ae:	9600      	str	r6, [sp, #0]
 80046b0:	e9cd 5301 	strd	r5, r3, [sp, #4]
 80046b4:	4da3      	ldr	r5, [pc, #652]	; (8004944 <draw_main+0x30c>)
 80046b6:	465b      	mov	r3, fp
 80046b8:	4652      	mov	r2, sl
 80046ba:	eb05 1040 	add.w	r0, r5, r0, lsl #5
 80046be:	f007 fb1b 	bl	800bcf8 <siprintf>
 80046c2:	2600      	movs	r6, #0
 80046c4:	4da1      	ldr	r5, [pc, #644]	; (800494c <draw_main+0x314>)
 80046c6:	f04f 0b01 	mov.w	fp, #1
 80046ca:	4637      	mov	r7, r6
 80046cc:	f64f 7aff 	movw	sl, #65535	; 0xffff
 80046d0:	f994 0000 	ldrsb.w	r0, [r4]
 80046d4:	b2f2      	uxtb	r2, r6
 80046d6:	4290      	cmp	r0, r2
 80046d8:	f106 0601 	add.w	r6, r6, #1
 80046dc:	f280 80da 	bge.w	8004894 <draw_main+0x25c>
 80046e0:	4f9b      	ldr	r7, [pc, #620]	; (8004950 <draw_main+0x318>)
 80046e2:	3001      	adds	r0, #1
 80046e4:	f997 6006 	ldrsb.w	r6, [r7, #6]
 80046e8:	b240      	sxtb	r0, r0
 80046ea:	7020      	strb	r0, [r4, #0]
 80046ec:	2e00      	cmp	r6, #0
 80046ee:	f000 80f9 	beq.w	80048e4 <draw_main+0x2ac>
 80046f2:	f998 2000 	ldrsb.w	r2, [r8]
 80046f6:	f8d9 3000 	ldr.w	r3, [r9]
 80046fa:	f853 5022 	ldr.w	r5, [r3, r2, lsl #2]
 80046fe:	8b6a      	ldrh	r2, [r5, #26]
 8004700:	7dae      	ldrb	r6, [r5, #22]
 8004702:	4d90      	ldr	r5, [pc, #576]	; (8004944 <draw_main+0x30c>)
 8004704:	2164      	movs	r1, #100	; 0x64
 8004706:	fbb2 f3f1 	udiv	r3, r2, r1
 800470a:	fb01 2213 	mls	r2, r1, r3, r2
 800470e:	b292      	uxth	r2, r2
 8004710:	9200      	str	r2, [sp, #0]
 8004712:	4a90      	ldr	r2, [pc, #576]	; (8004954 <draw_main+0x31c>)
 8004714:	4990      	ldr	r1, [pc, #576]	; (8004958 <draw_main+0x320>)
 8004716:	f852 2026 	ldr.w	r2, [r2, r6, lsl #2]
 800471a:	eb05 1040 	add.w	r0, r5, r0, lsl #5
 800471e:	f007 faeb 	bl	800bcf8 <siprintf>
 8004722:	f998 2000 	ldrsb.w	r2, [r8]
 8004726:	f8d9 3000 	ldr.w	r3, [r9]
 800472a:	f853 3022 	ldr.w	r3, [r3, r2, lsl #2]
 800472e:	f994 2000 	ldrsb.w	r2, [r4]
 8004732:	7dd8      	ldrb	r0, [r3, #23]
 8004734:	4b85      	ldr	r3, [pc, #532]	; (800494c <draw_main+0x314>)
 8004736:	eb02 0182 	add.w	r1, r2, r2, lsl #2
 800473a:	eb02 0141 	add.w	r1, r2, r1, lsl #1
 800473e:	3101      	adds	r1, #1
 8004740:	2800      	cmp	r0, #0
 8004742:	f000 80b8 	beq.w	80048b6 <draw_main+0x27e>
 8004746:	f64f 76ff 	movw	r6, #65535	; 0xffff
 800474a:	2000      	movs	r0, #0
 800474c:	e9cd 6001 	strd	r6, r0, [sp, #4]
 8004750:	685e      	ldr	r6, [r3, #4]
 8004752:	9600      	str	r6, [sp, #0]
 8004754:	681b      	ldr	r3, [r3, #0]
 8004756:	eb05 1242 	add.w	r2, r5, r2, lsl #5
 800475a:	b2c9      	uxtb	r1, r1
 800475c:	f7fd fb6e 	bl	8001e3c <draw_str_by_rows>
 8004760:	4b76      	ldr	r3, [pc, #472]	; (800493c <draw_main+0x304>)
 8004762:	7820      	ldrb	r0, [r4, #0]
 8004764:	681b      	ldr	r3, [r3, #0]
 8004766:	4a74      	ldr	r2, [pc, #464]	; (8004938 <draw_main+0x300>)
 8004768:	789b      	ldrb	r3, [r3, #2]
 800476a:	f998 1000 	ldrsb.w	r1, [r8]
 800476e:	f8d2 c000 	ldr.w	ip, [r2]
 8004772:	3001      	adds	r0, #1
 8004774:	b240      	sxtb	r0, r0
 8004776:	7020      	strb	r0, [r4, #0]
 8004778:	2201      	movs	r2, #1
 800477a:	4293      	cmp	r3, r2
 800477c:	f280 80c6 	bge.w	800490c <draw_main+0x2d4>
 8004780:	f85c 1022 	ldr.w	r1, [ip, r2, lsl #2]
 8004784:	4d6f      	ldr	r5, [pc, #444]	; (8004944 <draw_main+0x30c>)
 8004786:	794f      	ldrb	r7, [r1, #5]
 8004788:	4e70      	ldr	r6, [pc, #448]	; (800494c <draw_main+0x314>)
 800478a:	eb05 1040 	add.w	r0, r5, r0, lsl #5
 800478e:	2f00      	cmp	r7, #0
 8004790:	f000 8104 	beq.w	800499c <draw_main+0x364>
 8004794:	4971      	ldr	r1, [pc, #452]	; (800495c <draw_main+0x324>)
 8004796:	f007 faaf 	bl	800bcf8 <siprintf>
 800479a:	f994 1000 	ldrsb.w	r1, [r4]
 800479e:	eb01 0381 	add.w	r3, r1, r1, lsl #2
 80047a2:	460a      	mov	r2, r1
 80047a4:	2000      	movs	r0, #0
 80047a6:	eb01 0143 	add.w	r1, r1, r3, lsl #1
 80047aa:	f240 73ff 	movw	r3, #2047	; 0x7ff
 80047ae:	e9cd 3001 	strd	r3, r0, [sp, #4]
 80047b2:	6873      	ldr	r3, [r6, #4]
 80047b4:	9300      	str	r3, [sp, #0]
 80047b6:	3101      	adds	r1, #1
 80047b8:	6833      	ldr	r3, [r6, #0]
 80047ba:	eb05 1242 	add.w	r2, r5, r2, lsl #5
 80047be:	b2c9      	uxtb	r1, r1
 80047c0:	f7fd fb3c 	bl	8001e3c <draw_str_by_rows>
 80047c4:	4966      	ldr	r1, [pc, #408]	; (8004960 <draw_main+0x328>)
 80047c6:	4867      	ldr	r0, [pc, #412]	; (8004964 <draw_main+0x32c>)
 80047c8:	f8df 819c 	ldr.w	r8, [pc, #412]	; 8004968 <draw_main+0x330>
 80047cc:	f007 fab4 	bl	800bd38 <strcpy>
 80047d0:	4966      	ldr	r1, [pc, #408]	; (800496c <draw_main+0x334>)
 80047d2:	4867      	ldr	r0, [pc, #412]	; (8004970 <draw_main+0x338>)
 80047d4:	f007 fab0 	bl	800bd38 <strcpy>
 80047d8:	4966      	ldr	r1, [pc, #408]	; (8004974 <draw_main+0x33c>)
 80047da:	4867      	ldr	r0, [pc, #412]	; (8004978 <draw_main+0x340>)
 80047dc:	f007 faac 	bl	800bd38 <strcpy>
 80047e0:	4966      	ldr	r1, [pc, #408]	; (800497c <draw_main+0x344>)
 80047e2:	4867      	ldr	r0, [pc, #412]	; (8004980 <draw_main+0x348>)
 80047e4:	f007 faa8 	bl	800bd38 <strcpy>
 80047e8:	4966      	ldr	r1, [pc, #408]	; (8004984 <draw_main+0x34c>)
 80047ea:	4867      	ldr	r0, [pc, #412]	; (8004988 <draw_main+0x350>)
 80047ec:	f007 faa4 	bl	800bd38 <strcpy>
 80047f0:	4966      	ldr	r1, [pc, #408]	; (800498c <draw_main+0x354>)
 80047f2:	4867      	ldr	r0, [pc, #412]	; (8004990 <draw_main+0x358>)
 80047f4:	f007 faa0 	bl	800bd38 <strcpy>
 80047f8:	f7ff feea 	bl	80045d0 <get_current_item>
 80047fc:	3002      	adds	r0, #2
 80047fe:	7020      	strb	r0, [r4, #0]
 8004800:	2630      	movs	r6, #48	; 0x30
 8004802:	2702      	movs	r7, #2
 8004804:	f04f 0900 	mov.w	r9, #0
 8004808:	f44f 6afc 	mov.w	sl, #2016	; 0x7e0
 800480c:	f994 3000 	ldrsb.w	r3, [r4]
 8004810:	f8cd 9008 	str.w	r9, [sp, #8]
 8004814:	42bb      	cmp	r3, r7
 8004816:	bf06      	itte	eq
 8004818:	f64f 73e0 	movweq	r3, #65504	; 0xffe0
 800481c:	9301      	streq	r3, [sp, #4]
 800481e:	f8cd a004 	strne.w	sl, [sp, #4]
 8004822:	f8d8 3004 	ldr.w	r3, [r8, #4]
 8004826:	9300      	str	r3, [sp, #0]
 8004828:	eb05 1247 	add.w	r2, r5, r7, lsl #5
 800482c:	4631      	mov	r1, r6
 800482e:	f8d8 3000 	ldr.w	r3, [r8]
 8004832:	2003      	movs	r0, #3
 8004834:	3701      	adds	r7, #1
 8004836:	f7fd fb01 	bl	8001e3c <draw_str_by_rows>
 800483a:	3613      	adds	r6, #19
 800483c:	2f08      	cmp	r7, #8
 800483e:	b2f6      	uxtb	r6, r6
 8004840:	d1e4      	bne.n	800480c <draw_main+0x1d4>
 8004842:	7821      	ldrb	r1, [r4, #0]
 8004844:	eb01 03c1 	add.w	r3, r1, r1, lsl #3
 8004848:	eb01 0143 	add.w	r1, r1, r3, lsl #1
 800484c:	2200      	movs	r2, #0
 800484e:	f64f 73e0 	movw	r3, #65504	; 0xffe0
 8004852:	e9cd 3201 	strd	r3, r2, [sp, #4]
 8004856:	f8d8 3004 	ldr.w	r3, [r8, #4]
 800485a:	9300      	str	r3, [sp, #0]
 800485c:	310a      	adds	r1, #10
 800485e:	f8d8 3000 	ldr.w	r3, [r8]
 8004862:	223e      	movs	r2, #62	; 0x3e
 8004864:	b2c9      	uxtb	r1, r1
 8004866:	2003      	movs	r0, #3
 8004868:	f7fd fb7e 	bl	8001f68 <draw_char>
 800486c:	b005      	add	sp, #20
 800486e:	e8bd 8ff0 	ldmia.w	sp!, {r4, r5, r6, r7, r8, r9, sl, fp, pc}
 8004872:	46ab      	mov	fp, r5
 8004874:	46aa      	mov	sl, r5
 8004876:	462e      	mov	r6, r5
 8004878:	e708      	b.n	800468c <draw_main+0x54>
 800487a:	2064      	movs	r0, #100	; 0x64
 800487c:	f501 7187 	add.w	r1, r1, #270	; 0x10e
 8004880:	fbb1 f3f0 	udiv	r3, r1, r0
 8004884:	fb00 1113 	mls	r1, r0, r3, r1
 8004888:	9100      	str	r1, [sp, #0]
 800488a:	482e      	ldr	r0, [pc, #184]	; (8004944 <draw_main+0x30c>)
 800488c:	4941      	ldr	r1, [pc, #260]	; (8004994 <draw_main+0x35c>)
 800488e:	f007 fa33 	bl	800bcf8 <siprintf>
 8004892:	e704      	b.n	800469e <draw_main+0x66>
 8004894:	e9cd a701 	strd	sl, r7, [sp, #4]
 8004898:	492a      	ldr	r1, [pc, #168]	; (8004944 <draw_main+0x30c>)
 800489a:	686b      	ldr	r3, [r5, #4]
 800489c:	9300      	str	r3, [sp, #0]
 800489e:	eb01 1242 	add.w	r2, r1, r2, lsl #5
 80048a2:	682b      	ldr	r3, [r5, #0]
 80048a4:	4659      	mov	r1, fp
 80048a6:	2000      	movs	r0, #0
 80048a8:	f10b 0b0b 	add.w	fp, fp, #11
 80048ac:	f7fd fac6 	bl	8001e3c <draw_str_by_rows>
 80048b0:	fa5f fb8b 	uxtb.w	fp, fp
 80048b4:	e70c      	b.n	80046d0 <draw_main+0x98>
 80048b6:	eb05 1242 	add.w	r2, r5, r2, lsl #5
 80048ba:	f997 500d 	ldrsb.w	r5, [r7, #13]
 80048be:	b2c9      	uxtb	r1, r1
 80048c0:	b13d      	cbz	r5, 80048d2 <draw_main+0x29a>
 80048c2:	f64f 5520 	movw	r5, #64800	; 0xfd20
 80048c6:	9002      	str	r0, [sp, #8]
 80048c8:	9501      	str	r5, [sp, #4]
 80048ca:	685d      	ldr	r5, [r3, #4]
 80048cc:	9500      	str	r5, [sp, #0]
 80048ce:	681b      	ldr	r3, [r3, #0]
 80048d0:	e744      	b.n	800475c <draw_main+0x124>
 80048d2:	f240 70ff 	movw	r0, #2047	; 0x7ff
 80048d6:	9502      	str	r5, [sp, #8]
 80048d8:	9001      	str	r0, [sp, #4]
 80048da:	6858      	ldr	r0, [r3, #4]
 80048dc:	9000      	str	r0, [sp, #0]
 80048de:	681b      	ldr	r3, [r3, #0]
 80048e0:	4628      	mov	r0, r5
 80048e2:	e73b      	b.n	800475c <draw_main+0x124>
 80048e4:	2002      	movs	r0, #2
 80048e6:	f7fe fd5b 	bl	80033a0 <shortBeeps>
 80048ea:	7821      	ldrb	r1, [r4, #0]
 80048ec:	9602      	str	r6, [sp, #8]
 80048ee:	eb01 0381 	add.w	r3, r1, r1, lsl #2
 80048f2:	eb01 0143 	add.w	r1, r1, r3, lsl #1
 80048f6:	f64f 5320 	movw	r3, #64800	; 0xfd20
 80048fa:	9301      	str	r3, [sp, #4]
 80048fc:	686b      	ldr	r3, [r5, #4]
 80048fe:	9300      	str	r3, [sp, #0]
 8004900:	3101      	adds	r1, #1
 8004902:	682b      	ldr	r3, [r5, #0]
 8004904:	4a24      	ldr	r2, [pc, #144]	; (8004998 <draw_main+0x360>)
 8004906:	b2c9      	uxtb	r1, r1
 8004908:	4630      	mov	r0, r6
 800490a:	e727      	b.n	800475c <draw_main+0x124>
 800490c:	4291      	cmp	r1, r2
 800490e:	d005      	beq.n	800491c <draw_main+0x2e4>
 8004910:	f85c 5022 	ldr.w	r5, [ip, r2, lsl #2]
 8004914:	796d      	ldrb	r5, [r5, #5]
 8004916:	2d00      	cmp	r5, #0
 8004918:	f47f af32 	bne.w	8004780 <draw_main+0x148>
 800491c:	4293      	cmp	r3, r2
 800491e:	d002      	beq.n	8004926 <draw_main+0x2ee>
 8004920:	3201      	adds	r2, #1
 8004922:	b252      	sxtb	r2, r2
 8004924:	e729      	b.n	800477a <draw_main+0x142>
 8004926:	2200      	movs	r2, #0
 8004928:	e72a      	b.n	8004780 <draw_main+0x148>
 800492a:	bf00      	nop
 800492c:	200010c0 	.word	0x200010c0
 8004930:	20000922 	.word	0x20000922
 8004934:	20000946 	.word	0x20000946
 8004938:	2000091c 	.word	0x2000091c
 800493c:	20000914 	.word	0x20000914
 8004940:	0801071e 	.word	0x0801071e
 8004944:	2000058c 	.word	0x2000058c
 8004948:	0801074b 	.word	0x0801074b
 800494c:	20000014 	.word	0x20000014
 8004950:	20000578 	.word	0x20000578
 8004954:	2000002c 	.word	0x2000002c
 8004958:	0801076a 	.word	0x0801076a
 800495c:	08010791 	.word	0x08010791
 8004960:	080107ba 	.word	0x080107ba
 8004964:	200005cc 	.word	0x200005cc
 8004968:	20000004 	.word	0x20000004
 800496c:	080107c6 	.word	0x080107c6
 8004970:	200005ec 	.word	0x200005ec
 8004974:	080107d2 	.word	0x080107d2
 8004978:	2000060c 	.word	0x2000060c
 800497c:	080107de 	.word	0x080107de
 8004980:	2000062c 	.word	0x2000062c
 8004984:	080107ea 	.word	0x080107ea
 8004988:	2000064c 	.word	0x2000064c
 800498c:	080107f6 	.word	0x080107f6
 8004990:	2000066c 	.word	0x2000066c
 8004994:	08010733 	.word	0x08010733
 8004998:	0801077e 	.word	0x0801077e
 800499c:	e9dc 2101 	ldrd	r2, r1, [ip, #4]
 80049a0:	7dc9      	ldrb	r1, [r1, #23]
 80049a2:	7dd2      	ldrb	r2, [r2, #23]
 80049a4:	440a      	add	r2, r1
 80049a6:	f8dc 100c 	ldr.w	r1, [ip, #12]
 80049aa:	7dc9      	ldrb	r1, [r1, #23]
 80049ac:	440a      	add	r2, r1
 80049ae:	f8dc 1010 	ldr.w	r1, [ip, #16]
 80049b2:	7dc9      	ldrb	r1, [r1, #23]
 80049b4:	440a      	add	r2, r1
 80049b6:	f8dc 1014 	ldr.w	r1, [ip, #20]
 80049ba:	7dc9      	ldrb	r1, [r1, #23]
 80049bc:	440a      	add	r2, r1
 80049be:	b252      	sxtb	r2, r2
 80049c0:	490b      	ldr	r1, [pc, #44]	; (80049f0 <draw_main+0x3b8>)
 80049c2:	f007 f999 	bl	800bcf8 <siprintf>
 80049c6:	f994 1000 	ldrsb.w	r1, [r4]
 80049ca:	9702      	str	r7, [sp, #8]
 80049cc:	eb01 0381 	add.w	r3, r1, r1, lsl #2
 80049d0:	460a      	mov	r2, r1
 80049d2:	eb01 0143 	add.w	r1, r1, r3, lsl #1
 80049d6:	f64f 73ff 	movw	r3, #65535	; 0xffff
 80049da:	9301      	str	r3, [sp, #4]
 80049dc:	6873      	ldr	r3, [r6, #4]
 80049de:	9300      	str	r3, [sp, #0]
 80049e0:	3101      	adds	r1, #1
 80049e2:	6833      	ldr	r3, [r6, #0]
 80049e4:	eb05 1242 	add.w	r2, r5, r2, lsl #5
 80049e8:	b2c9      	uxtb	r1, r1
 80049ea:	4638      	mov	r0, r7
 80049ec:	e6e8      	b.n	80047c0 <draw_main+0x188>
 80049ee:	bf00      	nop
 80049f0:	080107a5 	.word	0x080107a5

080049f4 <draw_settings>:
 80049f4:	e92d 47ff 	stmdb	sp!, {r0, r1, r2, r3, r4, r5, r6, r7, r8, r9, sl, lr}
 80049f8:	2400      	movs	r4, #0
 80049fa:	f240 72ff 	movw	r2, #2047	; 0x7ff
 80049fe:	e9cd 2401 	strd	r2, r4, [sp, #4]
 8004a02:	4b3c      	ldr	r3, [pc, #240]	; (8004af4 <draw_settings+0x100>)
 8004a04:	4d3c      	ldr	r5, [pc, #240]	; (8004af8 <draw_settings+0x104>)
 8004a06:	685a      	ldr	r2, [r3, #4]
 8004a08:	9200      	str	r2, [sp, #0]
 8004a0a:	681b      	ldr	r3, [r3, #0]
 8004a0c:	4a3b      	ldr	r2, [pc, #236]	; (8004afc <draw_settings+0x108>)
 8004a0e:	f8df 80f0 	ldr.w	r8, [pc, #240]	; 8004b00 <draw_settings+0x10c>
 8004a12:	4f3c      	ldr	r7, [pc, #240]	; (8004b04 <draw_settings+0x110>)
 8004a14:	4e3c      	ldr	r6, [pc, #240]	; (8004b08 <draw_settings+0x114>)
 8004a16:	4621      	mov	r1, r4
 8004a18:	4620      	mov	r0, r4
 8004a1a:	f7fd fa0f 	bl	8001e3c <draw_str_by_rows>
 8004a1e:	78ab      	ldrb	r3, [r5, #2]
 8004a20:	786a      	ldrb	r2, [r5, #1]
 8004a22:	493a      	ldr	r1, [pc, #232]	; (8004b0c <draw_settings+0x118>)
 8004a24:	4837      	ldr	r0, [pc, #220]	; (8004b04 <draw_settings+0x110>)
 8004a26:	f007 f967 	bl	800bcf8 <siprintf>
 8004a2a:	78ea      	ldrb	r2, [r5, #3]
 8004a2c:	4938      	ldr	r1, [pc, #224]	; (8004b10 <draw_settings+0x11c>)
 8004a2e:	4839      	ldr	r0, [pc, #228]	; (8004b14 <draw_settings+0x120>)
 8004a30:	f007 f962 	bl	800bcf8 <siprintf>
 8004a34:	4a38      	ldr	r2, [pc, #224]	; (8004b18 <draw_settings+0x124>)
 8004a36:	792b      	ldrb	r3, [r5, #4]
 8004a38:	6812      	ldr	r2, [r2, #0]
 8004a3a:	4938      	ldr	r1, [pc, #224]	; (8004b1c <draw_settings+0x128>)
 8004a3c:	5cd2      	ldrb	r2, [r2, r3]
 8004a3e:	4838      	ldr	r0, [pc, #224]	; (8004b20 <draw_settings+0x12c>)
 8004a40:	f007 f95a 	bl	800bcf8 <siprintf>
 8004a44:	796a      	ldrb	r2, [r5, #5]
 8004a46:	4937      	ldr	r1, [pc, #220]	; (8004b24 <draw_settings+0x130>)
 8004a48:	4837      	ldr	r0, [pc, #220]	; (8004b28 <draw_settings+0x134>)
 8004a4a:	f007 f955 	bl	800bcf8 <siprintf>
 8004a4e:	4a37      	ldr	r2, [pc, #220]	; (8004b2c <draw_settings+0x138>)
 8004a50:	79ab      	ldrb	r3, [r5, #6]
 8004a52:	6812      	ldr	r2, [r2, #0]
 8004a54:	4936      	ldr	r1, [pc, #216]	; (8004b30 <draw_settings+0x13c>)
 8004a56:	5cd2      	ldrb	r2, [r2, r3]
 8004a58:	4836      	ldr	r0, [pc, #216]	; (8004b34 <draw_settings+0x140>)
 8004a5a:	f007 f94d 	bl	800bcf8 <siprintf>
 8004a5e:	f995 2009 	ldrsb.w	r2, [r5, #9]
 8004a62:	4935      	ldr	r1, [pc, #212]	; (8004b38 <draw_settings+0x144>)
 8004a64:	4835      	ldr	r0, [pc, #212]	; (8004b3c <draw_settings+0x148>)
 8004a66:	f007 f947 	bl	800bcf8 <siprintf>
 8004a6a:	79ea      	ldrb	r2, [r5, #7]
 8004a6c:	4934      	ldr	r1, [pc, #208]	; (8004b40 <draw_settings+0x14c>)
 8004a6e:	4835      	ldr	r0, [pc, #212]	; (8004b44 <draw_settings+0x150>)
 8004a70:	f007 f942 	bl	800bcf8 <siprintf>
 8004a74:	7a2a      	ldrb	r2, [r5, #8]
 8004a76:	4934      	ldr	r1, [pc, #208]	; (8004b48 <draw_settings+0x154>)
 8004a78:	4834      	ldr	r0, [pc, #208]	; (8004b4c <draw_settings+0x158>)
 8004a7a:	f007 f93d 	bl	800bcf8 <siprintf>
 8004a7e:	f7ff fda7 	bl	80045d0 <get_current_item>
 8004a82:	250a      	movs	r5, #10
 8004a84:	f888 0000 	strb.w	r0, [r8]
 8004a88:	46a1      	mov	r9, r4
 8004a8a:	f44f 6afc 	mov.w	sl, #2016	; 0x7e0
 8004a8e:	f998 3000 	ldrsb.w	r3, [r8]
 8004a92:	f8cd 9008 	str.w	r9, [sp, #8]
 8004a96:	42a3      	cmp	r3, r4
 8004a98:	bf04      	itt	eq
 8004a9a:	f64f 73e0 	movweq	r3, #65504	; 0xffe0
 8004a9e:	9301      	streq	r3, [sp, #4]
 8004aa0:	6873      	ldr	r3, [r6, #4]
 8004aa2:	bf18      	it	ne
 8004aa4:	f8cd a004 	strne.w	sl, [sp, #4]
 8004aa8:	9300      	str	r3, [sp, #0]
 8004aaa:	463a      	mov	r2, r7
 8004aac:	4629      	mov	r1, r5
 8004aae:	6833      	ldr	r3, [r6, #0]
 8004ab0:	2003      	movs	r0, #3
 8004ab2:	3401      	adds	r4, #1
 8004ab4:	f7fd f9c2 	bl	8001e3c <draw_str_by_rows>
 8004ab8:	3513      	adds	r5, #19
 8004aba:	2c08      	cmp	r4, #8
 8004abc:	b2ed      	uxtb	r5, r5
 8004abe:	f107 0720 	add.w	r7, r7, #32
 8004ac2:	d1e4      	bne.n	8004a8e <draw_settings+0x9a>
 8004ac4:	f898 1000 	ldrb.w	r1, [r8]
 8004ac8:	eb01 03c1 	add.w	r3, r1, r1, lsl #3
 8004acc:	eb01 0143 	add.w	r1, r1, r3, lsl #1
 8004ad0:	2200      	movs	r2, #0
 8004ad2:	f64f 73e0 	movw	r3, #65504	; 0xffe0
 8004ad6:	e9cd 3201 	strd	r3, r2, [sp, #4]
 8004ada:	310a      	adds	r1, #10
 8004adc:	6873      	ldr	r3, [r6, #4]
 8004ade:	9300      	str	r3, [sp, #0]
 8004ae0:	223e      	movs	r2, #62	; 0x3e
 8004ae2:	6833      	ldr	r3, [r6, #0]
 8004ae4:	b2c9      	uxtb	r1, r1
 8004ae6:	2003      	movs	r0, #3
 8004ae8:	f7fd fa3e 	bl	8001f68 <draw_char>
 8004aec:	b004      	add	sp, #16
 8004aee:	e8bd 87f0 	ldmia.w	sp!, {r4, r5, r6, r7, r8, r9, sl, pc}
 8004af2:	bf00      	nop
 8004af4:	20000014 	.word	0x20000014
 8004af8:	20000926 	.word	0x20000926
 8004afc:	08010802 	.word	0x08010802
 8004b00:	20000922 	.word	0x20000922
 8004b04:	2000058c 	.word	0x2000058c
 8004b08:	20000004 	.word	0x20000004
 8004b0c:	0801060b 	.word	0x0801060b
 8004b10:	0801061b 	.word	0x0801061b
 8004b14:	200005ac 	.word	0x200005ac
 8004b18:	20000910 	.word	0x20000910
 8004b1c:	08010815 	.word	0x08010815
 8004b20:	200005cc 	.word	0x200005cc
 8004b24:	08010636 	.word	0x08010636
 8004b28:	200005ec 	.word	0x200005ec
 8004b2c:	20000918 	.word	0x20000918
 8004b30:	08010643 	.word	0x08010643
 8004b34:	2000060c 	.word	0x2000060c
 8004b38:	0801064f 	.word	0x0801064f
 8004b3c:	2000062c 	.word	0x2000062c
 8004b40:	08010822 	.word	0x08010822
 8004b44:	2000064c 	.word	0x2000064c
 8004b48:	08010668 	.word	0x08010668
 8004b4c:	2000066c 	.word	0x2000066c

08004b50 <draw_actions>:
 8004b50:	e92d 47ff 	stmdb	sp!, {r0, r1, r2, r3, r4, r5, r6, r7, r8, r9, sl, lr}
 8004b54:	2100      	movs	r1, #0
 8004b56:	f240 72ff 	movw	r2, #2047	; 0x7ff
 8004b5a:	e9cd 2101 	strd	r2, r1, [sp, #4]
 8004b5e:	4b4b      	ldr	r3, [pc, #300]	; (8004c8c <draw_actions+0x13c>)
 8004b60:	4c4b      	ldr	r4, [pc, #300]	; (8004c90 <draw_actions+0x140>)
 8004b62:	685a      	ldr	r2, [r3, #4]
 8004b64:	9200      	str	r2, [sp, #0]
 8004b66:	681b      	ldr	r3, [r3, #0]
 8004b68:	4a4a      	ldr	r2, [pc, #296]	; (8004c94 <draw_actions+0x144>)
 8004b6a:	4d4b      	ldr	r5, [pc, #300]	; (8004c98 <draw_actions+0x148>)
 8004b6c:	4608      	mov	r0, r1
 8004b6e:	f7fd f965 	bl	8001e3c <draw_str_by_rows>
 8004b72:	494a      	ldr	r1, [pc, #296]	; (8004c9c <draw_actions+0x14c>)
 8004b74:	484a      	ldr	r0, [pc, #296]	; (8004ca0 <draw_actions+0x150>)
 8004b76:	f007 f8df 	bl	800bd38 <strcpy>
 8004b7a:	f995 2000 	ldrsb.w	r2, [r5]
 8004b7e:	6823      	ldr	r3, [r4, #0]
 8004b80:	f853 3022 	ldr.w	r3, [r3, r2, lsl #2]
 8004b84:	795b      	ldrb	r3, [r3, #5]
 8004b86:	2b00      	cmp	r3, #0
 8004b88:	d071      	beq.n	8004c6e <draw_actions+0x11e>
 8004b8a:	4946      	ldr	r1, [pc, #280]	; (8004ca4 <draw_actions+0x154>)
 8004b8c:	4846      	ldr	r0, [pc, #280]	; (8004ca8 <draw_actions+0x158>)
 8004b8e:	f007 f8d3 	bl	800bd38 <strcpy>
 8004b92:	f995 2000 	ldrsb.w	r2, [r5]
 8004b96:	6823      	ldr	r3, [r4, #0]
 8004b98:	f853 3022 	ldr.w	r3, [r3, r2, lsl #2]
 8004b9c:	799b      	ldrb	r3, [r3, #6]
 8004b9e:	2b00      	cmp	r3, #0
 8004ba0:	d067      	beq.n	8004c72 <draw_actions+0x122>
 8004ba2:	4942      	ldr	r1, [pc, #264]	; (8004cac <draw_actions+0x15c>)
 8004ba4:	4842      	ldr	r0, [pc, #264]	; (8004cb0 <draw_actions+0x160>)
 8004ba6:	f007 f8c7 	bl	800bd38 <strcpy>
 8004baa:	f995 2000 	ldrsb.w	r2, [r5]
 8004bae:	6823      	ldr	r3, [r4, #0]
 8004bb0:	f853 3022 	ldr.w	r3, [r3, r2, lsl #2]
 8004bb4:	79db      	ldrb	r3, [r3, #7]
 8004bb6:	2b00      	cmp	r3, #0
 8004bb8:	d05d      	beq.n	8004c76 <draw_actions+0x126>
 8004bba:	493e      	ldr	r1, [pc, #248]	; (8004cb4 <draw_actions+0x164>)
 8004bbc:	483e      	ldr	r0, [pc, #248]	; (8004cb8 <draw_actions+0x168>)
 8004bbe:	f007 f8bb 	bl	800bd38 <strcpy>
 8004bc2:	493e      	ldr	r1, [pc, #248]	; (8004cbc <draw_actions+0x16c>)
 8004bc4:	483e      	ldr	r0, [pc, #248]	; (8004cc0 <draw_actions+0x170>)
 8004bc6:	f007 f8b7 	bl	800bd38 <strcpy>
 8004bca:	493e      	ldr	r1, [pc, #248]	; (8004cc4 <draw_actions+0x174>)
 8004bcc:	483e      	ldr	r0, [pc, #248]	; (8004cc8 <draw_actions+0x178>)
 8004bce:	f007 f8b3 	bl	800bd38 <strcpy>
 8004bd2:	f995 2000 	ldrsb.w	r2, [r5]
 8004bd6:	6823      	ldr	r3, [r4, #0]
 8004bd8:	f853 3022 	ldr.w	r3, [r3, r2, lsl #2]
 8004bdc:	7a1b      	ldrb	r3, [r3, #8]
 8004bde:	2b00      	cmp	r3, #0
 8004be0:	d14b      	bne.n	8004c7a <draw_actions+0x12a>
 8004be2:	4936      	ldr	r1, [pc, #216]	; (8004cbc <draw_actions+0x16c>)
 8004be4:	4839      	ldr	r0, [pc, #228]	; (8004ccc <draw_actions+0x17c>)
 8004be6:	f007 f8a7 	bl	800bd38 <strcpy>
 8004bea:	4934      	ldr	r1, [pc, #208]	; (8004cbc <draw_actions+0x16c>)
 8004bec:	4838      	ldr	r0, [pc, #224]	; (8004cd0 <draw_actions+0x180>)
 8004bee:	f8df 80e4 	ldr.w	r8, [pc, #228]	; 8004cd4 <draw_actions+0x184>
 8004bf2:	4f2b      	ldr	r7, [pc, #172]	; (8004ca0 <draw_actions+0x150>)
 8004bf4:	4c38      	ldr	r4, [pc, #224]	; (8004cd8 <draw_actions+0x188>)
 8004bf6:	f007 f89f 	bl	800bd38 <strcpy>
 8004bfa:	f7ff fce9 	bl	80045d0 <get_current_item>
 8004bfe:	2600      	movs	r6, #0
 8004c00:	f888 0000 	strb.w	r0, [r8]
 8004c04:	250a      	movs	r5, #10
 8004c06:	46b1      	mov	r9, r6
 8004c08:	f44f 6afc 	mov.w	sl, #2016	; 0x7e0
 8004c0c:	f998 3000 	ldrsb.w	r3, [r8]
 8004c10:	f8cd 9008 	str.w	r9, [sp, #8]
 8004c14:	42b3      	cmp	r3, r6
 8004c16:	bf06      	itte	eq
 8004c18:	f64f 73e0 	movweq	r3, #65504	; 0xffe0
 8004c1c:	9301      	streq	r3, [sp, #4]
 8004c1e:	f8cd a004 	strne.w	sl, [sp, #4]
 8004c22:	6863      	ldr	r3, [r4, #4]
 8004c24:	9300      	str	r3, [sp, #0]
 8004c26:	463a      	mov	r2, r7
 8004c28:	4629      	mov	r1, r5
 8004c2a:	6823      	ldr	r3, [r4, #0]
 8004c2c:	2003      	movs	r0, #3
 8004c2e:	3601      	adds	r6, #1
 8004c30:	f7fd f904 	bl	8001e3c <draw_str_by_rows>
 8004c34:	3513      	adds	r5, #19
 8004c36:	2e08      	cmp	r6, #8
 8004c38:	b2ed      	uxtb	r5, r5
 8004c3a:	f107 0720 	add.w	r7, r7, #32
 8004c3e:	d1e5      	bne.n	8004c0c <draw_actions+0xbc>
 8004c40:	f898 1000 	ldrb.w	r1, [r8]
 8004c44:	eb01 03c1 	add.w	r3, r1, r1, lsl #3
 8004c48:	eb01 0143 	add.w	r1, r1, r3, lsl #1
 8004c4c:	2200      	movs	r2, #0
 8004c4e:	f64f 73e0 	movw	r3, #65504	; 0xffe0
 8004c52:	e9cd 3201 	strd	r3, r2, [sp, #4]
 8004c56:	6863      	ldr	r3, [r4, #4]
 8004c58:	9300      	str	r3, [sp, #0]
 8004c5a:	310a      	adds	r1, #10
 8004c5c:	6823      	ldr	r3, [r4, #0]
 8004c5e:	223e      	movs	r2, #62	; 0x3e
 8004c60:	b2c9      	uxtb	r1, r1
 8004c62:	2003      	movs	r0, #3
 8004c64:	f7fd f980 	bl	8001f68 <draw_char>
 8004c68:	b004      	add	sp, #16
 8004c6a:	e8bd 87f0 	ldmia.w	sp!, {r4, r5, r6, r7, r8, r9, sl, pc}
 8004c6e:	491b      	ldr	r1, [pc, #108]	; (8004cdc <draw_actions+0x18c>)
 8004c70:	e78c      	b.n	8004b8c <draw_actions+0x3c>
 8004c72:	491b      	ldr	r1, [pc, #108]	; (8004ce0 <draw_actions+0x190>)
 8004c74:	e796      	b.n	8004ba4 <draw_actions+0x54>
 8004c76:	491b      	ldr	r1, [pc, #108]	; (8004ce4 <draw_actions+0x194>)
 8004c78:	e7a0      	b.n	8004bbc <draw_actions+0x6c>
 8004c7a:	4a1b      	ldr	r2, [pc, #108]	; (8004ce8 <draw_actions+0x198>)
 8004c7c:	6812      	ldr	r2, [r2, #0]
 8004c7e:	78d2      	ldrb	r2, [r2, #3]
 8004c80:	2a0c      	cmp	r2, #12
 8004c82:	d1ae      	bne.n	8004be2 <draw_actions+0x92>
 8004c84:	3b01      	subs	r3, #1
 8004c86:	2b01      	cmp	r3, #1
 8004c88:	d8af      	bhi.n	8004bea <draw_actions+0x9a>
 8004c8a:	e7aa      	b.n	8004be2 <draw_actions+0x92>
 8004c8c:	20000014 	.word	0x20000014
 8004c90:	2000091c 	.word	0x2000091c
 8004c94:	0801082e 	.word	0x0801082e
 8004c98:	20000946 	.word	0x20000946
 8004c9c:	0801083f 	.word	0x0801083f
 8004ca0:	2000058c 	.word	0x2000058c
 8004ca4:	0801084a 	.word	0x0801084a
 8004ca8:	200005ac 	.word	0x200005ac
 8004cac:	08010862 	.word	0x08010862
 8004cb0:	200005cc 	.word	0x200005cc
 8004cb4:	0801087a 	.word	0x0801087a
 8004cb8:	200005ec 	.word	0x200005ec
 8004cbc:	08010a06 	.word	0x08010a06
 8004cc0:	2000060c 	.word	0x2000060c
 8004cc4:	08010892 	.word	0x08010892
 8004cc8:	2000062c 	.word	0x2000062c
 8004ccc:	2000064c 	.word	0x2000064c
 8004cd0:	2000066c 	.word	0x2000066c
 8004cd4:	20000922 	.word	0x20000922
 8004cd8:	20000004 	.word	0x20000004
 8004cdc:	08010856 	.word	0x08010856
 8004ce0:	0801086e 	.word	0x0801086e
 8004ce4:	08010886 	.word	0x08010886
 8004ce8:	20000914 	.word	0x20000914

08004cec <actions_ok>:
 8004cec:	b508      	push	{r3, lr}
 8004cee:	f7ff fc6f 	bl	80045d0 <get_current_item>
 8004cf2:	b110      	cbz	r0, 8004cfa <actions_ok+0xe>
 8004cf4:	2805      	cmp	r0, #5
 8004cf6:	d009      	beq.n	8004d0c <actions_ok+0x20>
 8004cf8:	bd08      	pop	{r3, pc}
 8004cfa:	f7fe f881 	bl	8002e00 <led_w_on>
 8004cfe:	2014      	movs	r0, #20
 8004d00:	f000 ff22 	bl	8005b48 <HAL_Delay>
 8004d04:	e8bd 4008 	ldmia.w	sp!, {r3, lr}
 8004d08:	f7fe b864 	b.w	8002dd4 <release_power>
 8004d0c:	4b01      	ldr	r3, [pc, #4]	; (8004d14 <actions_ok+0x28>)
 8004d0e:	2212      	movs	r2, #18
 8004d10:	701a      	strb	r2, [r3, #0]
 8004d12:	e7f1      	b.n	8004cf8 <actions_ok+0xc>
 8004d14:	200008e9 	.word	0x200008e9

08004d18 <get_last_item>:
 8004d18:	b530      	push	{r4, r5, lr}
 8004d1a:	4b08      	ldr	r3, [pc, #32]	; (8004d3c <get_last_item+0x24>)
 8004d1c:	4908      	ldr	r1, [pc, #32]	; (8004d40 <get_last_item+0x28>)
 8004d1e:	781d      	ldrb	r5, [r3, #0]
 8004d20:	2200      	movs	r2, #0
 8004d22:	b2d3      	uxtb	r3, r2
 8004d24:	eb03 0343 	add.w	r3, r3, r3, lsl #1
 8004d28:	18cc      	adds	r4, r1, r3
 8004d2a:	5cc8      	ldrb	r0, [r1, r3]
 8004d2c:	b120      	cbz	r0, 8004d38 <get_last_item+0x20>
 8004d2e:	4285      	cmp	r5, r0
 8004d30:	f102 0201 	add.w	r2, r2, #1
 8004d34:	d1f5      	bne.n	8004d22 <get_last_item+0xa>
 8004d36:	78a0      	ldrb	r0, [r4, #2]
 8004d38:	bd30      	pop	{r4, r5, pc}
 8004d3a:	bf00      	nop
 8004d3c:	200008e9 	.word	0x200008e9
 8004d40:	20000044 	.word	0x20000044

08004d44 <set_current_item>:
 8004d44:	b530      	push	{r4, r5, lr}
 8004d46:	4b08      	ldr	r3, [pc, #32]	; (8004d68 <set_current_item+0x24>)
 8004d48:	4908      	ldr	r1, [pc, #32]	; (8004d6c <set_current_item+0x28>)
 8004d4a:	781d      	ldrb	r5, [r3, #0]
 8004d4c:	2200      	movs	r2, #0
 8004d4e:	b2d3      	uxtb	r3, r2
 8004d50:	eb03 0343 	add.w	r3, r3, r3, lsl #1
 8004d54:	18cc      	adds	r4, r1, r3
 8004d56:	5ccb      	ldrb	r3, [r1, r3]
 8004d58:	b123      	cbz	r3, 8004d64 <set_current_item+0x20>
 8004d5a:	429d      	cmp	r5, r3
 8004d5c:	f102 0201 	add.w	r2, r2, #1
 8004d60:	d1f5      	bne.n	8004d4e <set_current_item+0xa>
 8004d62:	7060      	strb	r0, [r4, #1]
 8004d64:	bd30      	pop	{r4, r5, pc}
 8004d66:	bf00      	nop
 8004d68:	200008e9 	.word	0x200008e9
 8004d6c:	20000044 	.word	0x20000044

08004d70 <init_menu>:
 8004d70:	b570      	push	{r4, r5, r6, lr}
 8004d72:	f7fe f86d 	bl	8002e50 <get_devices>
 8004d76:	4d18      	ldr	r5, [pc, #96]	; (8004dd8 <init_menu+0x68>)
 8004d78:	4c18      	ldr	r4, [pc, #96]	; (8004ddc <init_menu+0x6c>)
 8004d7a:	6028      	str	r0, [r5, #0]
 8004d7c:	f000 fccc 	bl	8005718 <get_settings>
 8004d80:	4b17      	ldr	r3, [pc, #92]	; (8004de0 <init_menu+0x70>)
 8004d82:	6020      	str	r0, [r4, #0]
 8004d84:	f100 0220 	add.w	r2, r0, #32
 8004d88:	f850 1b04 	ldr.w	r1, [r0], #4
 8004d8c:	f843 1b04 	str.w	r1, [r3], #4
 8004d90:	4290      	cmp	r0, r2
 8004d92:	d1f9      	bne.n	8004d88 <init_menu+0x18>
 8004d94:	f000 fcb8 	bl	8005708 <get_coding_rate_values>
 8004d98:	4b12      	ldr	r3, [pc, #72]	; (8004de4 <init_menu+0x74>)
 8004d9a:	4e13      	ldr	r6, [pc, #76]	; (8004de8 <init_menu+0x78>)
 8004d9c:	6018      	str	r0, [r3, #0]
 8004d9e:	f000 fcb7 	bl	8005710 <get_tx_power_values>
 8004da2:	4b12      	ldr	r3, [pc, #72]	; (8004dec <init_menu+0x7c>)
 8004da4:	4a12      	ldr	r2, [pc, #72]	; (8004df0 <init_menu+0x80>)
 8004da6:	6018      	str	r0, [r3, #0]
 8004da8:	6823      	ldr	r3, [r4, #0]
 8004daa:	2000      	movs	r0, #0
 8004dac:	f993 3001 	ldrsb.w	r3, [r3, #1]
 8004db0:	7013      	strb	r3, [r2, #0]
 8004db2:	7033      	strb	r3, [r6, #0]
 8004db4:	f7fd f840 	bl	8001e38 <fillScreen>
 8004db8:	4b0e      	ldr	r3, [pc, #56]	; (8004df4 <init_menu+0x84>)
 8004dba:	2401      	movs	r4, #1
 8004dbc:	701c      	strb	r4, [r3, #0]
 8004dbe:	4b0e      	ldr	r3, [pc, #56]	; (8004df8 <init_menu+0x88>)
 8004dc0:	2000      	movs	r0, #0
 8004dc2:	701c      	strb	r4, [r3, #0]
 8004dc4:	f7ff ffbe 	bl	8004d44 <set_current_item>
 8004dc8:	f996 2000 	ldrsb.w	r2, [r6]
 8004dcc:	682b      	ldr	r3, [r5, #0]
 8004dce:	f853 3022 	ldr.w	r3, [r3, r2, lsl #2]
 8004dd2:	755c      	strb	r4, [r3, #21]
 8004dd4:	bd70      	pop	{r4, r5, r6, pc}
 8004dd6:	bf00      	nop
 8004dd8:	2000091c 	.word	0x2000091c
 8004ddc:	20000914 	.word	0x20000914
 8004de0:	20000926 	.word	0x20000926
 8004de4:	20000910 	.word	0x20000910
 8004de8:	20000946 	.word	0x20000946
 8004dec:	20000918 	.word	0x20000918
 8004df0:	200008e8 	.word	0x200008e8
 8004df4:	200008e9 	.word	0x200008e9
 8004df8:	20000921 	.word	0x20000921

08004dfc <scroll_up>:
 8004dfc:	b510      	push	{r4, lr}
 8004dfe:	f7ff fbe7 	bl	80045d0 <get_current_item>
 8004e02:	4604      	mov	r4, r0
 8004e04:	f7ff ff88 	bl	8004d18 <get_last_item>
 8004e08:	b91c      	cbnz	r4, 8004e12 <scroll_up+0x16>
 8004e0a:	e8bd 4010 	ldmia.w	sp!, {r4, lr}
 8004e0e:	f7ff bf99 	b.w	8004d44 <set_current_item>
 8004e12:	1e60      	subs	r0, r4, #1
 8004e14:	b2c0      	uxtb	r0, r0
 8004e16:	e7f8      	b.n	8004e0a <scroll_up+0xe>

08004e18 <scroll_down>:
 8004e18:	b510      	push	{r4, lr}
 8004e1a:	f7ff fbd9 	bl	80045d0 <get_current_item>
 8004e1e:	4604      	mov	r4, r0
 8004e20:	f7ff ff7a 	bl	8004d18 <get_last_item>
 8004e24:	4284      	cmp	r4, r0
 8004e26:	bf14      	ite	ne
 8004e28:	1c60      	addne	r0, r4, #1
 8004e2a:	2000      	moveq	r0, #0
 8004e2c:	e8bd 4010 	ldmia.w	sp!, {r4, lr}
 8004e30:	bf18      	it	ne
 8004e32:	b2c0      	uxtbne	r0, r0
 8004e34:	f7ff bf86 	b.w	8004d44 <set_current_item>

08004e38 <switch_backward>:
 8004e38:	b570      	push	{r4, r5, r6, lr}
 8004e3a:	4e0a      	ldr	r6, [pc, #40]	; (8004e64 <switch_backward+0x2c>)
 8004e3c:	4c0a      	ldr	r4, [pc, #40]	; (8004e68 <switch_backward+0x30>)
 8004e3e:	7831      	ldrb	r1, [r6, #0]
 8004e40:	2300      	movs	r3, #0
 8004e42:	b2dd      	uxtb	r5, r3
 8004e44:	f814 2015 	ldrb.w	r2, [r4, r5, lsl #1]
 8004e48:	b152      	cbz	r2, 8004e60 <switch_backward+0x28>
 8004e4a:	4291      	cmp	r1, r2
 8004e4c:	f103 0301 	add.w	r3, r3, #1
 8004e50:	d1f7      	bne.n	8004e42 <switch_backward+0xa>
 8004e52:	eb04 0445 	add.w	r4, r4, r5, lsl #1
 8004e56:	2000      	movs	r0, #0
 8004e58:	f7ff ff74 	bl	8004d44 <set_current_item>
 8004e5c:	7863      	ldrb	r3, [r4, #1]
 8004e5e:	7033      	strb	r3, [r6, #0]
 8004e60:	bd70      	pop	{r4, r5, r6, pc}
 8004e62:	bf00      	nop
 8004e64:	200008e9 	.word	0x200008e9
 8004e68:	08010a84 	.word	0x08010a84

08004e6c <change_menu>:
 8004e6c:	b570      	push	{r4, r5, r6, lr}
 8004e6e:	4b21      	ldr	r3, [pc, #132]	; (8004ef4 <change_menu+0x88>)
 8004e70:	f993 2000 	ldrsb.w	r2, [r3]
 8004e74:	4b20      	ldr	r3, [pc, #128]	; (8004ef8 <change_menu+0x8c>)
 8004e76:	681b      	ldr	r3, [r3, #0]
 8004e78:	f853 3022 	ldr.w	r3, [r3, r2, lsl #2]
 8004e7c:	7d5a      	ldrb	r2, [r3, #21]
 8004e7e:	2a00      	cmp	r2, #0
 8004e80:	d034      	beq.n	8004eec <change_menu+0x80>
 8004e82:	4a1e      	ldr	r2, [pc, #120]	; (8004efc <change_menu+0x90>)
 8004e84:	4d1e      	ldr	r5, [pc, #120]	; (8004f00 <change_menu+0x94>)
 8004e86:	7816      	ldrb	r6, [r2, #0]
 8004e88:	2200      	movs	r2, #0
 8004e8a:	b2d4      	uxtb	r4, r2
 8004e8c:	f815 1034 	ldrb.w	r1, [r5, r4, lsl #3]
 8004e90:	b939      	cbnz	r1, 8004ea2 <change_menu+0x36>
 8004e92:	3801      	subs	r0, #1
 8004e94:	2805      	cmp	r0, #5
 8004e96:	d828      	bhi.n	8004eea <change_menu+0x7e>
 8004e98:	e8df f000 	tbb	[pc, r0]
 8004e9c:	1b132725 	.word	0x1b132725
 8004ea0:	2217      	.short	0x2217
 8004ea2:	428e      	cmp	r6, r1
 8004ea4:	d10b      	bne.n	8004ebe <change_menu+0x52>
 8004ea6:	eb05 04c4 	add.w	r4, r5, r4, lsl #3
 8004eaa:	7861      	ldrb	r1, [r4, #1]
 8004eac:	4281      	cmp	r1, r0
 8004eae:	d106      	bne.n	8004ebe <change_menu+0x52>
 8004eb0:	2000      	movs	r0, #0
 8004eb2:	f7fc ffc1 	bl	8001e38 <fillScreen>
 8004eb6:	6863      	ldr	r3, [r4, #4]
 8004eb8:	e8bd 4070 	ldmia.w	sp!, {r4, r5, r6, lr}
 8004ebc:	4718      	bx	r3
 8004ebe:	3201      	adds	r2, #1
 8004ec0:	e7e3      	b.n	8004e8a <change_menu+0x1e>
 8004ec2:	e8bd 4070 	ldmia.w	sp!, {r4, r5, r6, lr}
 8004ec6:	f7ff bf99 	b.w	8004dfc <scroll_up>
 8004eca:	e8bd 4070 	ldmia.w	sp!, {r4, r5, r6, lr}
 8004ece:	f7ff bfa3 	b.w	8004e18 <scroll_down>
 8004ed2:	f7ff fb93 	bl	80045fc <switch_forward>
 8004ed6:	e8bd 4070 	ldmia.w	sp!, {r4, r5, r6, lr}
 8004eda:	2000      	movs	r0, #0
 8004edc:	f7fc bfac 	b.w	8001e38 <fillScreen>
 8004ee0:	f7ff ffaa 	bl	8004e38 <switch_backward>
 8004ee4:	e7f7      	b.n	8004ed6 <change_menu+0x6a>
 8004ee6:	2200      	movs	r2, #0
 8004ee8:	755a      	strb	r2, [r3, #21]
 8004eea:	bd70      	pop	{r4, r5, r6, pc}
 8004eec:	2802      	cmp	r0, #2
 8004eee:	d1fc      	bne.n	8004eea <change_menu+0x7e>
 8004ef0:	2201      	movs	r2, #1
 8004ef2:	e7f9      	b.n	8004ee8 <change_menu+0x7c>
 8004ef4:	20000946 	.word	0x20000946
 8004ef8:	2000091c 	.word	0x2000091c
 8004efc:	200008e9 	.word	0x200008e9
 8004f00:	08010b38 	.word	0x08010b38

08004f04 <reset_current_item_in_menu>:
 8004f04:	b510      	push	{r4, lr}
 8004f06:	4907      	ldr	r1, [pc, #28]	; (8004f24 <reset_current_item_in_menu+0x20>)
 8004f08:	2200      	movs	r2, #0
 8004f0a:	b2d3      	uxtb	r3, r2
 8004f0c:	eb03 0343 	add.w	r3, r3, r3, lsl #1
 8004f10:	18cc      	adds	r4, r1, r3
 8004f12:	5ccb      	ldrb	r3, [r1, r3]
 8004f14:	b12b      	cbz	r3, 8004f22 <reset_current_item_in_menu+0x1e>
 8004f16:	4283      	cmp	r3, r0
 8004f18:	f102 0201 	add.w	r2, r2, #1
 8004f1c:	d1f5      	bne.n	8004f0a <reset_current_item_in_menu+0x6>
 8004f1e:	2300      	movs	r3, #0
 8004f20:	7063      	strb	r3, [r4, #1]
 8004f22:	bd10      	pop	{r4, pc}
 8004f24:	20000044 	.word	0x20000044

08004f28 <actions_esc>:
 8004f28:	b538      	push	{r3, r4, r5, lr}
 8004f2a:	4c07      	ldr	r4, [pc, #28]	; (8004f48 <actions_esc+0x20>)
 8004f2c:	4d07      	ldr	r5, [pc, #28]	; (8004f4c <actions_esc+0x24>)
 8004f2e:	7823      	ldrb	r3, [r4, #0]
 8004f30:	2b11      	cmp	r3, #17
 8004f32:	bf08      	it	eq
 8004f34:	2301      	moveq	r3, #1
 8004f36:	f04f 0011 	mov.w	r0, #17
 8004f3a:	bf08      	it	eq
 8004f3c:	702b      	strbeq	r3, [r5, #0]
 8004f3e:	f7ff ffe1 	bl	8004f04 <reset_current_item_in_menu>
 8004f42:	782b      	ldrb	r3, [r5, #0]
 8004f44:	7023      	strb	r3, [r4, #0]
 8004f46:	bd38      	pop	{r3, r4, r5, pc}
 8004f48:	200008e9 	.word	0x200008e9
 8004f4c:	20000921 	.word	0x20000921

08004f50 <draw_current_menu>:
 8004f50:	b410      	push	{r4}
 8004f52:	4b0e      	ldr	r3, [pc, #56]	; (8004f8c <draw_current_menu+0x3c>)
 8004f54:	f993 2000 	ldrsb.w	r2, [r3]
 8004f58:	4b0d      	ldr	r3, [pc, #52]	; (8004f90 <draw_current_menu+0x40>)
 8004f5a:	681b      	ldr	r3, [r3, #0]
 8004f5c:	f853 3022 	ldr.w	r3, [r3, r2, lsl #2]
 8004f60:	7d5b      	ldrb	r3, [r3, #21]
 8004f62:	b13b      	cbz	r3, 8004f74 <draw_current_menu+0x24>
 8004f64:	4b0b      	ldr	r3, [pc, #44]	; (8004f94 <draw_current_menu+0x44>)
 8004f66:	781c      	ldrb	r4, [r3, #0]
 8004f68:	4b0b      	ldr	r3, [pc, #44]	; (8004f98 <draw_current_menu+0x48>)
 8004f6a:	2200      	movs	r2, #0
 8004f6c:	b2d0      	uxtb	r0, r2
 8004f6e:	f813 1030 	ldrb.w	r1, [r3, r0, lsl #3]
 8004f72:	b909      	cbnz	r1, 8004f78 <draw_current_menu+0x28>
 8004f74:	bc10      	pop	{r4}
 8004f76:	4770      	bx	lr
 8004f78:	428c      	cmp	r4, r1
 8004f7a:	f102 0201 	add.w	r2, r2, #1
 8004f7e:	d1f5      	bne.n	8004f6c <draw_current_menu+0x1c>
 8004f80:	eb03 03c0 	add.w	r3, r3, r0, lsl #3
 8004f84:	bc10      	pop	{r4}
 8004f86:	685b      	ldr	r3, [r3, #4]
 8004f88:	4718      	bx	r3
 8004f8a:	bf00      	nop
 8004f8c:	20000946 	.word	0x20000946
 8004f90:	2000091c 	.word	0x2000091c
 8004f94:	200008e9 	.word	0x200008e9
 8004f98:	08010aa8 	.word	0x08010aa8

08004f9c <draw_this_device>:
 8004f9c:	e92d 4ff0 	stmdb	sp!, {r4, r5, r6, r7, r8, r9, sl, fp, lr}
 8004fa0:	4ca9      	ldr	r4, [pc, #676]	; (8005248 <draw_this_device+0x2ac>)
 8004fa2:	4aaa      	ldr	r2, [pc, #680]	; (800524c <draw_this_device+0x2b0>)
 8004fa4:	7b63      	ldrb	r3, [r4, #13]
 8004fa6:	4eaa      	ldr	r6, [pc, #680]	; (8005250 <draw_this_device+0x2b4>)
 8004fa8:	4faa      	ldr	r7, [pc, #680]	; (8005254 <draw_this_device+0x2b8>)
 8004faa:	f8df 82ac 	ldr.w	r8, [pc, #684]	; 8005258 <draw_this_device+0x2bc>
 8004fae:	b089      	sub	sp, #36	; 0x24
 8004fb0:	2000      	movs	r0, #0
 8004fb2:	9304      	str	r3, [sp, #16]
 8004fb4:	f894 a00c 	ldrb.w	sl, [r4, #12]
 8004fb8:	f894 c00b 	ldrb.w	ip, [r4, #11]
 8004fbc:	7aa3      	ldrb	r3, [r4, #10]
 8004fbe:	7ba1      	ldrb	r1, [r4, #14]
 8004fc0:	7010      	strb	r0, [r2, #0]
 8004fc2:	f996 2000 	ldrsb.w	r2, [r6]
 8004fc6:	6838      	ldr	r0, [r7, #0]
 8004fc8:	f850 0022 	ldr.w	r0, [r0, r2, lsl #2]
 8004fcc:	7e05      	ldrb	r5, [r0, #24]
 8004fce:	2d00      	cmp	r5, #0
 8004fd0:	f000 8129 	beq.w	8005226 <draw_this_device+0x28a>
 8004fd4:	f5a3 63fa 	sub.w	r3, r3, #2000	; 0x7d0
 8004fd8:	eb03 230c 	add.w	r3, r3, ip, lsl #8
 8004fdc:	b29b      	uxth	r3, r3
 8004fde:	9305      	str	r3, [sp, #20]
 8004fe0:	f8d8 3000 	ldr.w	r3, [r8]
 8004fe4:	7a5d      	ldrb	r5, [r3, #9]
 8004fe6:	440d      	add	r5, r1
 8004fe8:	b2ed      	uxtb	r5, r5
 8004fea:	2d17      	cmp	r5, #23
 8004fec:	d901      	bls.n	8004ff2 <draw_this_device+0x56>
 8004fee:	3d18      	subs	r5, #24
 8004ff0:	b2ed      	uxtb	r5, r5
 8004ff2:	499a      	ldr	r1, [pc, #616]	; (800525c <draw_this_device+0x2c0>)
 8004ff4:	489a      	ldr	r0, [pc, #616]	; (8005260 <draw_this_device+0x2c4>)
 8004ff6:	f006 fe7f 	bl	800bcf8 <siprintf>
 8004ffa:	f996 2000 	ldrsb.w	r2, [r6]
 8004ffe:	683b      	ldr	r3, [r7, #0]
 8005000:	f853 3022 	ldr.w	r3, [r3, r2, lsl #2]
 8005004:	7dd9      	ldrb	r1, [r3, #23]
 8005006:	4b97      	ldr	r3, [pc, #604]	; (8005264 <draw_this_device+0x2c8>)
 8005008:	2900      	cmp	r1, #0
 800500a:	f000 8110 	beq.w	800522e <draw_this_device+0x292>
 800500e:	2100      	movs	r1, #0
 8005010:	9102      	str	r1, [sp, #8]
 8005012:	f64f 72e0 	movw	r2, #65504	; 0xffe0
 8005016:	9201      	str	r2, [sp, #4]
 8005018:	685a      	ldr	r2, [r3, #4]
 800501a:	9200      	str	r2, [sp, #0]
 800501c:	4608      	mov	r0, r1
 800501e:	681b      	ldr	r3, [r3, #0]
 8005020:	4a8f      	ldr	r2, [pc, #572]	; (8005260 <draw_this_device+0x2c4>)
 8005022:	f8df b230 	ldr.w	fp, [pc, #560]	; 8005254 <draw_this_device+0x2b8>
 8005026:	f7fc ff09 	bl	8001e3c <draw_str_by_rows>
 800502a:	f8d8 0000 	ldr.w	r0, [r8]
 800502e:	4a8e      	ldr	r2, [pc, #568]	; (8005268 <draw_this_device+0x2cc>)
 8005030:	7941      	ldrb	r1, [r0, #5]
 8005032:	78c0      	ldrb	r0, [r0, #3]
 8005034:	9000      	str	r0, [sp, #0]
 8005036:	2319      	movs	r3, #25
 8005038:	fb13 2301 	smlabb	r3, r3, r1, r2
 800503c:	f44f 717a 	mov.w	r1, #1000	; 0x3e8
 8005040:	488a      	ldr	r0, [pc, #552]	; (800526c <draw_this_device+0x2d0>)
 8005042:	fbb3 f2f1 	udiv	r2, r3, r1
 8005046:	fb01 3312 	mls	r3, r1, r2, r3
 800504a:	4989      	ldr	r1, [pc, #548]	; (8005270 <draw_this_device+0x2d4>)
 800504c:	f006 fe54 	bl	800bcf8 <siprintf>
 8005050:	f8d8 3000 	ldr.w	r3, [r8]
 8005054:	4a87      	ldr	r2, [pc, #540]	; (8005274 <draw_this_device+0x2d8>)
 8005056:	7918      	ldrb	r0, [r3, #4]
 8005058:	f8d2 c000 	ldr.w	ip, [r2]
 800505c:	799a      	ldrb	r2, [r3, #6]
 800505e:	4b86      	ldr	r3, [pc, #536]	; (8005278 <draw_this_device+0x2dc>)
 8005060:	6819      	ldr	r1, [r3, #0]
 8005062:	f81c 3000 	ldrb.w	r3, [ip, r0]
 8005066:	5c8a      	ldrb	r2, [r1, r2]
 8005068:	4884      	ldr	r0, [pc, #528]	; (800527c <draw_this_device+0x2e0>)
 800506a:	4985      	ldr	r1, [pc, #532]	; (8005280 <draw_this_device+0x2e4>)
 800506c:	f006 fe44 	bl	800bcf8 <siprintf>
 8005070:	f8db 3000 	ldr.w	r3, [fp]
 8005074:	f996 2000 	ldrsb.w	r2, [r6]
 8005078:	4882      	ldr	r0, [pc, #520]	; (8005284 <draw_this_device+0x2e8>)
 800507a:	f853 2022 	ldr.w	r2, [r3, r2, lsl #2]
 800507e:	f892 1040 	ldrb.w	r1, [r2, #64]	; 0x40
 8005082:	f992 2042 	ldrsb.w	r2, [r2, #66]	; 0x42
 8005086:	f04f 0964 	mov.w	r9, #100	; 0x64
 800508a:	f501 7187 	add.w	r1, r1, #270	; 0x10e
 800508e:	fbb1 f3f9 	udiv	r3, r1, r9
 8005092:	fb09 1113 	mls	r1, r9, r3, r1
 8005096:	9100      	str	r1, [sp, #0]
 8005098:	497b      	ldr	r1, [pc, #492]	; (8005288 <draw_this_device+0x2ec>)
 800509a:	f006 fe2d 	bl	800bcf8 <siprintf>
 800509e:	f996 2000 	ldrsb.w	r2, [r6]
 80050a2:	f8db 3000 	ldr.w	r3, [fp]
 80050a6:	4979      	ldr	r1, [pc, #484]	; (800528c <draw_this_device+0x2f0>)
 80050a8:	f853 3022 	ldr.w	r3, [r3, r2, lsl #2]
 80050ac:	4878      	ldr	r0, [pc, #480]	; (8005290 <draw_this_device+0x2f4>)
 80050ae:	f893 3041 	ldrb.w	r3, [r3, #65]	; 0x41
 80050b2:	f503 7387 	add.w	r3, r3, #270	; 0x10e
 80050b6:	fbb3 f2f9 	udiv	r2, r3, r9
 80050ba:	fb09 3312 	mls	r3, r9, r2, r3
 80050be:	f006 fe1b 	bl	800bcf8 <siprintf>
 80050c2:	4a74      	ldr	r2, [pc, #464]	; (8005294 <draw_this_device+0x2f8>)
 80050c4:	f8d8 3000 	ldr.w	r3, [r8]
 80050c8:	7bd1      	ldrb	r1, [r2, #15]
 80050ca:	781b      	ldrb	r3, [r3, #0]
 80050cc:	9100      	str	r1, [sp, #0]
 80050ce:	6912      	ldr	r2, [r2, #16]
 80050d0:	4971      	ldr	r1, [pc, #452]	; (8005298 <draw_this_device+0x2fc>)
 80050d2:	4872      	ldr	r0, [pc, #456]	; (800529c <draw_this_device+0x300>)
 80050d4:	f8df 81c8 	ldr.w	r8, [pc, #456]	; 80052a0 <draw_this_device+0x304>
 80050d8:	f006 fe0e 	bl	800bcf8 <siprintf>
 80050dc:	4a63      	ldr	r2, [pc, #396]	; (800526c <draw_this_device+0x2d0>)
 80050de:	2116      	movs	r1, #22
 80050e0:	f04f 0900 	mov.w	r9, #0
 80050e4:	f64f 7be0 	movw	fp, #65504	; 0xffe0
 80050e8:	e9cd b901 	strd	fp, r9, [sp, #4]
 80050ec:	f8d8 3004 	ldr.w	r3, [r8, #4]
 80050f0:	9300      	str	r3, [sp, #0]
 80050f2:	f8d8 3000 	ldr.w	r3, [r8]
 80050f6:	2000      	movs	r0, #0
 80050f8:	e9cd 1206 	strd	r1, r2, [sp, #24]
 80050fc:	f7fc fe9e 	bl	8001e3c <draw_str_by_rows>
 8005100:	9906      	ldr	r1, [sp, #24]
 8005102:	9a07      	ldr	r2, [sp, #28]
 8005104:	310b      	adds	r1, #11
 8005106:	b2c9      	uxtb	r1, r1
 8005108:	294d      	cmp	r1, #77	; 0x4d
 800510a:	f102 0220 	add.w	r2, r2, #32
 800510e:	d1eb      	bne.n	80050e8 <draw_this_device+0x14c>
 8005110:	f8df 8190 	ldr.w	r8, [pc, #400]	; 80052a4 <draw_this_device+0x308>
 8005114:	683b      	ldr	r3, [r7, #0]
 8005116:	f998 2000 	ldrsb.w	r2, [r8]
 800511a:	f853 1022 	ldr.w	r1, [r3, r2, lsl #2]
 800511e:	8b4a      	ldrh	r2, [r1, #26]
 8005120:	7d89      	ldrb	r1, [r1, #22]
 8005122:	2064      	movs	r0, #100	; 0x64
 8005124:	fbb2 f3f0 	udiv	r3, r2, r0
 8005128:	fb00 2213 	mls	r2, r0, r3, r2
 800512c:	b292      	uxth	r2, r2
 800512e:	9200      	str	r2, [sp, #0]
 8005130:	4a5d      	ldr	r2, [pc, #372]	; (80052a8 <draw_this_device+0x30c>)
 8005132:	485e      	ldr	r0, [pc, #376]	; (80052ac <draw_this_device+0x310>)
 8005134:	f852 2021 	ldr.w	r2, [r2, r1, lsl #2]
 8005138:	495d      	ldr	r1, [pc, #372]	; (80052b0 <draw_this_device+0x314>)
 800513a:	f006 fddd 	bl	800bcf8 <siprintf>
 800513e:	7c23      	ldrb	r3, [r4, #16]
 8005140:	9303      	str	r3, [sp, #12]
 8005142:	7be3      	ldrb	r3, [r4, #15]
 8005144:	9a04      	ldr	r2, [sp, #16]
 8005146:	495b      	ldr	r1, [pc, #364]	; (80052b4 <draw_this_device+0x318>)
 8005148:	485b      	ldr	r0, [pc, #364]	; (80052b8 <draw_this_device+0x31c>)
 800514a:	e9cd 5301 	strd	r5, r3, [sp, #4]
 800514e:	9b05      	ldr	r3, [sp, #20]
 8005150:	9300      	str	r3, [sp, #0]
 8005152:	4653      	mov	r3, sl
 8005154:	f006 fdd0 	bl	800bcf8 <siprintf>
 8005158:	f996 2000 	ldrsb.w	r2, [r6]
 800515c:	683b      	ldr	r3, [r7, #0]
 800515e:	4957      	ldr	r1, [pc, #348]	; (80052bc <draw_this_device+0x320>)
 8005160:	f853 3022 	ldr.w	r3, [r3, r2, lsl #2]
 8005164:	4856      	ldr	r0, [pc, #344]	; (80052c0 <draw_this_device+0x324>)
 8005166:	6a1a      	ldr	r2, [r3, #32]
 8005168:	f006 fdc6 	bl	800bcf8 <siprintf>
 800516c:	f996 2000 	ldrsb.w	r2, [r6]
 8005170:	683b      	ldr	r3, [r7, #0]
 8005172:	4954      	ldr	r1, [pc, #336]	; (80052c4 <draw_this_device+0x328>)
 8005174:	f853 3022 	ldr.w	r3, [r3, r2, lsl #2]
 8005178:	4853      	ldr	r0, [pc, #332]	; (80052c8 <draw_this_device+0x32c>)
 800517a:	6a5a      	ldr	r2, [r3, #36]	; 0x24
 800517c:	f006 fdbc 	bl	800bcf8 <siprintf>
 8005180:	f894 302c 	ldrb.w	r3, [r4, #44]	; 0x2c
 8005184:	f894 202d 	ldrb.w	r2, [r4, #45]	; 0x2d
 8005188:	4950      	ldr	r1, [pc, #320]	; (80052cc <draw_this_device+0x330>)
 800518a:	4851      	ldr	r0, [pc, #324]	; (80052d0 <draw_this_device+0x334>)
 800518c:	041b      	lsls	r3, r3, #16
 800518e:	eb03 6302 	add.w	r3, r3, r2, lsl #24
 8005192:	f894 202b 	ldrb.w	r2, [r4, #43]	; 0x2b
 8005196:	eb03 2302 	add.w	r3, r3, r2, lsl #8
 800519a:	f894 202a 	ldrb.w	r2, [r4, #42]	; 0x2a
 800519e:	4413      	add	r3, r2
 80051a0:	f44f 727a 	mov.w	r2, #1000	; 0x3e8
 80051a4:	fb93 f2f2 	sdiv	r2, r3, r2
 80051a8:	f006 fda6 	bl	800bcf8 <siprintf>
 80051ac:	f996 2000 	ldrsb.w	r2, [r6]
 80051b0:	683b      	ldr	r3, [r7, #0]
 80051b2:	4948      	ldr	r1, [pc, #288]	; (80052d4 <draw_this_device+0x338>)
 80051b4:	f853 3022 	ldr.w	r3, [r3, r2, lsl #2]
 80051b8:	4847      	ldr	r0, [pc, #284]	; (80052d8 <draw_this_device+0x33c>)
 80051ba:	f893 2028 	ldrb.w	r2, [r3, #40]	; 0x28
 80051be:	f006 fd9b 	bl	800bcf8 <siprintf>
 80051c2:	f996 2000 	ldrsb.w	r2, [r6]
 80051c6:	683b      	ldr	r3, [r7, #0]
 80051c8:	f853 3022 	ldr.w	r3, [r3, r2, lsl #2]
 80051cc:	f893 2028 	ldrb.w	r2, [r3, #40]	; 0x28
 80051d0:	2a03      	cmp	r2, #3
 80051d2:	d930      	bls.n	8005236 <draw_this_device+0x29a>
 80051d4:	f9b3 202a 	ldrsh.w	r2, [r3, #42]	; 0x2a
 80051d8:	4940      	ldr	r1, [pc, #256]	; (80052dc <draw_this_device+0x340>)
 80051da:	4841      	ldr	r0, [pc, #260]	; (80052e0 <draw_this_device+0x344>)
 80051dc:	f8df 90cc 	ldr.w	r9, [pc, #204]	; 80052ac <draw_this_device+0x310>
 80051e0:	4e1c      	ldr	r6, [pc, #112]	; (8005254 <draw_this_device+0x2b8>)
 80051e2:	4d2f      	ldr	r5, [pc, #188]	; (80052a0 <draw_this_device+0x304>)
 80051e4:	f006 fd88 	bl	800bcf8 <siprintf>
 80051e8:	2451      	movs	r4, #81	; 0x51
 80051ea:	f64f 071f 	movw	r7, #63519	; 0xf81f
 80051ee:	f998 2000 	ldrsb.w	r2, [r8]
 80051f2:	6833      	ldr	r3, [r6, #0]
 80051f4:	f853 3022 	ldr.w	r3, [r3, r2, lsl #2]
 80051f8:	7dd8      	ldrb	r0, [r3, #23]
 80051fa:	b308      	cbz	r0, 8005240 <draw_this_device+0x2a4>
 80051fc:	f44f 63fc 	mov.w	r3, #2016	; 0x7e0
 8005200:	2000      	movs	r0, #0
 8005202:	e9cd 3001 	strd	r3, r0, [sp, #4]
 8005206:	686b      	ldr	r3, [r5, #4]
 8005208:	9300      	str	r3, [sp, #0]
 800520a:	4621      	mov	r1, r4
 800520c:	340b      	adds	r4, #11
 800520e:	464a      	mov	r2, r9
 8005210:	682b      	ldr	r3, [r5, #0]
 8005212:	b2e4      	uxtb	r4, r4
 8005214:	f7fc fe12 	bl	8001e3c <draw_str_by_rows>
 8005218:	2c9e      	cmp	r4, #158	; 0x9e
 800521a:	f109 0920 	add.w	r9, r9, #32
 800521e:	d1e6      	bne.n	80051ee <draw_this_device+0x252>
 8005220:	b009      	add	sp, #36	; 0x24
 8005222:	e8bd 8ff0 	ldmia.w	sp!, {r4, r5, r6, r7, r8, r9, sl, fp, pc}
 8005226:	e9cd 5504 	strd	r5, r5, [sp, #16]
 800522a:	46aa      	mov	sl, r5
 800522c:	e6e1      	b.n	8004ff2 <draw_this_device+0x56>
 800522e:	9102      	str	r1, [sp, #8]
 8005230:	f64f 021f 	movw	r2, #63519	; 0xf81f
 8005234:	e6ef      	b.n	8005016 <draw_this_device+0x7a>
 8005236:	4b2b      	ldr	r3, [pc, #172]	; (80052e4 <draw_this_device+0x348>)
 8005238:	492b      	ldr	r1, [pc, #172]	; (80052e8 <draw_this_device+0x34c>)
 800523a:	f9b3 2000 	ldrsh.w	r2, [r3]
 800523e:	e7cc      	b.n	80051da <draw_this_device+0x23e>
 8005240:	e9cd 7001 	strd	r7, r0, [sp, #4]
 8005244:	e7df      	b.n	8005206 <draw_this_device+0x26a>
 8005246:	bf00      	nop
 8005248:	200010c0 	.word	0x200010c0
 800524c:	20000922 	.word	0x20000922
 8005250:	20000946 	.word	0x20000946
 8005254:	2000091c 	.word	0x2000091c
 8005258:	20000914 	.word	0x20000914
 800525c:	0801089e 	.word	0x0801089e
 8005260:	2000058c 	.word	0x2000058c
 8005264:	20000004 	.word	0x20000004
 8005268:	00069b9a 	.word	0x00069b9a
 800526c:	200005cc 	.word	0x200005cc
 8005270:	080108ab 	.word	0x080108ab
 8005274:	20000910 	.word	0x20000910
 8005278:	20000918 	.word	0x20000918
 800527c:	200005ec 	.word	0x200005ec
 8005280:	080108c1 	.word	0x080108c1
 8005284:	2000060c 	.word	0x2000060c
 8005288:	080108d6 	.word	0x080108d6
 800528c:	080108ef 	.word	0x080108ef
 8005290:	2000062c 	.word	0x2000062c
 8005294:	20000578 	.word	0x20000578
 8005298:	08010905 	.word	0x08010905
 800529c:	2000064c 	.word	0x2000064c
 80052a0:	20000014 	.word	0x20000014
 80052a4:	200008e8 	.word	0x200008e8
 80052a8:	2000002c 	.word	0x2000002c
 80052ac:	2000066c 	.word	0x2000066c
 80052b0:	0801076a 	.word	0x0801076a
 80052b4:	0801074b 	.word	0x0801074b
 80052b8:	2000068c 	.word	0x2000068c
 80052bc:	08010918 	.word	0x08010918
 80052c0:	200006ac 	.word	0x200006ac
 80052c4:	08010924 	.word	0x08010924
 80052c8:	200006cc 	.word	0x200006cc
 80052cc:	08010930 	.word	0x08010930
 80052d0:	200006ec 	.word	0x200006ec
 80052d4:	08010942 	.word	0x08010942
 80052d8:	2000070c 	.word	0x2000070c
 80052dc:	08010955 	.word	0x08010955
 80052e0:	2000072c 	.word	0x2000072c
 80052e4:	200002f4 	.word	0x200002f4
 80052e8:	0801096a 	.word	0x0801096a

080052ec <draw_devices>:
 80052ec:	e92d 47ff 	stmdb	sp!, {r0, r1, r2, r3, r4, r5, r6, r7, r8, r9, sl, lr}
 80052f0:	4c8c      	ldr	r4, [pc, #560]	; (8005524 <draw_devices+0x238>)
 80052f2:	4e8d      	ldr	r6, [pc, #564]	; (8005528 <draw_devices+0x23c>)
 80052f4:	f994 3000 	ldrsb.w	r3, [r4]
 80052f8:	f996 2000 	ldrsb.w	r2, [r6]
 80052fc:	429a      	cmp	r2, r3
 80052fe:	d104      	bne.n	800530a <draw_devices+0x1e>
 8005300:	b004      	add	sp, #16
 8005302:	e8bd 47f0 	ldmia.w	sp!, {r4, r5, r6, r7, r8, r9, sl, lr}
 8005306:	f7ff be49 	b.w	8004f9c <draw_this_device>
 800530a:	4d88      	ldr	r5, [pc, #544]	; (800552c <draw_devices+0x240>)
 800530c:	682a      	ldr	r2, [r5, #0]
 800530e:	f852 1023 	ldr.w	r1, [r2, r3, lsl #2]
 8005312:	780a      	ldrb	r2, [r1, #0]
 8005314:	429a      	cmp	r2, r3
 8005316:	f040 80dc 	bne.w	80054d2 <draw_devices+0x1e6>
 800531a:	790b      	ldrb	r3, [r1, #4]
 800531c:	2b00      	cmp	r3, #0
 800531e:	f000 80d6 	beq.w	80054ce <draw_devices+0x1e2>
 8005322:	4983      	ldr	r1, [pc, #524]	; (8005530 <draw_devices+0x244>)
 8005324:	4883      	ldr	r0, [pc, #524]	; (8005534 <draw_devices+0x248>)
 8005326:	f006 fce7 	bl	800bcf8 <siprintf>
 800532a:	2100      	movs	r1, #0
 800532c:	f64f 72e0 	movw	r2, #65504	; 0xffe0
 8005330:	e9cd 2101 	strd	r2, r1, [sp, #4]
 8005334:	4b80      	ldr	r3, [pc, #512]	; (8005538 <draw_devices+0x24c>)
 8005336:	685a      	ldr	r2, [r3, #4]
 8005338:	9200      	str	r2, [sp, #0]
 800533a:	4608      	mov	r0, r1
 800533c:	681b      	ldr	r3, [r3, #0]
 800533e:	4a7d      	ldr	r2, [pc, #500]	; (8005534 <draw_devices+0x248>)
 8005340:	f7fc fd7c 	bl	8001e3c <draw_str_by_rows>
 8005344:	f994 2000 	ldrsb.w	r2, [r4]
 8005348:	682b      	ldr	r3, [r5, #0]
 800534a:	f853 0022 	ldr.w	r0, [r3, r2, lsl #2]
 800534e:	8b42      	ldrh	r2, [r0, #26]
 8005350:	7d80      	ldrb	r0, [r0, #22]
 8005352:	210a      	movs	r1, #10
 8005354:	fbb2 f3f1 	udiv	r3, r2, r1
 8005358:	fb01 2213 	mls	r2, r1, r3, r2
 800535c:	b292      	uxth	r2, r2
 800535e:	9200      	str	r2, [sp, #0]
 8005360:	4a76      	ldr	r2, [pc, #472]	; (800553c <draw_devices+0x250>)
 8005362:	4977      	ldr	r1, [pc, #476]	; (8005540 <draw_devices+0x254>)
 8005364:	f852 2020 	ldr.w	r2, [r2, r0, lsl #2]
 8005368:	4876      	ldr	r0, [pc, #472]	; (8005544 <draw_devices+0x258>)
 800536a:	f006 fcc5 	bl	800bcf8 <siprintf>
 800536e:	f994 2000 	ldrsb.w	r2, [r4]
 8005372:	4b75      	ldr	r3, [pc, #468]	; (8005548 <draw_devices+0x25c>)
 8005374:	eb03 03c2 	add.w	r3, r3, r2, lsl #3
 8005378:	e9d3 0100 	ldrd	r0, r1, [r3]
 800537c:	f7fb fbe4 	bl	8000b48 <__aeabi_d2uiz>
 8005380:	4972      	ldr	r1, [pc, #456]	; (800554c <draw_devices+0x260>)
 8005382:	b282      	uxth	r2, r0
 8005384:	4872      	ldr	r0, [pc, #456]	; (8005550 <draw_devices+0x264>)
 8005386:	f006 fcb7 	bl	800bcf8 <siprintf>
 800538a:	f994 2000 	ldrsb.w	r2, [r4]
 800538e:	4b71      	ldr	r3, [pc, #452]	; (8005554 <draw_devices+0x268>)
 8005390:	4871      	ldr	r0, [pc, #452]	; (8005558 <draw_devices+0x26c>)
 8005392:	f833 3012 	ldrh.w	r3, [r3, r2, lsl #1]
 8005396:	4a71      	ldr	r2, [pc, #452]	; (800555c <draw_devices+0x270>)
 8005398:	8812      	ldrh	r2, [r2, #0]
 800539a:	1a9b      	subs	r3, r3, r2
 800539c:	b299      	uxth	r1, r3
 800539e:	b21b      	sxth	r3, r3
 80053a0:	4a6f      	ldr	r2, [pc, #444]	; (8005560 <draw_devices+0x274>)
 80053a2:	2bb4      	cmp	r3, #180	; 0xb4
 80053a4:	bfc8      	it	gt
 80053a6:	f5a1 73b4 	subgt.w	r3, r1, #360	; 0x168
 80053aa:	8013      	strh	r3, [r2, #0]
 80053ac:	f9b2 3000 	ldrsh.w	r3, [r2]
 80053b0:	496c      	ldr	r1, [pc, #432]	; (8005564 <draw_devices+0x278>)
 80053b2:	f113 0fb4 	cmn.w	r3, #180	; 0xb4
 80053b6:	bfbc      	itt	lt
 80053b8:	f503 73b4 	addlt.w	r3, r3, #360	; 0x168
 80053bc:	8013      	strhlt	r3, [r2, #0]
 80053be:	f9b2 2000 	ldrsh.w	r2, [r2]
 80053c2:	f006 fc99 	bl	800bcf8 <siprintf>
 80053c6:	f994 2000 	ldrsb.w	r2, [r4]
 80053ca:	682b      	ldr	r3, [r5, #0]
 80053cc:	4966      	ldr	r1, [pc, #408]	; (8005568 <draw_devices+0x27c>)
 80053ce:	f853 3022 	ldr.w	r3, [r3, r2, lsl #2]
 80053d2:	4866      	ldr	r0, [pc, #408]	; (800556c <draw_devices+0x280>)
 80053d4:	f893 2028 	ldrb.w	r2, [r3, #40]	; 0x28
 80053d8:	f006 fc8e 	bl	800bcf8 <siprintf>
 80053dc:	f994 2000 	ldrsb.w	r2, [r4]
 80053e0:	682b      	ldr	r3, [r5, #0]
 80053e2:	f853 3022 	ldr.w	r3, [r3, r2, lsl #2]
 80053e6:	f893 1028 	ldrb.w	r1, [r3, #40]	; 0x28
 80053ea:	2900      	cmp	r1, #0
 80053ec:	d074      	beq.n	80054d8 <draw_devices+0x1ec>
 80053ee:	f9b3 202a 	ldrsh.w	r2, [r3, #42]	; 0x2a
 80053f2:	495f      	ldr	r1, [pc, #380]	; (8005570 <draw_devices+0x284>)
 80053f4:	485f      	ldr	r0, [pc, #380]	; (8005574 <draw_devices+0x288>)
 80053f6:	f006 fc7f 	bl	800bcf8 <siprintf>
 80053fa:	495f      	ldr	r1, [pc, #380]	; (8005578 <draw_devices+0x28c>)
 80053fc:	485f      	ldr	r0, [pc, #380]	; (800557c <draw_devices+0x290>)
 80053fe:	f006 fc9b 	bl	800bd38 <strcpy>
 8005402:	f994 2000 	ldrsb.w	r2, [r4]
 8005406:	682b      	ldr	r3, [r5, #0]
 8005408:	f853 3022 	ldr.w	r3, [r3, r2, lsl #2]
 800540c:	f893 3041 	ldrb.w	r3, [r3, #65]	; 0x41
 8005410:	2b1f      	cmp	r3, #31
 8005412:	d863      	bhi.n	80054dc <draw_devices+0x1f0>
 8005414:	495a      	ldr	r1, [pc, #360]	; (8005580 <draw_devices+0x294>)
 8005416:	485b      	ldr	r0, [pc, #364]	; (8005584 <draw_devices+0x298>)
 8005418:	f006 fc8e 	bl	800bd38 <strcpy>
 800541c:	f994 2000 	ldrsb.w	r2, [r4]
 8005420:	682b      	ldr	r3, [r5, #0]
 8005422:	4959      	ldr	r1, [pc, #356]	; (8005588 <draw_devices+0x29c>)
 8005424:	f853 3022 	ldr.w	r3, [r3, r2, lsl #2]
 8005428:	4858      	ldr	r0, [pc, #352]	; (800558c <draw_devices+0x2a0>)
 800542a:	f993 2043 	ldrsb.w	r2, [r3, #67]	; 0x43
 800542e:	f006 fc63 	bl	800bcf8 <siprintf>
 8005432:	f994 2000 	ldrsb.w	r2, [r4]
 8005436:	682b      	ldr	r3, [r5, #0]
 8005438:	4955      	ldr	r1, [pc, #340]	; (8005590 <draw_devices+0x2a4>)
 800543a:	f853 3022 	ldr.w	r3, [r3, r2, lsl #2]
 800543e:	4855      	ldr	r0, [pc, #340]	; (8005594 <draw_devices+0x2a8>)
 8005440:	f993 2044 	ldrsb.w	r2, [r3, #68]	; 0x44
 8005444:	f006 fc58 	bl	800bcf8 <siprintf>
 8005448:	4b53      	ldr	r3, [pc, #332]	; (8005598 <draw_devices+0x2ac>)
 800544a:	681b      	ldr	r3, [r3, #0]
 800544c:	78db      	ldrb	r3, [r3, #3]
 800544e:	2b0c      	cmp	r3, #12
 8005450:	d14f      	bne.n	80054f2 <draw_devices+0x206>
 8005452:	4949      	ldr	r1, [pc, #292]	; (8005578 <draw_devices+0x28c>)
 8005454:	4851      	ldr	r0, [pc, #324]	; (800559c <draw_devices+0x2b0>)
 8005456:	f006 fc6f 	bl	800bd38 <strcpy>
 800545a:	f994 2000 	ldrsb.w	r2, [r4]
 800545e:	682b      	ldr	r3, [r5, #0]
 8005460:	494f      	ldr	r1, [pc, #316]	; (80055a0 <draw_devices+0x2b4>)
 8005462:	f853 3022 	ldr.w	r3, [r3, r2, lsl #2]
 8005466:	484f      	ldr	r0, [pc, #316]	; (80055a4 <draw_devices+0x2b8>)
 8005468:	6a1a      	ldr	r2, [r3, #32]
 800546a:	f8df a0d8 	ldr.w	sl, [pc, #216]	; 8005544 <draw_devices+0x258>
 800546e:	4f4e      	ldr	r7, [pc, #312]	; (80055a8 <draw_devices+0x2bc>)
 8005470:	f006 fc42 	bl	800bcf8 <siprintf>
 8005474:	f994 2000 	ldrsb.w	r2, [r4]
 8005478:	682b      	ldr	r3, [r5, #0]
 800547a:	494c      	ldr	r1, [pc, #304]	; (80055ac <draw_devices+0x2c0>)
 800547c:	f853 3022 	ldr.w	r3, [r3, r2, lsl #2]
 8005480:	484b      	ldr	r0, [pc, #300]	; (80055b0 <draw_devices+0x2c4>)
 8005482:	6a5a      	ldr	r2, [r3, #36]	; 0x24
 8005484:	f006 fc38 	bl	800bcf8 <siprintf>
 8005488:	261a      	movs	r6, #26
 800548a:	f64f 081f 	movw	r8, #63519	; 0xf81f
 800548e:	f04f 0900 	mov.w	r9, #0
 8005492:	f994 2000 	ldrsb.w	r2, [r4]
 8005496:	682b      	ldr	r3, [r5, #0]
 8005498:	f853 3022 	ldr.w	r3, [r3, r2, lsl #2]
 800549c:	7dd8      	ldrb	r0, [r3, #23]
 800549e:	2800      	cmp	r0, #0
 80054a0:	d037      	beq.n	8005512 <draw_devices+0x226>
 80054a2:	f44f 63fc 	mov.w	r3, #2016	; 0x7e0
 80054a6:	9301      	str	r3, [sp, #4]
 80054a8:	687b      	ldr	r3, [r7, #4]
 80054aa:	9300      	str	r3, [sp, #0]
 80054ac:	683b      	ldr	r3, [r7, #0]
 80054ae:	f8cd 9008 	str.w	r9, [sp, #8]
 80054b2:	4652      	mov	r2, sl
 80054b4:	4631      	mov	r1, r6
 80054b6:	2000      	movs	r0, #0
 80054b8:	360b      	adds	r6, #11
 80054ba:	b2f6      	uxtb	r6, r6
 80054bc:	f7fc fcbe 	bl	8001e3c <draw_str_by_rows>
 80054c0:	2e9e      	cmp	r6, #158	; 0x9e
 80054c2:	f10a 0a20 	add.w	sl, sl, #32
 80054c6:	d1e4      	bne.n	8005492 <draw_devices+0x1a6>
 80054c8:	b004      	add	sp, #16
 80054ca:	e8bd 87f0 	ldmia.w	sp!, {r4, r5, r6, r7, r8, r9, sl, pc}
 80054ce:	4939      	ldr	r1, [pc, #228]	; (80055b4 <draw_devices+0x2c8>)
 80054d0:	e728      	b.n	8005324 <draw_devices+0x38>
 80054d2:	4939      	ldr	r1, [pc, #228]	; (80055b8 <draw_devices+0x2cc>)
 80054d4:	461a      	mov	r2, r3
 80054d6:	e725      	b.n	8005324 <draw_devices+0x38>
 80054d8:	4938      	ldr	r1, [pc, #224]	; (80055bc <draw_devices+0x2d0>)
 80054da:	e78b      	b.n	80053f4 <draw_devices+0x108>
 80054dc:	210a      	movs	r1, #10
 80054de:	fbb3 f2f1 	udiv	r2, r3, r1
 80054e2:	fb01 3312 	mls	r3, r1, r2, r3
 80054e6:	b2db      	uxtb	r3, r3
 80054e8:	4935      	ldr	r1, [pc, #212]	; (80055c0 <draw_devices+0x2d4>)
 80054ea:	4826      	ldr	r0, [pc, #152]	; (8005584 <draw_devices+0x298>)
 80054ec:	f006 fc04 	bl	800bcf8 <siprintf>
 80054f0:	e794      	b.n	800541c <draw_devices+0x130>
 80054f2:	f994 2000 	ldrsb.w	r2, [r4]
 80054f6:	682b      	ldr	r3, [r5, #0]
 80054f8:	4932      	ldr	r1, [pc, #200]	; (80055c4 <draw_devices+0x2d8>)
 80054fa:	f853 3022 	ldr.w	r3, [r3, r2, lsl #2]
 80054fe:	4827      	ldr	r0, [pc, #156]	; (800559c <draw_devices+0x2b0>)
 8005500:	781a      	ldrb	r2, [r3, #0]
 8005502:	4b31      	ldr	r3, [pc, #196]	; (80055c8 <draw_devices+0x2dc>)
 8005504:	881b      	ldrh	r3, [r3, #0]
 8005506:	9300      	str	r3, [sp, #0]
 8005508:	f996 3000 	ldrsb.w	r3, [r6]
 800550c:	f006 fbf4 	bl	800bcf8 <siprintf>
 8005510:	e7a3      	b.n	800545a <draw_devices+0x16e>
 8005512:	687b      	ldr	r3, [r7, #4]
 8005514:	9300      	str	r3, [sp, #0]
 8005516:	e9cd 8001 	strd	r8, r0, [sp, #4]
 800551a:	683b      	ldr	r3, [r7, #0]
 800551c:	4652      	mov	r2, sl
 800551e:	4631      	mov	r1, r6
 8005520:	e7ca      	b.n	80054b8 <draw_devices+0x1cc>
 8005522:	bf00      	nop
 8005524:	200008e8 	.word	0x200008e8
 8005528:	20000946 	.word	0x20000946
 800552c:	2000091c 	.word	0x2000091c
 8005530:	0801097f 	.word	0x0801097f
 8005534:	2000058c 	.word	0x2000058c
 8005538:	20000004 	.word	0x20000004
 800553c:	2000002c 	.word	0x2000002c
 8005540:	080109a6 	.word	0x080109a6
 8005544:	200005cc 	.word	0x200005cc
 8005548:	20000528 	.word	0x20000528
 800554c:	080109b7 	.word	0x080109b7
 8005550:	200005ec 	.word	0x200005ec
 8005554:	20000330 	.word	0x20000330
 8005558:	2000060c 	.word	0x2000060c
 800555c:	200002f4 	.word	0x200002f4
 8005560:	2000088c 	.word	0x2000088c
 8005564:	080109c6 	.word	0x080109c6
 8005568:	080109d9 	.word	0x080109d9
 800556c:	2000062c 	.word	0x2000062c
 8005570:	08010955 	.word	0x08010955
 8005574:	2000064c 	.word	0x2000064c
 8005578:	080109ff 	.word	0x080109ff
 800557c:	2000066c 	.word	0x2000066c
 8005580:	08010a12 	.word	0x08010a12
 8005584:	2000068c 	.word	0x2000068c
 8005588:	08010a3a 	.word	0x08010a3a
 800558c:	200006ac 	.word	0x200006ac
 8005590:	08010a46 	.word	0x08010a46
 8005594:	200006cc 	.word	0x200006cc
 8005598:	20000914 	.word	0x20000914
 800559c:	200006ec 	.word	0x200006ec
 80055a0:	08010918 	.word	0x08010918
 80055a4:	2000070c 	.word	0x2000070c
 80055a8:	20000014 	.word	0x20000014
 80055ac:	08010924 	.word	0x08010924
 80055b0:	2000072c 	.word	0x2000072c
 80055b4:	0801098c 	.word	0x0801098c
 80055b8:	08010999 	.word	0x08010999
 80055bc:	080109eb 	.word	0x080109eb
 80055c0:	08010a25 	.word	0x08010a25
 80055c4:	08010a53 	.word	0x08010a53
 80055c8:	2000115e 	.word	0x2000115e

080055cc <scroll_devices_up>:
 80055cc:	4906      	ldr	r1, [pc, #24]	; (80055e8 <scroll_devices_up+0x1c>)
 80055ce:	4a07      	ldr	r2, [pc, #28]	; (80055ec <scroll_devices_up+0x20>)
 80055d0:	6809      	ldr	r1, [r1, #0]
 80055d2:	f992 3000 	ldrsb.w	r3, [r2]
 80055d6:	7889      	ldrb	r1, [r1, #2]
 80055d8:	428b      	cmp	r3, r1
 80055da:	bf1a      	itte	ne
 80055dc:	3301      	addne	r3, #1
 80055de:	b25b      	sxtbne	r3, r3
 80055e0:	2301      	moveq	r3, #1
 80055e2:	7013      	strb	r3, [r2, #0]
 80055e4:	f7ff be82 	b.w	80052ec <draw_devices>
 80055e8:	20000914 	.word	0x20000914
 80055ec:	200008e8 	.word	0x200008e8

080055f0 <scroll_devices_down>:
 80055f0:	4a07      	ldr	r2, [pc, #28]	; (8005610 <scroll_devices_down+0x20>)
 80055f2:	f992 3000 	ldrsb.w	r3, [r2]
 80055f6:	2b01      	cmp	r3, #1
 80055f8:	bf05      	ittet	eq
 80055fa:	4b06      	ldreq	r3, [pc, #24]	; (8005614 <scroll_devices_down+0x24>)
 80055fc:	681b      	ldreq	r3, [r3, #0]
 80055fe:	f103 33ff 	addne.w	r3, r3, #4294967295	; 0xffffffff
 8005602:	f993 3002 	ldrsbeq.w	r3, [r3, #2]
 8005606:	bf18      	it	ne
 8005608:	b25b      	sxtbne	r3, r3
 800560a:	7013      	strb	r3, [r2, #0]
 800560c:	f7ff be6e 	b.w	80052ec <draw_devices>
 8005610:	200008e8 	.word	0x200008e8
 8005614:	20000914 	.word	0x20000914

08005618 <MX_RTC_Init>:
 8005618:	b500      	push	{lr}
 800561a:	b08d      	sub	sp, #52	; 0x34
 800561c:	222c      	movs	r2, #44	; 0x2c
 800561e:	2100      	movs	r1, #0
 8005620:	a801      	add	r0, sp, #4
 8005622:	f006 fb33 	bl	800bc8c <memset>
 8005626:	4817      	ldr	r0, [pc, #92]	; (8005684 <MX_RTC_Init+0x6c>)
 8005628:	4b17      	ldr	r3, [pc, #92]	; (8005688 <MX_RTC_Init+0x70>)
 800562a:	6003      	str	r3, [r0, #0]
 800562c:	231f      	movs	r3, #31
 800562e:	6083      	str	r3, [r0, #8]
 8005630:	f04f 4280 	mov.w	r2, #1073741824	; 0x40000000
 8005634:	2300      	movs	r3, #0
 8005636:	e9c0 3304 	strd	r3, r3, [r0, #16]
 800563a:	e9c0 2307 	strd	r2, r3, [r0, #28]
 800563e:	6183      	str	r3, [r0, #24]
 8005640:	f44f 7380 	mov.w	r3, #256	; 0x100
 8005644:	6243      	str	r3, [r0, #36]	; 0x24
 8005646:	f002 f9a9 	bl	800799c <HAL_RTC_Init>
 800564a:	b108      	cbz	r0, 8005650 <MX_RTC_Init+0x38>
 800564c:	f7fd ffdc 	bl	8003608 <Error_Handler>
 8005650:	480c      	ldr	r0, [pc, #48]	; (8005684 <MX_RTC_Init+0x6c>)
 8005652:	f002 facb 	bl	8007bec <HAL_RTCEx_SetSSRU_IT>
 8005656:	b108      	cbz	r0, 800565c <MX_RTC_Init+0x44>
 8005658:	f7fd ffd6 	bl	8003608 <Error_Handler>
 800565c:	f04f 5300 	mov.w	r3, #536870912	; 0x20000000
 8005660:	2200      	movs	r2, #0
 8005662:	9307      	str	r3, [sp, #28]
 8005664:	4807      	ldr	r0, [pc, #28]	; (8005684 <MX_RTC_Init+0x6c>)
 8005666:	9208      	str	r2, [sp, #32]
 8005668:	f44f 7380 	mov.w	r3, #256	; 0x100
 800566c:	a901      	add	r1, sp, #4
 800566e:	9202      	str	r2, [sp, #8]
 8005670:	9206      	str	r2, [sp, #24]
 8005672:	930b      	str	r3, [sp, #44]	; 0x2c
 8005674:	f002 f9ee 	bl	8007a54 <HAL_RTC_SetAlarm_IT>
 8005678:	b108      	cbz	r0, 800567e <MX_RTC_Init+0x66>
 800567a:	f7fd ffc5 	bl	8003608 <Error_Handler>
 800567e:	b00d      	add	sp, #52	; 0x34
 8005680:	f85d fb04 	ldr.w	pc, [sp], #4
 8005684:	20000948 	.word	0x20000948
 8005688:	40002800 	.word	0x40002800

0800568c <HAL_RTC_MspInit>:
 800568c:	b510      	push	{r4, lr}
 800568e:	4604      	mov	r4, r0
 8005690:	b090      	sub	sp, #64	; 0x40
 8005692:	2238      	movs	r2, #56	; 0x38
 8005694:	2100      	movs	r1, #0
 8005696:	a802      	add	r0, sp, #8
 8005698:	f006 faf8 	bl	800bc8c <memset>
 800569c:	6822      	ldr	r2, [r4, #0]
 800569e:	4b19      	ldr	r3, [pc, #100]	; (8005704 <HAL_RTC_MspInit+0x78>)
 80056a0:	429a      	cmp	r2, r3
 80056a2:	d12c      	bne.n	80056fe <HAL_RTC_MspInit+0x72>
 80056a4:	f44f 3380 	mov.w	r3, #65536	; 0x10000
 80056a8:	9302      	str	r3, [sp, #8]
 80056aa:	a802      	add	r0, sp, #8
 80056ac:	f44f 7380 	mov.w	r3, #256	; 0x100
 80056b0:	930f      	str	r3, [sp, #60]	; 0x3c
 80056b2:	f001 ffe3 	bl	800767c <HAL_RCCEx_PeriphCLKConfig>
 80056b6:	b108      	cbz	r0, 80056bc <HAL_RTC_MspInit+0x30>
 80056b8:	f7fd ffa6 	bl	8003608 <Error_Handler>
 80056bc:	f04f 43b0 	mov.w	r3, #1476395008	; 0x58000000
 80056c0:	2002      	movs	r0, #2
 80056c2:	f8d3 2090 	ldr.w	r2, [r3, #144]	; 0x90
 80056c6:	f442 4200 	orr.w	r2, r2, #32768	; 0x8000
 80056ca:	f8c3 2090 	str.w	r2, [r3, #144]	; 0x90
 80056ce:	6d9a      	ldr	r2, [r3, #88]	; 0x58
 80056d0:	f442 6280 	orr.w	r2, r2, #1024	; 0x400
 80056d4:	659a      	str	r2, [r3, #88]	; 0x58
 80056d6:	6d9b      	ldr	r3, [r3, #88]	; 0x58
 80056d8:	2200      	movs	r2, #0
 80056da:	f403 6380 	and.w	r3, r3, #1024	; 0x400
 80056de:	4611      	mov	r1, r2
 80056e0:	9301      	str	r3, [sp, #4]
 80056e2:	9b01      	ldr	r3, [sp, #4]
 80056e4:	f001 f97c 	bl	80069e0 <HAL_NVIC_SetPriority>
 80056e8:	2002      	movs	r0, #2
 80056ea:	f001 f9ab 	bl	8006a44 <HAL_NVIC_EnableIRQ>
 80056ee:	2200      	movs	r2, #0
 80056f0:	202a      	movs	r0, #42	; 0x2a
 80056f2:	4611      	mov	r1, r2
 80056f4:	f001 f974 	bl	80069e0 <HAL_NVIC_SetPriority>
 80056f8:	202a      	movs	r0, #42	; 0x2a
 80056fa:	f001 f9a3 	bl	8006a44 <HAL_NVIC_EnableIRQ>
 80056fe:	b010      	add	sp, #64	; 0x40
 8005700:	bd10      	pop	{r4, pc}
 8005702:	bf00      	nop
 8005704:	40002800 	.word	0x40002800

08005708 <get_coding_rate_values>:
 8005708:	4800      	ldr	r0, [pc, #0]	; (800570c <get_coding_rate_values+0x4>)
 800570a:	4770      	bx	lr
 800570c:	20000059 	.word	0x20000059

08005710 <get_tx_power_values>:
 8005710:	4800      	ldr	r0, [pc, #0]	; (8005714 <get_tx_power_values+0x4>)
 8005712:	4770      	bx	lr
 8005714:	2000005e 	.word	0x2000005e

08005718 <get_settings>:
 8005718:	4800      	ldr	r0, [pc, #0]	; (800571c <get_settings+0x4>)
 800571a:	4770      	bx	lr
 800571c:	20000980 	.word	0x20000980

08005720 <find_settins>:
 8005720:	b538      	push	{r3, r4, r5, lr}
 8005722:	4c0e      	ldr	r4, [pc, #56]	; (800575c <find_settins+0x3c>)
 8005724:	4b0e      	ldr	r3, [pc, #56]	; (8005760 <find_settins+0x40>)
 8005726:	6123      	str	r3, [r4, #16]
 8005728:	4d0e      	ldr	r5, [pc, #56]	; (8005764 <find_settins+0x44>)
 800572a:	2340      	movs	r3, #64	; 0x40
 800572c:	73e3      	strb	r3, [r4, #15]
 800572e:	6920      	ldr	r0, [r4, #16]
 8005730:	490c      	ldr	r1, [pc, #48]	; (8005764 <find_settins+0x44>)
 8005732:	3820      	subs	r0, #32
 8005734:	2201      	movs	r2, #1
 8005736:	6120      	str	r0, [r4, #16]
 8005738:	f7fc feae 	bl	8002498 <read_page>
 800573c:	782b      	ldrb	r3, [r5, #0]
 800573e:	2baa      	cmp	r3, #170	; 0xaa
 8005740:	d009      	beq.n	8005756 <find_settins+0x36>
 8005742:	7be0      	ldrb	r0, [r4, #15]
 8005744:	3801      	subs	r0, #1
 8005746:	b2c0      	uxtb	r0, r0
 8005748:	73e0      	strb	r0, [r4, #15]
 800574a:	2800      	cmp	r0, #0
 800574c:	d1ef      	bne.n	800572e <find_settins+0xe>
 800574e:	7be3      	ldrb	r3, [r4, #15]
 8005750:	3b01      	subs	r3, #1
 8005752:	73e3      	strb	r3, [r4, #15]
 8005754:	bd38      	pop	{r3, r4, r5, pc}
 8005756:	2001      	movs	r0, #1
 8005758:	e7f9      	b.n	800574e <find_settins+0x2e>
 800575a:	bf00      	nop
 800575c:	20000578 	.word	0x20000578
 8005760:	08040000 	.word	0x08040000
 8005764:	200009a0 	.word	0x200009a0

08005768 <settings_save_default>:
 8005768:	b510      	push	{r4, lr}
 800576a:	4c1b      	ldr	r4, [pc, #108]	; (80057d8 <settings_save_default+0x70>)
 800576c:	23aa      	movs	r3, #170	; 0xaa
 800576e:	2203      	movs	r2, #3
 8005770:	7023      	strb	r3, [r4, #0]
 8005772:	2302      	movs	r3, #2
 8005774:	7063      	strb	r3, [r4, #1]
 8005776:	70a2      	strb	r2, [r4, #2]
 8005778:	7123      	strb	r3, [r4, #4]
 800577a:	7162      	strb	r2, [r4, #5]
 800577c:	71a3      	strb	r3, [r4, #6]
 800577e:	210b      	movs	r1, #11
 8005780:	2300      	movs	r3, #0
 8005782:	2205      	movs	r2, #5
 8005784:	70e1      	strb	r1, [r4, #3]
 8005786:	71e3      	strb	r3, [r4, #7]
 8005788:	7223      	strb	r3, [r4, #8]
 800578a:	7262      	strb	r2, [r4, #9]
 800578c:	75a3      	strb	r3, [r4, #22]
 800578e:	75e3      	strb	r3, [r4, #23]
 8005790:	7623      	strb	r3, [r4, #24]
 8005792:	7663      	strb	r3, [r4, #25]
 8005794:	76a3      	strb	r3, [r4, #26]
 8005796:	76e3      	strb	r3, [r4, #27]
 8005798:	72a3      	strb	r3, [r4, #10]
 800579a:	72e3      	strb	r3, [r4, #11]
 800579c:	7323      	strb	r3, [r4, #12]
 800579e:	7363      	strb	r3, [r4, #13]
 80057a0:	73a3      	strb	r3, [r4, #14]
 80057a2:	73e3      	strb	r3, [r4, #15]
 80057a4:	7423      	strb	r3, [r4, #16]
 80057a6:	7463      	strb	r3, [r4, #17]
 80057a8:	74a3      	strb	r3, [r4, #18]
 80057aa:	74e3      	strb	r3, [r4, #19]
 80057ac:	7523      	strb	r3, [r4, #20]
 80057ae:	7563      	strb	r3, [r4, #21]
 80057b0:	7723      	strb	r3, [r4, #28]
 80057b2:	7763      	strb	r3, [r4, #29]
 80057b4:	77a3      	strb	r3, [r4, #30]
 80057b6:	77e3      	strb	r3, [r4, #31]
 80057b8:	f7fc fdfa 	bl	80023b0 <flash_unlock>
 80057bc:	b158      	cbz	r0, 80057d6 <settings_save_default+0x6e>
 80057be:	207f      	movs	r0, #127	; 0x7f
 80057c0:	f7fc fe0a 	bl	80023d8 <flash_erase_page>
 80057c4:	4621      	mov	r1, r4
 80057c6:	4805      	ldr	r0, [pc, #20]	; (80057dc <settings_save_default+0x74>)
 80057c8:	2220      	movs	r2, #32
 80057ca:	f7fc fe27 	bl	800241c <flash_write_array>
 80057ce:	e8bd 4010 	ldmia.w	sp!, {r4, lr}
 80057d2:	f7fc bde5 	b.w	80023a0 <flash_lock>
 80057d6:	bd10      	pop	{r4, pc}
 80057d8:	200009a0 	.word	0x200009a0
 80057dc:	0803f800 	.word	0x0803f800

080057e0 <settings_load>:
 80057e0:	b510      	push	{r4, lr}
 80057e2:	f7ff ff9d 	bl	8005720 <find_settins>
 80057e6:	b910      	cbnz	r0, 80057ee <settings_load+0xe>
 80057e8:	482a      	ldr	r0, [pc, #168]	; (8005894 <settings_load+0xb4>)
 80057ea:	f7ff ffbd 	bl	8005768 <settings_save_default>
 80057ee:	4c2a      	ldr	r4, [pc, #168]	; (8005898 <settings_load+0xb8>)
 80057f0:	4b2a      	ldr	r3, [pc, #168]	; (800589c <settings_load+0xbc>)
 80057f2:	2220      	movs	r2, #32
 80057f4:	6918      	ldr	r0, [r3, #16]
 80057f6:	4621      	mov	r1, r4
 80057f8:	f7fc fe4e 	bl	8002498 <read_page>
 80057fc:	4b25      	ldr	r3, [pc, #148]	; (8005894 <settings_load+0xb4>)
 80057fe:	7921      	ldrb	r1, [r4, #4]
 8005800:	7119      	strb	r1, [r3, #4]
 8005802:	7961      	ldrb	r1, [r4, #5]
 8005804:	7159      	strb	r1, [r3, #5]
 8005806:	79a1      	ldrb	r1, [r4, #6]
 8005808:	7199      	strb	r1, [r3, #6]
 800580a:	79e1      	ldrb	r1, [r4, #7]
 800580c:	71d9      	strb	r1, [r3, #7]
 800580e:	7a21      	ldrb	r1, [r4, #8]
 8005810:	7219      	strb	r1, [r3, #8]
 8005812:	7a61      	ldrb	r1, [r4, #9]
 8005814:	7259      	strb	r1, [r3, #9]
 8005816:	7da1      	ldrb	r1, [r4, #22]
 8005818:	7599      	strb	r1, [r3, #22]
 800581a:	7de1      	ldrb	r1, [r4, #23]
 800581c:	7822      	ldrb	r2, [r4, #0]
 800581e:	75d9      	strb	r1, [r3, #23]
 8005820:	7e21      	ldrb	r1, [r4, #24]
 8005822:	701a      	strb	r2, [r3, #0]
 8005824:	7619      	strb	r1, [r3, #24]
 8005826:	7862      	ldrb	r2, [r4, #1]
 8005828:	7e61      	ldrb	r1, [r4, #25]
 800582a:	705a      	strb	r2, [r3, #1]
 800582c:	7659      	strb	r1, [r3, #25]
 800582e:	78a2      	ldrb	r2, [r4, #2]
 8005830:	7ea1      	ldrb	r1, [r4, #26]
 8005832:	709a      	strb	r2, [r3, #2]
 8005834:	7699      	strb	r1, [r3, #26]
 8005836:	78e2      	ldrb	r2, [r4, #3]
 8005838:	7ee1      	ldrb	r1, [r4, #27]
 800583a:	70da      	strb	r2, [r3, #3]
 800583c:	76d9      	strb	r1, [r3, #27]
 800583e:	7aa1      	ldrb	r1, [r4, #10]
 8005840:	7299      	strb	r1, [r3, #10]
 8005842:	7ae1      	ldrb	r1, [r4, #11]
 8005844:	72d9      	strb	r1, [r3, #11]
 8005846:	7b21      	ldrb	r1, [r4, #12]
 8005848:	7319      	strb	r1, [r3, #12]
 800584a:	7b61      	ldrb	r1, [r4, #13]
 800584c:	7359      	strb	r1, [r3, #13]
 800584e:	7ba1      	ldrb	r1, [r4, #14]
 8005850:	7399      	strb	r1, [r3, #14]
 8005852:	7be1      	ldrb	r1, [r4, #15]
 8005854:	73d9      	strb	r1, [r3, #15]
 8005856:	7c21      	ldrb	r1, [r4, #16]
 8005858:	7419      	strb	r1, [r3, #16]
 800585a:	7c61      	ldrb	r1, [r4, #17]
 800585c:	7459      	strb	r1, [r3, #17]
 800585e:	7ca1      	ldrb	r1, [r4, #18]
 8005860:	7499      	strb	r1, [r3, #18]
 8005862:	7ce1      	ldrb	r1, [r4, #19]
 8005864:	74d9      	strb	r1, [r3, #19]
 8005866:	7d21      	ldrb	r1, [r4, #20]
 8005868:	7519      	strb	r1, [r3, #20]
 800586a:	7d61      	ldrb	r1, [r4, #21]
 800586c:	7559      	strb	r1, [r3, #21]
 800586e:	7f21      	ldrb	r1, [r4, #28]
 8005870:	7719      	strb	r1, [r3, #28]
 8005872:	7f61      	ldrb	r1, [r4, #29]
 8005874:	7759      	strb	r1, [r3, #29]
 8005876:	7fa1      	ldrb	r1, [r4, #30]
 8005878:	7799      	strb	r1, [r3, #30]
 800587a:	2a0c      	cmp	r2, #12
 800587c:	7fe1      	ldrb	r1, [r4, #31]
 800587e:	77d9      	strb	r1, [r3, #31]
 8005880:	d103      	bne.n	800588a <settings_load+0xaa>
 8005882:	2203      	movs	r2, #3
 8005884:	709a      	strb	r2, [r3, #2]
 8005886:	711a      	strb	r2, [r3, #4]
 8005888:	bd10      	pop	{r4, pc}
 800588a:	2a0b      	cmp	r2, #11
 800588c:	d1fc      	bne.n	8005888 <settings_load+0xa8>
 800588e:	2202      	movs	r2, #2
 8005890:	e7f9      	b.n	8005886 <settings_load+0xa6>
 8005892:	bf00      	nop
 8005894:	20000980 	.word	0x20000980
 8005898:	200009a0 	.word	0x200009a0
 800589c:	20000578 	.word	0x20000578

080058a0 <settings_save>:
 80058a0:	b510      	push	{r4, lr}
 80058a2:	4b2d      	ldr	r3, [pc, #180]	; (8005958 <settings_save+0xb8>)
 80058a4:	22aa      	movs	r2, #170	; 0xaa
 80058a6:	701a      	strb	r2, [r3, #0]
 80058a8:	7842      	ldrb	r2, [r0, #1]
 80058aa:	705a      	strb	r2, [r3, #1]
 80058ac:	7882      	ldrb	r2, [r0, #2]
 80058ae:	709a      	strb	r2, [r3, #2]
 80058b0:	78c2      	ldrb	r2, [r0, #3]
 80058b2:	70da      	strb	r2, [r3, #3]
 80058b4:	7902      	ldrb	r2, [r0, #4]
 80058b6:	711a      	strb	r2, [r3, #4]
 80058b8:	7942      	ldrb	r2, [r0, #5]
 80058ba:	715a      	strb	r2, [r3, #5]
 80058bc:	7982      	ldrb	r2, [r0, #6]
 80058be:	719a      	strb	r2, [r3, #6]
 80058c0:	79c2      	ldrb	r2, [r0, #7]
 80058c2:	71da      	strb	r2, [r3, #7]
 80058c4:	7a02      	ldrb	r2, [r0, #8]
 80058c6:	721a      	strb	r2, [r3, #8]
 80058c8:	7a42      	ldrb	r2, [r0, #9]
 80058ca:	725a      	strb	r2, [r3, #9]
 80058cc:	7d82      	ldrb	r2, [r0, #22]
 80058ce:	759a      	strb	r2, [r3, #22]
 80058d0:	7dc2      	ldrb	r2, [r0, #23]
 80058d2:	75da      	strb	r2, [r3, #23]
 80058d4:	7e02      	ldrb	r2, [r0, #24]
 80058d6:	761a      	strb	r2, [r3, #24]
 80058d8:	7e42      	ldrb	r2, [r0, #25]
 80058da:	765a      	strb	r2, [r3, #25]
 80058dc:	7e82      	ldrb	r2, [r0, #26]
 80058de:	769a      	strb	r2, [r3, #26]
 80058e0:	7ec2      	ldrb	r2, [r0, #27]
 80058e2:	76da      	strb	r2, [r3, #27]
 80058e4:	7a82      	ldrb	r2, [r0, #10]
 80058e6:	729a      	strb	r2, [r3, #10]
 80058e8:	7ac2      	ldrb	r2, [r0, #11]
 80058ea:	72da      	strb	r2, [r3, #11]
 80058ec:	7b02      	ldrb	r2, [r0, #12]
 80058ee:	731a      	strb	r2, [r3, #12]
 80058f0:	7b42      	ldrb	r2, [r0, #13]
 80058f2:	735a      	strb	r2, [r3, #13]
 80058f4:	7b82      	ldrb	r2, [r0, #14]
 80058f6:	739a      	strb	r2, [r3, #14]
 80058f8:	7bc2      	ldrb	r2, [r0, #15]
 80058fa:	73da      	strb	r2, [r3, #15]
 80058fc:	7c02      	ldrb	r2, [r0, #16]
 80058fe:	741a      	strb	r2, [r3, #16]
 8005900:	7c42      	ldrb	r2, [r0, #17]
 8005902:	745a      	strb	r2, [r3, #17]
 8005904:	7c82      	ldrb	r2, [r0, #18]
 8005906:	749a      	strb	r2, [r3, #18]
 8005908:	7cc2      	ldrb	r2, [r0, #19]
 800590a:	74da      	strb	r2, [r3, #19]
 800590c:	7d02      	ldrb	r2, [r0, #20]
 800590e:	751a      	strb	r2, [r3, #20]
 8005910:	7d42      	ldrb	r2, [r0, #21]
 8005912:	755a      	strb	r2, [r3, #21]
 8005914:	7f02      	ldrb	r2, [r0, #28]
 8005916:	771a      	strb	r2, [r3, #28]
 8005918:	7f42      	ldrb	r2, [r0, #29]
 800591a:	775a      	strb	r2, [r3, #29]
 800591c:	7f82      	ldrb	r2, [r0, #30]
 800591e:	779a      	strb	r2, [r3, #30]
 8005920:	7fc2      	ldrb	r2, [r0, #31]
 8005922:	77da      	strb	r2, [r3, #31]
 8005924:	f7fc fd44 	bl	80023b0 <flash_unlock>
 8005928:	b1a0      	cbz	r0, 8005954 <settings_save+0xb4>
 800592a:	4c0c      	ldr	r4, [pc, #48]	; (800595c <settings_save+0xbc>)
 800592c:	4a0c      	ldr	r2, [pc, #48]	; (8005960 <settings_save+0xc0>)
 800592e:	6923      	ldr	r3, [r4, #16]
 8005930:	3320      	adds	r3, #32
 8005932:	4293      	cmp	r3, r2
 8005934:	6123      	str	r3, [r4, #16]
 8005936:	d104      	bne.n	8005942 <settings_save+0xa2>
 8005938:	207f      	movs	r0, #127	; 0x7f
 800593a:	f7fc fd4d 	bl	80023d8 <flash_erase_page>
 800593e:	4b09      	ldr	r3, [pc, #36]	; (8005964 <settings_save+0xc4>)
 8005940:	6123      	str	r3, [r4, #16]
 8005942:	6920      	ldr	r0, [r4, #16]
 8005944:	4904      	ldr	r1, [pc, #16]	; (8005958 <settings_save+0xb8>)
 8005946:	2220      	movs	r2, #32
 8005948:	f7fc fd68 	bl	800241c <flash_write_array>
 800594c:	e8bd 4010 	ldmia.w	sp!, {r4, lr}
 8005950:	f7fc bd26 	b.w	80023a0 <flash_lock>
 8005954:	bd10      	pop	{r4, pc}
 8005956:	bf00      	nop
 8005958:	200009a0 	.word	0x200009a0
 800595c:	20000578 	.word	0x20000578
 8005960:	08040000 	.word	0x08040000
 8005964:	0803f800 	.word	0x0803f800

08005968 <MX_SPI2_Init>:
 8005968:	4811      	ldr	r0, [pc, #68]	; (80059b0 <MX_SPI2_Init+0x48>)
 800596a:	4a12      	ldr	r2, [pc, #72]	; (80059b4 <MX_SPI2_Init+0x4c>)
 800596c:	b508      	push	{r3, lr}
 800596e:	f44f 7382 	mov.w	r3, #260	; 0x104
 8005972:	e9c0 2300 	strd	r2, r3, [r0]
 8005976:	2300      	movs	r3, #0
 8005978:	f44f 62e0 	mov.w	r2, #1792	; 0x700
 800597c:	e9c0 3202 	strd	r3, r2, [r0, #8]
 8005980:	f44f 7100 	mov.w	r1, #512	; 0x200
 8005984:	2210      	movs	r2, #16
 8005986:	e9c0 1206 	strd	r1, r2, [r0, #24]
 800598a:	2207      	movs	r2, #7
 800598c:	e9c0 3304 	strd	r3, r3, [r0, #16]
 8005990:	e9c0 3308 	strd	r3, r3, [r0, #32]
 8005994:	e9c0 230b 	strd	r2, r3, [r0, #44]	; 0x2c
 8005998:	6283      	str	r3, [r0, #40]	; 0x28
 800599a:	2308      	movs	r3, #8
 800599c:	6343      	str	r3, [r0, #52]	; 0x34
 800599e:	f002 fa5a 	bl	8007e56 <HAL_SPI_Init>
 80059a2:	b118      	cbz	r0, 80059ac <MX_SPI2_Init+0x44>
 80059a4:	e8bd 4008 	ldmia.w	sp!, {r3, lr}
 80059a8:	f7fd be2e 	b.w	8003608 <Error_Handler>
 80059ac:	bd08      	pop	{r3, pc}
 80059ae:	bf00      	nop
 80059b0:	200009c0 	.word	0x200009c0
 80059b4:	40003800 	.word	0x40003800

080059b8 <HAL_SPI_MspInit>:
 80059b8:	b510      	push	{r4, lr}
 80059ba:	b096      	sub	sp, #88	; 0x58
 80059bc:	4604      	mov	r4, r0
 80059be:	2214      	movs	r2, #20
 80059c0:	2100      	movs	r1, #0
 80059c2:	a803      	add	r0, sp, #12
 80059c4:	f006 f962 	bl	800bc8c <memset>
 80059c8:	2238      	movs	r2, #56	; 0x38
 80059ca:	2100      	movs	r1, #0
 80059cc:	a808      	add	r0, sp, #32
 80059ce:	f006 f95d 	bl	800bc8c <memset>
 80059d2:	6822      	ldr	r2, [r4, #0]
 80059d4:	4b19      	ldr	r3, [pc, #100]	; (8005a3c <HAL_SPI_MspInit+0x84>)
 80059d6:	429a      	cmp	r2, r3
 80059d8:	d12d      	bne.n	8005a36 <HAL_SPI_MspInit+0x7e>
 80059da:	2310      	movs	r3, #16
 80059dc:	9308      	str	r3, [sp, #32]
 80059de:	a808      	add	r0, sp, #32
 80059e0:	f44f 7380 	mov.w	r3, #256	; 0x100
 80059e4:	930b      	str	r3, [sp, #44]	; 0x2c
 80059e6:	f001 fe49 	bl	800767c <HAL_RCCEx_PeriphCLKConfig>
 80059ea:	b108      	cbz	r0, 80059f0 <HAL_SPI_MspInit+0x38>
 80059ec:	f7fd fe0c 	bl	8003608 <Error_Handler>
 80059f0:	f04f 43b0 	mov.w	r3, #1476395008	; 0x58000000
 80059f4:	a903      	add	r1, sp, #12
 80059f6:	6d9a      	ldr	r2, [r3, #88]	; 0x58
 80059f8:	f442 4280 	orr.w	r2, r2, #16384	; 0x4000
 80059fc:	659a      	str	r2, [r3, #88]	; 0x58
 80059fe:	6d9a      	ldr	r2, [r3, #88]	; 0x58
 8005a00:	f402 4280 	and.w	r2, r2, #16384	; 0x4000
 8005a04:	9202      	str	r2, [sp, #8]
 8005a06:	9a02      	ldr	r2, [sp, #8]
 8005a08:	6cda      	ldr	r2, [r3, #76]	; 0x4c
 8005a0a:	f042 0201 	orr.w	r2, r2, #1
 8005a0e:	64da      	str	r2, [r3, #76]	; 0x4c
 8005a10:	6cdb      	ldr	r3, [r3, #76]	; 0x4c
 8005a12:	f003 0301 	and.w	r3, r3, #1
 8005a16:	9301      	str	r3, [sp, #4]
 8005a18:	9b01      	ldr	r3, [sp, #4]
 8005a1a:	f44f 62a0 	mov.w	r2, #1280	; 0x500
 8005a1e:	2302      	movs	r3, #2
 8005a20:	e9cd 2303 	strd	r2, r3, [sp, #12]
 8005a24:	2300      	movs	r3, #0
 8005a26:	e9cd 3305 	strd	r3, r3, [sp, #20]
 8005a2a:	f04f 4090 	mov.w	r0, #1207959552	; 0x48000000
 8005a2e:	2305      	movs	r3, #5
 8005a30:	9307      	str	r3, [sp, #28]
 8005a32:	f001 f815 	bl	8006a60 <HAL_GPIO_Init>
 8005a36:	b016      	add	sp, #88	; 0x58
 8005a38:	bd10      	pop	{r4, pc}
 8005a3a:	bf00      	nop
 8005a3c:	40003800 	.word	0x40003800

08005a40 <HAL_MspInit>:
 8005a40:	4770      	bx	lr

08005a42 <NMI_Handler>:
 8005a42:	e7fe      	b.n	8005a42 <NMI_Handler>

08005a44 <HardFault_Handler>:
 8005a44:	e7fe      	b.n	8005a44 <HardFault_Handler>

08005a46 <MemManage_Handler>:
 8005a46:	e7fe      	b.n	8005a46 <MemManage_Handler>

08005a48 <BusFault_Handler>:
 8005a48:	e7fe      	b.n	8005a48 <BusFault_Handler>

08005a4a <UsageFault_Handler>:
 8005a4a:	e7fe      	b.n	8005a4a <UsageFault_Handler>

08005a4c <SVC_Handler>:
 8005a4c:	4770      	bx	lr

08005a4e <DebugMon_Handler>:
 8005a4e:	4770      	bx	lr

08005a50 <PendSV_Handler>:
 8005a50:	4770      	bx	lr

08005a52 <SysTick_Handler>:
 8005a52:	4770      	bx	lr

08005a54 <TAMP_STAMP_LSECSS_SSRU_IRQHandler>:
 8005a54:	4801      	ldr	r0, [pc, #4]	; (8005a5c <TAMP_STAMP_LSECSS_SSRU_IRQHandler+0x8>)
 8005a56:	f002 b8ef 	b.w	8007c38 <HAL_RTCEx_SSRUIRQHandler>
 8005a5a:	bf00      	nop
 8005a5c:	20000948 	.word	0x20000948

08005a60 <EXTI0_IRQHandler>:
 8005a60:	2001      	movs	r0, #1
 8005a62:	f001 b923 	b.w	8006cac <HAL_GPIO_EXTI_IRQHandler>

08005a66 <EXTI1_IRQHandler>:
 8005a66:	2002      	movs	r0, #2
 8005a68:	f001 b920 	b.w	8006cac <HAL_GPIO_EXTI_IRQHandler>

08005a6c <EXTI4_IRQHandler>:
 8005a6c:	2010      	movs	r0, #16
 8005a6e:	f001 b91d 	b.w	8006cac <HAL_GPIO_EXTI_IRQHandler>

08005a72 <EXTI9_5_IRQHandler>:
 8005a72:	2020      	movs	r0, #32
 8005a74:	f001 b91a 	b.w	8006cac <HAL_GPIO_EXTI_IRQHandler>

08005a78 <TIM1_UP_IRQHandler>:
 8005a78:	4801      	ldr	r0, [pc, #4]	; (8005a80 <TIM1_UP_IRQHandler+0x8>)
 8005a7a:	f002 be79 	b.w	8008770 <HAL_TIM_IRQHandler>
 8005a7e:	bf00      	nop
 8005a80:	20000a34 	.word	0x20000a34

08005a84 <TIM2_IRQHandler>:
 8005a84:	4801      	ldr	r0, [pc, #4]	; (8005a8c <TIM2_IRQHandler+0x8>)
 8005a86:	f002 be73 	b.w	8008770 <HAL_TIM_IRQHandler>
 8005a8a:	bf00      	nop
 8005a8c:	20000b18 	.word	0x20000b18

08005a90 <TIM16_IRQHandler>:
 8005a90:	4801      	ldr	r0, [pc, #4]	; (8005a98 <TIM16_IRQHandler+0x8>)
 8005a92:	f002 be6d 	b.w	8008770 <HAL_TIM_IRQHandler>
 8005a96:	bf00      	nop
 8005a98:	20000a80 	.word	0x20000a80

08005a9c <TIM17_IRQHandler>:
 8005a9c:	4801      	ldr	r0, [pc, #4]	; (8005aa4 <TIM17_IRQHandler+0x8>)
 8005a9e:	f002 be67 	b.w	8008770 <HAL_TIM_IRQHandler>
 8005aa2:	bf00      	nop
 8005aa4:	20000acc 	.word	0x20000acc

08005aa8 <EXTI15_10_IRQHandler>:
 8005aa8:	f44f 5080 	mov.w	r0, #4096	; 0x1000
 8005aac:	f001 b8fe 	b.w	8006cac <HAL_GPIO_EXTI_IRQHandler>

08005ab0 <RTC_Alarm_IRQHandler>:
 8005ab0:	4801      	ldr	r0, [pc, #4]	; (8005ab8 <RTC_Alarm_IRQHandler+0x8>)
 8005ab2:	f001 bef5 	b.w	80078a0 <HAL_RTC_AlarmIRQHandler>
 8005ab6:	bf00      	nop
 8005ab8:	20000948 	.word	0x20000948

08005abc <SUBGHZ_Radio_IRQHandler>:
 8005abc:	4801      	ldr	r0, [pc, #4]	; (8005ac4 <SUBGHZ_Radio_IRQHandler+0x8>)
 8005abe:	f002 bd2c 	b.w	800851a <HAL_SUBGHZ_IRQHandler>
 8005ac2:	bf00      	nop
 8005ac4:	20000a24 	.word	0x20000a24

08005ac8 <MX_SUBGHZ_Init>:
 8005ac8:	4805      	ldr	r0, [pc, #20]	; (8005ae0 <MX_SUBGHZ_Init+0x18>)
 8005aca:	b508      	push	{r3, lr}
 8005acc:	2308      	movs	r3, #8
 8005ace:	6003      	str	r3, [r0, #0]
 8005ad0:	f002 fb4a 	bl	8008168 <HAL_SUBGHZ_Init>
 8005ad4:	b118      	cbz	r0, 8005ade <MX_SUBGHZ_Init+0x16>
 8005ad6:	e8bd 4008 	ldmia.w	sp!, {r3, lr}
 8005ada:	f7fd bd95 	b.w	8003608 <Error_Handler>
 8005ade:	bd08      	pop	{r3, pc}
 8005ae0:	20000a24 	.word	0x20000a24

08005ae4 <HAL_SUBGHZ_MspInit>:
 8005ae4:	f04f 43b0 	mov.w	r3, #1476395008	; 0x58000000
 8005ae8:	b507      	push	{r0, r1, r2, lr}
 8005aea:	6e5a      	ldr	r2, [r3, #100]	; 0x64
 8005aec:	f042 0201 	orr.w	r2, r2, #1
 8005af0:	665a      	str	r2, [r3, #100]	; 0x64
 8005af2:	6e5b      	ldr	r3, [r3, #100]	; 0x64
 8005af4:	2200      	movs	r2, #0
 8005af6:	f003 0301 	and.w	r3, r3, #1
 8005afa:	9301      	str	r3, [sp, #4]
 8005afc:	4611      	mov	r1, r2
 8005afe:	2032      	movs	r0, #50	; 0x32
 8005b00:	9b01      	ldr	r3, [sp, #4]
 8005b02:	f000 ff6d 	bl	80069e0 <HAL_NVIC_SetPriority>
 8005b06:	2032      	movs	r0, #50	; 0x32
 8005b08:	b003      	add	sp, #12
 8005b0a:	f85d eb04 	ldr.w	lr, [sp], #4
 8005b0e:	f000 bf99 	b.w	8006a44 <HAL_NVIC_EnableIRQ>
	...

08005b14 <SystemApp_Init>:
 8005b14:	f04f 42b0 	mov.w	r2, #1476395008	; 0x58000000
 8005b18:	b508      	push	{r3, lr}
 8005b1a:	6893      	ldr	r3, [r2, #8]
 8005b1c:	f423 4300 	bic.w	r3, r3, #32768	; 0x8000
 8005b20:	6093      	str	r3, [r2, #8]
 8005b22:	f005 ff33 	bl	800b98c <UTIL_TIMER_Init>
 8005b26:	4b02      	ldr	r3, [pc, #8]	; (8005b30 <SystemApp_Init+0x1c>)
 8005b28:	2201      	movs	r2, #1
 8005b2a:	701a      	strb	r2, [r3, #0]
 8005b2c:	bd08      	pop	{r3, pc}
 8005b2e:	bf00      	nop
 8005b30:	20000a30 	.word	0x20000a30

08005b34 <HAL_InitTick>:
 8005b34:	2000      	movs	r0, #0
 8005b36:	4770      	bx	lr

08005b38 <HAL_GetTick>:
 8005b38:	4b02      	ldr	r3, [pc, #8]	; (8005b44 <HAL_GetTick+0xc>)
 8005b3a:	7818      	ldrb	r0, [r3, #0]
 8005b3c:	b108      	cbz	r0, 8005b42 <HAL_GetTick+0xa>
 8005b3e:	f000 b945 	b.w	8005dcc <TIMER_IF_GetTimerValue>
 8005b42:	4770      	bx	lr
 8005b44:	20000a30 	.word	0x20000a30

08005b48 <HAL_Delay>:
 8005b48:	b082      	sub	sp, #8
 8005b4a:	9001      	str	r0, [sp, #4]
 8005b4c:	9801      	ldr	r0, [sp, #4]
 8005b4e:	b002      	add	sp, #8
 8005b50:	f000 b9a4 	b.w	8005e9c <TIMER_IF_DelayMs>

08005b54 <SystemInit>:
 8005b54:	4770      	bx	lr

08005b56 <LL_APB2_GRP1_EnableClock>:
 8005b56:	f04f 43b0 	mov.w	r3, #1476395008	; 0x58000000
 8005b5a:	b082      	sub	sp, #8
 8005b5c:	6e1a      	ldr	r2, [r3, #96]	; 0x60
 8005b5e:	4302      	orrs	r2, r0
 8005b60:	661a      	str	r2, [r3, #96]	; 0x60
 8005b62:	6e1b      	ldr	r3, [r3, #96]	; 0x60
 8005b64:	4018      	ands	r0, r3
 8005b66:	9001      	str	r0, [sp, #4]
 8005b68:	9b01      	ldr	r3, [sp, #4]
 8005b6a:	b002      	add	sp, #8
 8005b6c:	4770      	bx	lr
	...

08005b70 <MX_TIM1_Init>:
 8005b70:	b500      	push	{lr}
 8005b72:	2210      	movs	r2, #16
 8005b74:	b089      	sub	sp, #36	; 0x24
 8005b76:	2100      	movs	r1, #0
 8005b78:	eb0d 0002 	add.w	r0, sp, r2
 8005b7c:	f006 f886 	bl	800bc8c <memset>
 8005b80:	4816      	ldr	r0, [pc, #88]	; (8005bdc <MX_TIM1_Init+0x6c>)
 8005b82:	4917      	ldr	r1, [pc, #92]	; (8005be0 <MX_TIM1_Init+0x70>)
 8005b84:	f64b 327f 	movw	r2, #47999	; 0xbb7f
 8005b88:	2300      	movs	r3, #0
 8005b8a:	e9c0 1200 	strd	r1, r2, [r0]
 8005b8e:	2231      	movs	r2, #49	; 0x31
 8005b90:	e9cd 3301 	strd	r3, r3, [sp, #4]
 8005b94:	e9c0 2303 	strd	r2, r3, [r0, #12]
 8005b98:	9303      	str	r3, [sp, #12]
 8005b9a:	6083      	str	r3, [r0, #8]
 8005b9c:	6143      	str	r3, [r0, #20]
 8005b9e:	2380      	movs	r3, #128	; 0x80
 8005ba0:	6183      	str	r3, [r0, #24]
 8005ba2:	f002 fecf 	bl	8008944 <HAL_TIM_Base_Init>
 8005ba6:	b108      	cbz	r0, 8005bac <MX_TIM1_Init+0x3c>
 8005ba8:	f7fd fd2e 	bl	8003608 <Error_Handler>
 8005bac:	f44f 5380 	mov.w	r3, #4096	; 0x1000
 8005bb0:	480a      	ldr	r0, [pc, #40]	; (8005bdc <MX_TIM1_Init+0x6c>)
 8005bb2:	9304      	str	r3, [sp, #16]
 8005bb4:	a904      	add	r1, sp, #16
 8005bb6:	f002 feff 	bl	80089b8 <HAL_TIM_ConfigClockSource>
 8005bba:	b108      	cbz	r0, 8005bc0 <MX_TIM1_Init+0x50>
 8005bbc:	f7fd fd24 	bl	8003608 <Error_Handler>
 8005bc0:	2300      	movs	r3, #0
 8005bc2:	4806      	ldr	r0, [pc, #24]	; (8005bdc <MX_TIM1_Init+0x6c>)
 8005bc4:	9303      	str	r3, [sp, #12]
 8005bc6:	a901      	add	r1, sp, #4
 8005bc8:	e9cd 3301 	strd	r3, r3, [sp, #4]
 8005bcc:	f002 ff9a 	bl	8008b04 <HAL_TIMEx_MasterConfigSynchronization>
 8005bd0:	b108      	cbz	r0, 8005bd6 <MX_TIM1_Init+0x66>
 8005bd2:	f7fd fd19 	bl	8003608 <Error_Handler>
 8005bd6:	b009      	add	sp, #36	; 0x24
 8005bd8:	f85d fb04 	ldr.w	pc, [sp], #4
 8005bdc:	20000a34 	.word	0x20000a34
 8005be0:	40012c00 	.word	0x40012c00

08005be4 <MX_TIM2_Init>:
 8005be4:	b500      	push	{lr}
 8005be6:	2210      	movs	r2, #16
 8005be8:	b089      	sub	sp, #36	; 0x24
 8005bea:	2100      	movs	r1, #0
 8005bec:	eb0d 0002 	add.w	r0, sp, r2
 8005bf0:	f006 f84c 	bl	800bc8c <memset>
 8005bf4:	4816      	ldr	r0, [pc, #88]	; (8005c50 <MX_TIM2_Init+0x6c>)
 8005bf6:	f241 22bf 	movw	r2, #4799	; 0x12bf
 8005bfa:	f04f 4180 	mov.w	r1, #1073741824	; 0x40000000
 8005bfe:	2300      	movs	r3, #0
 8005c00:	e9c0 1200 	strd	r1, r2, [r0]
 8005c04:	2264      	movs	r2, #100	; 0x64
 8005c06:	e9cd 3301 	strd	r3, r3, [sp, #4]
 8005c0a:	e9c0 2303 	strd	r2, r3, [r0, #12]
 8005c0e:	9303      	str	r3, [sp, #12]
 8005c10:	6083      	str	r3, [r0, #8]
 8005c12:	2380      	movs	r3, #128	; 0x80
 8005c14:	6183      	str	r3, [r0, #24]
 8005c16:	f002 fe95 	bl	8008944 <HAL_TIM_Base_Init>
 8005c1a:	b108      	cbz	r0, 8005c20 <MX_TIM2_Init+0x3c>
 8005c1c:	f7fd fcf4 	bl	8003608 <Error_Handler>
 8005c20:	f44f 5380 	mov.w	r3, #4096	; 0x1000
 8005c24:	480a      	ldr	r0, [pc, #40]	; (8005c50 <MX_TIM2_Init+0x6c>)
 8005c26:	9304      	str	r3, [sp, #16]
 8005c28:	a904      	add	r1, sp, #16
 8005c2a:	f002 fec5 	bl	80089b8 <HAL_TIM_ConfigClockSource>
 8005c2e:	b108      	cbz	r0, 8005c34 <MX_TIM2_Init+0x50>
 8005c30:	f7fd fcea 	bl	8003608 <Error_Handler>
 8005c34:	2300      	movs	r3, #0
 8005c36:	4806      	ldr	r0, [pc, #24]	; (8005c50 <MX_TIM2_Init+0x6c>)
 8005c38:	9301      	str	r3, [sp, #4]
 8005c3a:	a901      	add	r1, sp, #4
 8005c3c:	9303      	str	r3, [sp, #12]
 8005c3e:	f002 ff61 	bl	8008b04 <HAL_TIMEx_MasterConfigSynchronization>
 8005c42:	b108      	cbz	r0, 8005c48 <MX_TIM2_Init+0x64>
 8005c44:	f7fd fce0 	bl	8003608 <Error_Handler>
 8005c48:	b009      	add	sp, #36	; 0x24
 8005c4a:	f85d fb04 	ldr.w	pc, [sp], #4
 8005c4e:	bf00      	nop
 8005c50:	20000b18 	.word	0x20000b18

08005c54 <MX_TIM16_Init>:
 8005c54:	480b      	ldr	r0, [pc, #44]	; (8005c84 <MX_TIM16_Init+0x30>)
 8005c56:	4a0c      	ldr	r2, [pc, #48]	; (8005c88 <MX_TIM16_Init+0x34>)
 8005c58:	b508      	push	{r3, lr}
 8005c5a:	f64b 337f 	movw	r3, #47999	; 0xbb7f
 8005c5e:	e9c0 2300 	strd	r2, r3, [r0]
 8005c62:	2300      	movs	r3, #0
 8005c64:	f242 720f 	movw	r2, #9999	; 0x270f
 8005c68:	e9c0 3202 	strd	r3, r2, [r0, #8]
 8005c6c:	e9c0 3304 	strd	r3, r3, [r0, #16]
 8005c70:	6183      	str	r3, [r0, #24]
 8005c72:	f002 fe67 	bl	8008944 <HAL_TIM_Base_Init>
 8005c76:	b118      	cbz	r0, 8005c80 <MX_TIM16_Init+0x2c>
 8005c78:	e8bd 4008 	ldmia.w	sp!, {r3, lr}
 8005c7c:	f7fd bcc4 	b.w	8003608 <Error_Handler>
 8005c80:	bd08      	pop	{r3, pc}
 8005c82:	bf00      	nop
 8005c84:	20000a80 	.word	0x20000a80
 8005c88:	40014400 	.word	0x40014400

08005c8c <MX_TIM17_Init>:
 8005c8c:	480b      	ldr	r0, [pc, #44]	; (8005cbc <MX_TIM17_Init+0x30>)
 8005c8e:	4a0c      	ldr	r2, [pc, #48]	; (8005cc0 <MX_TIM17_Init+0x34>)
 8005c90:	b508      	push	{r3, lr}
 8005c92:	f64b 337f 	movw	r3, #47999	; 0xbb7f
 8005c96:	e9c0 2300 	strd	r2, r3, [r0]
 8005c9a:	2300      	movs	r3, #0
 8005c9c:	f64f 72ff 	movw	r2, #65535	; 0xffff
 8005ca0:	e9c0 3202 	strd	r3, r2, [r0, #8]
 8005ca4:	e9c0 3304 	strd	r3, r3, [r0, #16]
 8005ca8:	6183      	str	r3, [r0, #24]
 8005caa:	f002 fe4b 	bl	8008944 <HAL_TIM_Base_Init>
 8005cae:	b118      	cbz	r0, 8005cb8 <MX_TIM17_Init+0x2c>
 8005cb0:	e8bd 4008 	ldmia.w	sp!, {r3, lr}
 8005cb4:	f7fd bca8 	b.w	8003608 <Error_Handler>
 8005cb8:	bd08      	pop	{r3, pc}
 8005cba:	bf00      	nop
 8005cbc:	20000acc 	.word	0x20000acc
 8005cc0:	40014800 	.word	0x40014800

08005cc4 <HAL_TIM_Base_MspInit>:
 8005cc4:	b507      	push	{r0, r1, r2, lr}
 8005cc6:	6803      	ldr	r3, [r0, #0]
 8005cc8:	4a22      	ldr	r2, [pc, #136]	; (8005d54 <HAL_TIM_Base_MspInit+0x90>)
 8005cca:	4293      	cmp	r3, r2
 8005ccc:	d10e      	bne.n	8005cec <HAL_TIM_Base_MspInit+0x28>
 8005cce:	f44f 6000 	mov.w	r0, #2048	; 0x800
 8005cd2:	f7ff ff40 	bl	8005b56 <LL_APB2_GRP1_EnableClock>
 8005cd6:	2200      	movs	r2, #0
 8005cd8:	2018      	movs	r0, #24
 8005cda:	4611      	mov	r1, r2
 8005cdc:	f000 fe80 	bl	80069e0 <HAL_NVIC_SetPriority>
 8005ce0:	2018      	movs	r0, #24
 8005ce2:	b003      	add	sp, #12
 8005ce4:	f85d eb04 	ldr.w	lr, [sp], #4
 8005ce8:	f000 beac 	b.w	8006a44 <HAL_NVIC_EnableIRQ>
 8005cec:	f1b3 4f80 	cmp.w	r3, #1073741824	; 0x40000000
 8005cf0:	d111      	bne.n	8005d16 <HAL_TIM_Base_MspInit+0x52>
 8005cf2:	f04f 43b0 	mov.w	r3, #1476395008	; 0x58000000
 8005cf6:	201b      	movs	r0, #27
 8005cf8:	6d9a      	ldr	r2, [r3, #88]	; 0x58
 8005cfa:	f042 0201 	orr.w	r2, r2, #1
 8005cfe:	659a      	str	r2, [r3, #88]	; 0x58
 8005d00:	6d9b      	ldr	r3, [r3, #88]	; 0x58
 8005d02:	2200      	movs	r2, #0
 8005d04:	f003 0301 	and.w	r3, r3, #1
 8005d08:	9301      	str	r3, [sp, #4]
 8005d0a:	4611      	mov	r1, r2
 8005d0c:	9b01      	ldr	r3, [sp, #4]
 8005d0e:	f000 fe67 	bl	80069e0 <HAL_NVIC_SetPriority>
 8005d12:	201b      	movs	r0, #27
 8005d14:	e7e5      	b.n	8005ce2 <HAL_TIM_Base_MspInit+0x1e>
 8005d16:	4a10      	ldr	r2, [pc, #64]	; (8005d58 <HAL_TIM_Base_MspInit+0x94>)
 8005d18:	4293      	cmp	r3, r2
 8005d1a:	d10a      	bne.n	8005d32 <HAL_TIM_Base_MspInit+0x6e>
 8005d1c:	f44f 3000 	mov.w	r0, #131072	; 0x20000
 8005d20:	f7ff ff19 	bl	8005b56 <LL_APB2_GRP1_EnableClock>
 8005d24:	2200      	movs	r2, #0
 8005d26:	201c      	movs	r0, #28
 8005d28:	4611      	mov	r1, r2
 8005d2a:	f000 fe59 	bl	80069e0 <HAL_NVIC_SetPriority>
 8005d2e:	201c      	movs	r0, #28
 8005d30:	e7d7      	b.n	8005ce2 <HAL_TIM_Base_MspInit+0x1e>
 8005d32:	4a0a      	ldr	r2, [pc, #40]	; (8005d5c <HAL_TIM_Base_MspInit+0x98>)
 8005d34:	4293      	cmp	r3, r2
 8005d36:	d10a      	bne.n	8005d4e <HAL_TIM_Base_MspInit+0x8a>
 8005d38:	f44f 2080 	mov.w	r0, #262144	; 0x40000
 8005d3c:	f7ff ff0b 	bl	8005b56 <LL_APB2_GRP1_EnableClock>
 8005d40:	2200      	movs	r2, #0
 8005d42:	201d      	movs	r0, #29
 8005d44:	4611      	mov	r1, r2
 8005d46:	f000 fe4b 	bl	80069e0 <HAL_NVIC_SetPriority>
 8005d4a:	201d      	movs	r0, #29
 8005d4c:	e7c9      	b.n	8005ce2 <HAL_TIM_Base_MspInit+0x1e>
 8005d4e:	b003      	add	sp, #12
 8005d50:	f85d fb04 	ldr.w	pc, [sp], #4
 8005d54:	40012c00 	.word	0x40012c00
 8005d58:	40014400 	.word	0x40014400
 8005d5c:	40014800 	.word	0x40014800

08005d60 <TIMER_IF_GetTimerContext>:
 8005d60:	4b01      	ldr	r3, [pc, #4]	; (8005d68 <TIMER_IF_GetTimerContext+0x8>)
 8005d62:	6818      	ldr	r0, [r3, #0]
 8005d64:	4770      	bx	lr
 8005d66:	bf00      	nop
 8005d68:	20000b68 	.word	0x20000b68

08005d6c <TIMER_IF_GetMinimumTimeout>:
 8005d6c:	2003      	movs	r0, #3
 8005d6e:	4770      	bx	lr

08005d70 <TIMER_IF_Convert_ms2Tick>:
 8005d70:	b508      	push	{r3, lr}
 8005d72:	4601      	mov	r1, r0
 8005d74:	f44f 727a 	mov.w	r2, #1000	; 0x3e8
 8005d78:	2300      	movs	r3, #0
 8005d7a:	0280      	lsls	r0, r0, #10
 8005d7c:	0d89      	lsrs	r1, r1, #22
 8005d7e:	f7fa ff03 	bl	8000b88 <__aeabi_uldivmod>
 8005d82:	bd08      	pop	{r3, pc}

08005d84 <TIMER_IF_Convert_Tick2ms>:
 8005d84:	f44f 737a 	mov.w	r3, #1000	; 0x3e8
 8005d88:	fba0 3003 	umull	r3, r0, r0, r3
 8005d8c:	0a9b      	lsrs	r3, r3, #10
 8005d8e:	ea43 5080 	orr.w	r0, r3, r0, lsl #22
 8005d92:	4770      	bx	lr

08005d94 <GetTimerTicks>:
 8005d94:	4b03      	ldr	r3, [pc, #12]	; (8005da4 <GetTimerTicks+0x10>)
 8005d96:	6898      	ldr	r0, [r3, #8]
 8005d98:	689a      	ldr	r2, [r3, #8]
 8005d9a:	4290      	cmp	r0, r2
 8005d9c:	d1fb      	bne.n	8005d96 <GetTimerTicks+0x2>
 8005d9e:	43c0      	mvns	r0, r0
 8005da0:	4770      	bx	lr
 8005da2:	bf00      	nop
 8005da4:	40002800 	.word	0x40002800

08005da8 <TIMER_IF_SetTimerContext>:
 8005da8:	b508      	push	{r3, lr}
 8005daa:	f7ff fff3 	bl	8005d94 <GetTimerTicks>
 8005dae:	4b01      	ldr	r3, [pc, #4]	; (8005db4 <TIMER_IF_SetTimerContext+0xc>)
 8005db0:	6018      	str	r0, [r3, #0]
 8005db2:	bd08      	pop	{r3, pc}
 8005db4:	20000b68 	.word	0x20000b68

08005db8 <TIMER_IF_GetTimerElapsedTime>:
 8005db8:	b508      	push	{r3, lr}
 8005dba:	f7ff ffeb 	bl	8005d94 <GetTimerTicks>
 8005dbe:	4b02      	ldr	r3, [pc, #8]	; (8005dc8 <TIMER_IF_GetTimerElapsedTime+0x10>)
 8005dc0:	681b      	ldr	r3, [r3, #0]
 8005dc2:	1ac0      	subs	r0, r0, r3
 8005dc4:	bd08      	pop	{r3, pc}
 8005dc6:	bf00      	nop
 8005dc8:	20000b68 	.word	0x20000b68

08005dcc <TIMER_IF_GetTimerValue>:
 8005dcc:	4b02      	ldr	r3, [pc, #8]	; (8005dd8 <TIMER_IF_GetTimerValue+0xc>)
 8005dce:	7818      	ldrb	r0, [r3, #0]
 8005dd0:	b108      	cbz	r0, 8005dd6 <TIMER_IF_GetTimerValue+0xa>
 8005dd2:	f7ff bfdf 	b.w	8005d94 <GetTimerTicks>
 8005dd6:	4770      	bx	lr
 8005dd8:	20000b64 	.word	0x20000b64

08005ddc <TIMER_IF_StopTimer>:
 8005ddc:	b510      	push	{r4, lr}
 8005dde:	4b07      	ldr	r3, [pc, #28]	; (8005dfc <TIMER_IF_StopTimer+0x20>)
 8005de0:	4c07      	ldr	r4, [pc, #28]	; (8005e00 <TIMER_IF_StopTimer+0x24>)
 8005de2:	2201      	movs	r2, #1
 8005de4:	65da      	str	r2, [r3, #92]	; 0x5c
 8005de6:	f44f 7180 	mov.w	r1, #256	; 0x100
 8005dea:	4620      	mov	r0, r4
 8005dec:	f001 fd1c 	bl	8007828 <HAL_RTC_DeactivateAlarm>
 8005df0:	f04f 33ff 	mov.w	r3, #4294967295	; 0xffffffff
 8005df4:	6323      	str	r3, [r4, #48]	; 0x30
 8005df6:	2000      	movs	r0, #0
 8005df8:	bd10      	pop	{r4, pc}
 8005dfa:	bf00      	nop
 8005dfc:	40002800 	.word	0x40002800
 8005e00:	20000948 	.word	0x20000948

08005e04 <TIMER_IF_StartTimer>:
 8005e04:	b510      	push	{r4, lr}
 8005e06:	b08c      	sub	sp, #48	; 0x30
 8005e08:	222c      	movs	r2, #44	; 0x2c
 8005e0a:	2100      	movs	r1, #0
 8005e0c:	4604      	mov	r4, r0
 8005e0e:	a801      	add	r0, sp, #4
 8005e10:	f005 ff3c 	bl	800bc8c <memset>
 8005e14:	f7ff ffe2 	bl	8005ddc <TIMER_IF_StopTimer>
 8005e18:	4b0c      	ldr	r3, [pc, #48]	; (8005e4c <TIMER_IF_StartTimer+0x48>)
 8005e1a:	6818      	ldr	r0, [r3, #0]
 8005e1c:	2300      	movs	r3, #0
 8005e1e:	4404      	add	r4, r0
 8005e20:	9308      	str	r3, [sp, #32]
 8005e22:	9306      	str	r3, [sp, #24]
 8005e24:	f04f 5300 	mov.w	r3, #536870912	; 0x20000000
 8005e28:	43e4      	mvns	r4, r4
 8005e2a:	9307      	str	r3, [sp, #28]
 8005e2c:	4808      	ldr	r0, [pc, #32]	; (8005e50 <TIMER_IF_StartTimer+0x4c>)
 8005e2e:	9402      	str	r4, [sp, #8]
 8005e30:	f44f 7380 	mov.w	r3, #256	; 0x100
 8005e34:	2201      	movs	r2, #1
 8005e36:	a901      	add	r1, sp, #4
 8005e38:	930b      	str	r3, [sp, #44]	; 0x2c
 8005e3a:	f001 fe0b 	bl	8007a54 <HAL_RTC_SetAlarm_IT>
 8005e3e:	b108      	cbz	r0, 8005e44 <TIMER_IF_StartTimer+0x40>
 8005e40:	f7fd fbe2 	bl	8003608 <Error_Handler>
 8005e44:	2000      	movs	r0, #0
 8005e46:	b00c      	add	sp, #48	; 0x30
 8005e48:	bd10      	pop	{r4, pc}
 8005e4a:	bf00      	nop
 8005e4c:	20000b68 	.word	0x20000b68
 8005e50:	20000948 	.word	0x20000948

08005e54 <TIMER_IF_Init>:
 8005e54:	b5f8      	push	{r3, r4, r5, r6, r7, lr}
 8005e56:	4d0f      	ldr	r5, [pc, #60]	; (8005e94 <TIMER_IF_Init+0x40>)
 8005e58:	782e      	ldrb	r6, [r5, #0]
 8005e5a:	b9ce      	cbnz	r6, 8005e90 <TIMER_IF_Init+0x3c>
 8005e5c:	4c0e      	ldr	r4, [pc, #56]	; (8005e98 <TIMER_IF_Init+0x44>)
 8005e5e:	f04f 37ff 	mov.w	r7, #4294967295	; 0xffffffff
 8005e62:	6327      	str	r7, [r4, #48]	; 0x30
 8005e64:	f7ff fbd8 	bl	8005618 <MX_RTC_Init>
 8005e68:	f7ff ffb8 	bl	8005ddc <TIMER_IF_StopTimer>
 8005e6c:	f44f 7180 	mov.w	r1, #256	; 0x100
 8005e70:	4620      	mov	r0, r4
 8005e72:	f001 fcd9 	bl	8007828 <HAL_RTC_DeactivateAlarm>
 8005e76:	4620      	mov	r0, r4
 8005e78:	6327      	str	r7, [r4, #48]	; 0x30
 8005e7a:	f001 fe99 	bl	8007bb0 <HAL_RTCEx_EnableBypassShadow>
 8005e7e:	4632      	mov	r2, r6
 8005e80:	4620      	mov	r0, r4
 8005e82:	2102      	movs	r1, #2
 8005e84:	f001 fee9 	bl	8007c5a <HAL_RTCEx_BKUPWrite>
 8005e88:	f7ff ff8e 	bl	8005da8 <TIMER_IF_SetTimerContext>
 8005e8c:	2301      	movs	r3, #1
 8005e8e:	702b      	strb	r3, [r5, #0]
 8005e90:	2000      	movs	r0, #0
 8005e92:	bdf8      	pop	{r3, r4, r5, r6, r7, pc}
 8005e94:	20000b64 	.word	0x20000b64
 8005e98:	20000948 	.word	0x20000948

08005e9c <TIMER_IF_DelayMs>:
 8005e9c:	4601      	mov	r1, r0
 8005e9e:	b510      	push	{r4, lr}
 8005ea0:	f44f 727a 	mov.w	r2, #1000	; 0x3e8
 8005ea4:	2300      	movs	r3, #0
 8005ea6:	0280      	lsls	r0, r0, #10
 8005ea8:	0d89      	lsrs	r1, r1, #22
 8005eaa:	f7fa fe6d 	bl	8000b88 <__aeabi_uldivmod>
 8005eae:	4601      	mov	r1, r0
 8005eb0:	f7ff ff70 	bl	8005d94 <GetTimerTicks>
 8005eb4:	4604      	mov	r4, r0
 8005eb6:	f7ff ff6d 	bl	8005d94 <GetTimerTicks>
 8005eba:	1b03      	subs	r3, r0, r4
 8005ebc:	428b      	cmp	r3, r1
 8005ebe:	d300      	bcc.n	8005ec2 <TIMER_IF_DelayMs+0x26>
 8005ec0:	bd10      	pop	{r4, pc}
 8005ec2:	bf00      	nop
 8005ec4:	e7f7      	b.n	8005eb6 <TIMER_IF_DelayMs+0x1a>

08005ec6 <HAL_RTC_AlarmAEventCallback>:
 8005ec6:	f005 be6b 	b.w	800bba0 <UTIL_TIMER_IRQ_Handler>
	...

08005ecc <HAL_RTCEx_SSRUEventCallback>:
 8005ecc:	b510      	push	{r4, lr}
 8005ece:	4c06      	ldr	r4, [pc, #24]	; (8005ee8 <HAL_RTCEx_SSRUEventCallback+0x1c>)
 8005ed0:	2102      	movs	r1, #2
 8005ed2:	4620      	mov	r0, r4
 8005ed4:	f001 fec8 	bl	8007c68 <HAL_RTCEx_BKUPRead>
 8005ed8:	2102      	movs	r1, #2
 8005eda:	1c42      	adds	r2, r0, #1
 8005edc:	4620      	mov	r0, r4
 8005ede:	e8bd 4010 	ldmia.w	sp!, {r4, lr}
 8005ee2:	f001 beba 	b.w	8007c5a <HAL_RTCEx_BKUPWrite>
 8005ee6:	bf00      	nop
 8005ee8:	20000948 	.word	0x20000948

08005eec <MX_USART2_UART_Init>:
 8005eec:	4816      	ldr	r0, [pc, #88]	; (8005f48 <MX_USART2_UART_Init+0x5c>)
 8005eee:	4a17      	ldr	r2, [pc, #92]	; (8005f4c <MX_USART2_UART_Init+0x60>)
 8005ef0:	b508      	push	{r3, lr}
 8005ef2:	f44f 4316 	mov.w	r3, #38400	; 0x9600
 8005ef6:	e9c0 2300 	strd	r2, r3, [r0]
 8005efa:	2300      	movs	r3, #0
 8005efc:	220c      	movs	r2, #12
 8005efe:	e9c0 3302 	strd	r3, r3, [r0, #8]
 8005f02:	e9c0 2305 	strd	r2, r3, [r0, #20]
 8005f06:	e9c0 3307 	strd	r3, r3, [r0, #28]
 8005f0a:	e9c0 3309 	strd	r3, r3, [r0, #36]	; 0x24
 8005f0e:	6103      	str	r3, [r0, #16]
 8005f10:	f003 f832 	bl	8008f78 <HAL_UART_Init>
 8005f14:	b108      	cbz	r0, 8005f1a <MX_USART2_UART_Init+0x2e>
 8005f16:	f7fd fb77 	bl	8003608 <Error_Handler>
 8005f1a:	480b      	ldr	r0, [pc, #44]	; (8005f48 <MX_USART2_UART_Init+0x5c>)
 8005f1c:	2100      	movs	r1, #0
 8005f1e:	f003 f898 	bl	8009052 <HAL_UARTEx_SetTxFifoThreshold>
 8005f22:	b108      	cbz	r0, 8005f28 <MX_USART2_UART_Init+0x3c>
 8005f24:	f7fd fb70 	bl	8003608 <Error_Handler>
 8005f28:	4807      	ldr	r0, [pc, #28]	; (8005f48 <MX_USART2_UART_Init+0x5c>)
 8005f2a:	2100      	movs	r1, #0
 8005f2c:	f003 f8b5 	bl	800909a <HAL_UARTEx_SetRxFifoThreshold>
 8005f30:	b108      	cbz	r0, 8005f36 <MX_USART2_UART_Init+0x4a>
 8005f32:	f7fd fb69 	bl	8003608 <Error_Handler>
 8005f36:	4804      	ldr	r0, [pc, #16]	; (8005f48 <MX_USART2_UART_Init+0x5c>)
 8005f38:	f003 f870 	bl	800901c <HAL_UARTEx_DisableFifoMode>
 8005f3c:	b118      	cbz	r0, 8005f46 <MX_USART2_UART_Init+0x5a>
 8005f3e:	e8bd 4008 	ldmia.w	sp!, {r3, lr}
 8005f42:	f7fd bb61 	b.w	8003608 <Error_Handler>
 8005f46:	bd08      	pop	{r3, pc}
 8005f48:	20000b6c 	.word	0x20000b6c
 8005f4c:	40004400 	.word	0x40004400

08005f50 <HAL_UART_MspInit>:
 8005f50:	b570      	push	{r4, r5, r6, lr}
 8005f52:	b096      	sub	sp, #88	; 0x58
 8005f54:	4604      	mov	r4, r0
 8005f56:	2214      	movs	r2, #20
 8005f58:	2100      	movs	r1, #0
 8005f5a:	a803      	add	r0, sp, #12
 8005f5c:	f005 fe96 	bl	800bc8c <memset>
 8005f60:	2238      	movs	r2, #56	; 0x38
 8005f62:	2100      	movs	r1, #0
 8005f64:	a808      	add	r0, sp, #32
 8005f66:	f005 fe91 	bl	800bc8c <memset>
 8005f6a:	6822      	ldr	r2, [r4, #0]
 8005f6c:	4b22      	ldr	r3, [pc, #136]	; (8005ff8 <HAL_UART_MspInit+0xa8>)
 8005f6e:	429a      	cmp	r2, r3
 8005f70:	d140      	bne.n	8005ff4 <HAL_UART_MspInit+0xa4>
 8005f72:	2302      	movs	r3, #2
 8005f74:	9308      	str	r3, [sp, #32]
 8005f76:	a808      	add	r0, sp, #32
 8005f78:	f44f 2340 	mov.w	r3, #786432	; 0xc0000
 8005f7c:	930a      	str	r3, [sp, #40]	; 0x28
 8005f7e:	f001 fb7d 	bl	800767c <HAL_RCCEx_PeriphCLKConfig>
 8005f82:	b108      	cbz	r0, 8005f88 <HAL_UART_MspInit+0x38>
 8005f84:	f7fd fb40 	bl	8003608 <Error_Handler>
 8005f88:	f04f 43b0 	mov.w	r3, #1476395008	; 0x58000000
 8005f8c:	2502      	movs	r5, #2
 8005f8e:	6d9a      	ldr	r2, [r3, #88]	; 0x58
 8005f90:	f442 3200 	orr.w	r2, r2, #131072	; 0x20000
 8005f94:	659a      	str	r2, [r3, #88]	; 0x58
 8005f96:	6d9a      	ldr	r2, [r3, #88]	; 0x58
 8005f98:	f402 3200 	and.w	r2, r2, #131072	; 0x20000
 8005f9c:	9202      	str	r2, [sp, #8]
 8005f9e:	9a02      	ldr	r2, [sp, #8]
 8005fa0:	6cda      	ldr	r2, [r3, #76]	; 0x4c
 8005fa2:	f042 0201 	orr.w	r2, r2, #1
 8005fa6:	64da      	str	r2, [r3, #76]	; 0x4c
 8005fa8:	6cdb      	ldr	r3, [r3, #76]	; 0x4c
 8005faa:	f003 0301 	and.w	r3, r3, #1
 8005fae:	9301      	str	r3, [sp, #4]
 8005fb0:	2400      	movs	r4, #0
 8005fb2:	9b01      	ldr	r3, [sp, #4]
 8005fb4:	2607      	movs	r6, #7
 8005fb6:	2304      	movs	r3, #4
 8005fb8:	a903      	add	r1, sp, #12
 8005fba:	f04f 4090 	mov.w	r0, #1207959552	; 0x48000000
 8005fbe:	e9cd 3503 	strd	r3, r5, [sp, #12]
 8005fc2:	e9cd 4405 	strd	r4, r4, [sp, #20]
 8005fc6:	9607      	str	r6, [sp, #28]
 8005fc8:	f000 fd4a 	bl	8006a60 <HAL_GPIO_Init>
 8005fcc:	2308      	movs	r3, #8
 8005fce:	e9cd 3503 	strd	r3, r5, [sp, #12]
 8005fd2:	a903      	add	r1, sp, #12
 8005fd4:	2301      	movs	r3, #1
 8005fd6:	f04f 4090 	mov.w	r0, #1207959552	; 0x48000000
 8005fda:	e9cd 3405 	strd	r3, r4, [sp, #20]
 8005fde:	9607      	str	r6, [sp, #28]
 8005fe0:	f000 fd3e 	bl	8006a60 <HAL_GPIO_Init>
 8005fe4:	2025      	movs	r0, #37	; 0x25
 8005fe6:	4622      	mov	r2, r4
 8005fe8:	4629      	mov	r1, r5
 8005fea:	f000 fcf9 	bl	80069e0 <HAL_NVIC_SetPriority>
 8005fee:	2025      	movs	r0, #37	; 0x25
 8005ff0:	f000 fd28 	bl	8006a44 <HAL_NVIC_EnableIRQ>
 8005ff4:	b016      	add	sp, #88	; 0x58
 8005ff6:	bd70      	pop	{r4, r5, r6, pc}
 8005ff8:	40004400 	.word	0x40004400

08005ffc <Reset_Handler>:
 8005ffc:	480d      	ldr	r0, [pc, #52]	; (8006034 <LoopForever+0x2>)
 8005ffe:	4685      	mov	sp, r0
 8006000:	f7ff fda8 	bl	8005b54 <SystemInit>
 8006004:	480c      	ldr	r0, [pc, #48]	; (8006038 <LoopForever+0x6>)
 8006006:	490d      	ldr	r1, [pc, #52]	; (800603c <LoopForever+0xa>)
 8006008:	4a0d      	ldr	r2, [pc, #52]	; (8006040 <LoopForever+0xe>)
 800600a:	2300      	movs	r3, #0
 800600c:	e002      	b.n	8006014 <LoopCopyDataInit>

0800600e <CopyDataInit>:
 800600e:	58d4      	ldr	r4, [r2, r3]
 8006010:	50c4      	str	r4, [r0, r3]
 8006012:	3304      	adds	r3, #4

08006014 <LoopCopyDataInit>:
 8006014:	18c4      	adds	r4, r0, r3
 8006016:	428c      	cmp	r4, r1
 8006018:	d3f9      	bcc.n	800600e <CopyDataInit>
 800601a:	4a0a      	ldr	r2, [pc, #40]	; (8006044 <LoopForever+0x12>)
 800601c:	4c0a      	ldr	r4, [pc, #40]	; (8006048 <LoopForever+0x16>)
 800601e:	2300      	movs	r3, #0
 8006020:	e001      	b.n	8006026 <LoopFillZerobss>

08006022 <FillZerobss>:
 8006022:	6013      	str	r3, [r2, #0]
 8006024:	3204      	adds	r2, #4

08006026 <LoopFillZerobss>:
 8006026:	42a2      	cmp	r2, r4
 8006028:	d3fb      	bcc.n	8006022 <FillZerobss>
 800602a:	f005 fdfd 	bl	800bc28 <__libc_init_array>
 800602e:	f7fd fa15 	bl	800345c <main>

08006032 <LoopForever>:
 8006032:	e7fe      	b.n	8006032 <LoopForever>
 8006034:	20010000 	.word	0x20010000
 8006038:	20000000 	.word	0x20000000
 800603c:	200000d4 	.word	0x200000d4
 8006040:	08011470 	.word	0x08011470
 8006044:	200000d8 	.word	0x200000d8
 8006048:	20001218 	.word	0x20001218

0800604c <ADC_IRQHandler>:
 800604c:	e7fe      	b.n	800604c <ADC_IRQHandler>

0800604e <BSP_RADIO_Init>:
 800604e:	b570      	push	{r4, r5, r6, lr}
 8006050:	b088      	sub	sp, #32
 8006052:	2214      	movs	r2, #20
 8006054:	2100      	movs	r1, #0
 8006056:	a803      	add	r0, sp, #12
 8006058:	f005 fe18 	bl	800bc8c <memset>
 800605c:	2110      	movs	r1, #16
 800605e:	f640 1011 	movw	r0, #2321	; 0x911
 8006062:	f004 fad1 	bl	800a608 <SUBGRF_WriteRegister>
 8006066:	2110      	movs	r1, #16
 8006068:	f640 1012 	movw	r0, #2322	; 0x912
 800606c:	f004 facc 	bl	800a608 <SUBGRF_WriteRegister>
 8006070:	f04f 43b0 	mov.w	r3, #1476395008	; 0x58000000
 8006074:	2580      	movs	r5, #128	; 0x80
 8006076:	6cda      	ldr	r2, [r3, #76]	; 0x4c
 8006078:	f042 0201 	orr.w	r2, r2, #1
 800607c:	64da      	str	r2, [r3, #76]	; 0x4c
 800607e:	6cda      	ldr	r2, [r3, #76]	; 0x4c
 8006080:	f002 0201 	and.w	r2, r2, #1
 8006084:	9202      	str	r2, [sp, #8]
 8006086:	9a02      	ldr	r2, [sp, #8]
 8006088:	6cda      	ldr	r2, [r3, #76]	; 0x4c
 800608a:	f042 0201 	orr.w	r2, r2, #1
 800608e:	64da      	str	r2, [r3, #76]	; 0x4c
 8006090:	6cdb      	ldr	r3, [r3, #76]	; 0x4c
 8006092:	f003 0301 	and.w	r3, r3, #1
 8006096:	9301      	str	r3, [sp, #4]
 8006098:	9b01      	ldr	r3, [sp, #4]
 800609a:	2301      	movs	r3, #1
 800609c:	2400      	movs	r4, #0
 800609e:	e9cd 5303 	strd	r5, r3, [sp, #12]
 80060a2:	a903      	add	r1, sp, #12
 80060a4:	2303      	movs	r3, #3
 80060a6:	f04f 4090 	mov.w	r0, #1207959552	; 0x48000000
 80060aa:	e9cd 4305 	strd	r4, r3, [sp, #20]
 80060ae:	2640      	movs	r6, #64	; 0x40
 80060b0:	f000 fcd6 	bl	8006a60 <HAL_GPIO_Init>
 80060b4:	a903      	add	r1, sp, #12
 80060b6:	f04f 4090 	mov.w	r0, #1207959552	; 0x48000000
 80060ba:	9603      	str	r6, [sp, #12]
 80060bc:	f000 fcd0 	bl	8006a60 <HAL_GPIO_Init>
 80060c0:	4622      	mov	r2, r4
 80060c2:	4631      	mov	r1, r6
 80060c4:	f04f 4090 	mov.w	r0, #1207959552	; 0x48000000
 80060c8:	f000 fdea 	bl	8006ca0 <HAL_GPIO_WritePin>
 80060cc:	4622      	mov	r2, r4
 80060ce:	4629      	mov	r1, r5
 80060d0:	f04f 4090 	mov.w	r0, #1207959552	; 0x48000000
 80060d4:	f000 fde4 	bl	8006ca0 <HAL_GPIO_WritePin>
 80060d8:	4620      	mov	r0, r4
 80060da:	b008      	add	sp, #32
 80060dc:	bd70      	pop	{r4, r5, r6, pc}

080060de <BSP_RADIO_ConfigRFSwitch>:
 80060de:	2803      	cmp	r0, #3
 80060e0:	b510      	push	{r4, lr}
 80060e2:	d80e      	bhi.n	8006102 <BSP_RADIO_ConfigRFSwitch+0x24>
 80060e4:	2801      	cmp	r0, #1
 80060e6:	d810      	bhi.n	800610a <BSP_RADIO_ConfigRFSwitch+0x2c>
 80060e8:	b968      	cbnz	r0, 8006106 <BSP_RADIO_ConfigRFSwitch+0x28>
 80060ea:	4602      	mov	r2, r0
 80060ec:	2180      	movs	r1, #128	; 0x80
 80060ee:	f04f 4090 	mov.w	r0, #1207959552	; 0x48000000
 80060f2:	f000 fdd5 	bl	8006ca0 <HAL_GPIO_WritePin>
 80060f6:	2200      	movs	r2, #0
 80060f8:	2140      	movs	r1, #64	; 0x40
 80060fa:	f04f 4090 	mov.w	r0, #1207959552	; 0x48000000
 80060fe:	f000 fdcf 	bl	8006ca0 <HAL_GPIO_WritePin>
 8006102:	2000      	movs	r0, #0
 8006104:	bd10      	pop	{r4, pc}
 8006106:	2201      	movs	r2, #1
 8006108:	e7f0      	b.n	80060ec <BSP_RADIO_ConfigRFSwitch+0xe>
 800610a:	2200      	movs	r2, #0
 800610c:	2180      	movs	r1, #128	; 0x80
 800610e:	f04f 4090 	mov.w	r0, #1207959552	; 0x48000000
 8006112:	f000 fdc5 	bl	8006ca0 <HAL_GPIO_WritePin>
 8006116:	2201      	movs	r2, #1
 8006118:	e7ee      	b.n	80060f8 <BSP_RADIO_ConfigRFSwitch+0x1a>

0800611a <BSP_RADIO_GetTxConfig>:
 800611a:	2002      	movs	r0, #2
 800611c:	4770      	bx	lr

0800611e <BSP_RADIO_IsTCXO>:
 800611e:	2001      	movs	r0, #1
 8006120:	4770      	bx	lr

08006122 <BSP_RADIO_IsDCDC>:
 8006122:	2001      	movs	r0, #1
 8006124:	4770      	bx	lr

08006126 <BSP_RADIO_GetRFOMaxPowerConfig>:
 8006126:	2800      	cmp	r0, #0
 8006128:	bf0c      	ite	eq
 800612a:	200f      	moveq	r0, #15
 800612c:	2016      	movne	r0, #22
 800612e:	4770      	bx	lr

08006130 <HAL_Init>:
 8006130:	b510      	push	{r4, lr}
 8006132:	2003      	movs	r0, #3
 8006134:	f000 fc42 	bl	80069bc <HAL_NVIC_SetPriorityGrouping>
 8006138:	f000 fece 	bl	8006ed8 <HAL_RCC_GetHCLKFreq>
 800613c:	4b06      	ldr	r3, [pc, #24]	; (8006158 <HAL_Init+0x28>)
 800613e:	6018      	str	r0, [r3, #0]
 8006140:	200f      	movs	r0, #15
 8006142:	f7ff fcf7 	bl	8005b34 <HAL_InitTick>
 8006146:	4604      	mov	r4, r0
 8006148:	b918      	cbnz	r0, 8006152 <HAL_Init+0x22>
 800614a:	f7ff fc79 	bl	8005a40 <HAL_MspInit>
 800614e:	4620      	mov	r0, r4
 8006150:	bd10      	pop	{r4, pc}
 8006152:	2401      	movs	r4, #1
 8006154:	e7fb      	b.n	800614e <HAL_Init+0x1e>
 8006156:	bf00      	nop
 8006158:	20000064 	.word	0x20000064

0800615c <LL_ADC_REG_IsConversionOngoing>:
 800615c:	6880      	ldr	r0, [r0, #8]
 800615e:	f3c0 0080 	ubfx	r0, r0, #2, #1
 8006162:	4770      	bx	lr

08006164 <HAL_ADC_Init>:
 8006164:	b5f7      	push	{r0, r1, r2, r4, r5, r6, r7, lr}
 8006166:	2300      	movs	r3, #0
 8006168:	9301      	str	r3, [sp, #4]
 800616a:	4604      	mov	r4, r0
 800616c:	2800      	cmp	r0, #0
 800616e:	f000 80f9 	beq.w	8006364 <HAL_ADC_Init+0x200>
 8006172:	6d85      	ldr	r5, [r0, #88]	; 0x58
 8006174:	b925      	cbnz	r5, 8006180 <HAL_ADC_Init+0x1c>
 8006176:	f7fb ffc5 	bl	8002104 <HAL_ADC_MspInit>
 800617a:	65e5      	str	r5, [r4, #92]	; 0x5c
 800617c:	f884 5054 	strb.w	r5, [r4, #84]	; 0x54
 8006180:	6820      	ldr	r0, [r4, #0]
 8006182:	6883      	ldr	r3, [r0, #8]
 8006184:	00d9      	lsls	r1, r3, #3
 8006186:	f140 80a4 	bpl.w	80062d2 <HAL_ADC_Init+0x16e>
 800618a:	6883      	ldr	r3, [r0, #8]
 800618c:	00da      	lsls	r2, r3, #3
 800618e:	f100 80b7 	bmi.w	8006300 <HAL_ADC_Init+0x19c>
 8006192:	6da3      	ldr	r3, [r4, #88]	; 0x58
 8006194:	f043 0310 	orr.w	r3, r3, #16
 8006198:	65a3      	str	r3, [r4, #88]	; 0x58
 800619a:	6de3      	ldr	r3, [r4, #92]	; 0x5c
 800619c:	f043 0301 	orr.w	r3, r3, #1
 80061a0:	65e3      	str	r3, [r4, #92]	; 0x5c
 80061a2:	2501      	movs	r5, #1
 80061a4:	f7ff ffda 	bl	800615c <LL_ADC_REG_IsConversionOngoing>
 80061a8:	6da3      	ldr	r3, [r4, #88]	; 0x58
 80061aa:	f003 0310 	and.w	r3, r3, #16
 80061ae:	4318      	orrs	r0, r3
 80061b0:	6da3      	ldr	r3, [r4, #88]	; 0x58
 80061b2:	f040 80d9 	bne.w	8006368 <HAL_ADC_Init+0x204>
 80061b6:	f423 7381 	bic.w	r3, r3, #258	; 0x102
 80061ba:	f043 0302 	orr.w	r3, r3, #2
 80061be:	6821      	ldr	r1, [r4, #0]
 80061c0:	65a3      	str	r3, [r4, #88]	; 0x58
 80061c2:	688b      	ldr	r3, [r1, #8]
 80061c4:	07db      	lsls	r3, r3, #31
 80061c6:	d460      	bmi.n	800628a <HAL_ADC_Init+0x126>
 80061c8:	68e3      	ldr	r3, [r4, #12]
 80061ca:	68a2      	ldr	r2, [r4, #8]
 80061cc:	f894 e018 	ldrb.w	lr, [r4, #24]
 80061d0:	f894 c019 	ldrb.w	ip, [r4, #25]
 80061d4:	6b27      	ldr	r7, [r4, #48]	; 0x30
 80061d6:	7ea6      	ldrb	r6, [r4, #26]
 80061d8:	431a      	orrs	r2, r3
 80061da:	ea42 338e 	orr.w	r3, r2, lr, lsl #14
 80061de:	ea43 33cc 	orr.w	r3, r3, ip, lsl #15
 80061e2:	6922      	ldr	r2, [r4, #16]
 80061e4:	f894 c02c 	ldrb.w	ip, [r4, #44]	; 0x2c
 80061e8:	2f00      	cmp	r7, #0
 80061ea:	ea43 3346 	orr.w	r3, r3, r6, lsl #13
 80061ee:	bf18      	it	ne
 80061f0:	f44f 5780 	movne.w	r7, #4096	; 0x1000
 80061f4:	ea43 034c 	orr.w	r3, r3, ip, lsl #1
 80061f8:	2a00      	cmp	r2, #0
 80061fa:	bfb4      	ite	lt
 80061fc:	f022 4200 	biclt.w	r2, r2, #2147483648	; 0x80000000
 8006200:	f44f 1200 	movge.w	r2, #2097152	; 0x200000
 8006204:	433b      	orrs	r3, r7
 8006206:	4313      	orrs	r3, r2
 8006208:	f894 2020 	ldrb.w	r2, [r4, #32]
 800620c:	2a01      	cmp	r2, #1
 800620e:	d103      	bne.n	8006218 <HAL_ADC_Init+0xb4>
 8006210:	2e00      	cmp	r6, #0
 8006212:	d177      	bne.n	8006304 <HAL_ADC_Init+0x1a0>
 8006214:	f443 3380 	orr.w	r3, r3, #65536	; 0x10000
 8006218:	6a62      	ldr	r2, [r4, #36]	; 0x24
 800621a:	b122      	cbz	r2, 8006226 <HAL_ADC_Init+0xc2>
 800621c:	6aa6      	ldr	r6, [r4, #40]	; 0x28
 800621e:	f402 72e0 	and.w	r2, r2, #448	; 0x1c0
 8006222:	4332      	orrs	r2, r6
 8006224:	4313      	orrs	r3, r2
 8006226:	68ca      	ldr	r2, [r1, #12]
 8006228:	f422 32fe 	bic.w	r2, r2, #130048	; 0x1fc00
 800622c:	f422 72ff 	bic.w	r2, r2, #510	; 0x1fe
 8006230:	4313      	orrs	r3, r2
 8006232:	6862      	ldr	r2, [r4, #4]
 8006234:	60cb      	str	r3, [r1, #12]
 8006236:	6ce3      	ldr	r3, [r4, #76]	; 0x4c
 8006238:	f002 4c40 	and.w	ip, r2, #3221225472	; 0xc0000000
 800623c:	ea4c 0703 	orr.w	r7, ip, r3
 8006240:	f894 303c 	ldrb.w	r3, [r4, #60]	; 0x3c
 8006244:	2b01      	cmp	r3, #1
 8006246:	d109      	bne.n	800625c <HAL_ADC_Init+0xf8>
 8006248:	e9d4 3610 	ldrd	r3, r6, [r4, #64]	; 0x40
 800624c:	4333      	orrs	r3, r6
 800624e:	6ca6      	ldr	r6, [r4, #72]	; 0x48
 8006250:	433b      	orrs	r3, r7
 8006252:	4333      	orrs	r3, r6
 8006254:	ea43 030c 	orr.w	r3, r3, ip
 8006258:	f043 0701 	orr.w	r7, r3, #1
 800625c:	690b      	ldr	r3, [r1, #16]
 800625e:	4e44      	ldr	r6, [pc, #272]	; (8006370 <HAL_ADC_Init+0x20c>)
 8006260:	401e      	ands	r6, r3
 8006262:	f022 4300 	bic.w	r3, r2, #2147483648	; 0x80000000
 8006266:	433e      	orrs	r6, r7
 8006268:	f1b3 4f80 	cmp.w	r3, #1073741824	; 0x40000000
 800626c:	610e      	str	r6, [r1, #16]
 800626e:	d00c      	beq.n	800628a <HAL_ADC_Init+0x126>
 8006270:	f1b2 4f00 	cmp.w	r2, #2147483648	; 0x80000000
 8006274:	d009      	beq.n	800628a <HAL_ADC_Init+0x126>
 8006276:	4e3f      	ldr	r6, [pc, #252]	; (8006374 <HAL_ADC_Init+0x210>)
 8006278:	f8d6 3708 	ldr.w	r3, [r6, #1800]	; 0x708
 800627c:	f402 1270 	and.w	r2, r2, #3932160	; 0x3c0000
 8006280:	f423 1370 	bic.w	r3, r3, #3932160	; 0x3c0000
 8006284:	431a      	orrs	r2, r3
 8006286:	f8c6 2708 	str.w	r2, [r6, #1800]	; 0x708
 800628a:	694b      	ldr	r3, [r1, #20]
 800628c:	6b66      	ldr	r6, [r4, #52]	; 0x34
 800628e:	6ba2      	ldr	r2, [r4, #56]	; 0x38
 8006290:	f023 0307 	bic.w	r3, r3, #7
 8006294:	4333      	orrs	r3, r6
 8006296:	614b      	str	r3, [r1, #20]
 8006298:	694b      	ldr	r3, [r1, #20]
 800629a:	f023 0370 	bic.w	r3, r3, #112	; 0x70
 800629e:	ea43 1302 	orr.w	r3, r3, r2, lsl #4
 80062a2:	614b      	str	r3, [r1, #20]
 80062a4:	6923      	ldr	r3, [r4, #16]
 80062a6:	2b00      	cmp	r3, #0
 80062a8:	d135      	bne.n	8006316 <HAL_ADC_Init+0x1b2>
 80062aa:	6a8b      	ldr	r3, [r1, #40]	; 0x28
 80062ac:	f063 030f 	orn	r3, r3, #15
 80062b0:	628b      	str	r3, [r1, #40]	; 0x28
 80062b2:	694b      	ldr	r3, [r1, #20]
 80062b4:	f003 0307 	and.w	r3, r3, #7
 80062b8:	429e      	cmp	r6, r3
 80062ba:	d149      	bne.n	8006350 <HAL_ADC_Init+0x1ec>
 80062bc:	2300      	movs	r3, #0
 80062be:	65e3      	str	r3, [r4, #92]	; 0x5c
 80062c0:	6da3      	ldr	r3, [r4, #88]	; 0x58
 80062c2:	f023 0303 	bic.w	r3, r3, #3
 80062c6:	f043 0301 	orr.w	r3, r3, #1
 80062ca:	65a3      	str	r3, [r4, #88]	; 0x58
 80062cc:	4628      	mov	r0, r5
 80062ce:	b003      	add	sp, #12
 80062d0:	bdf0      	pop	{r4, r5, r6, r7, pc}
 80062d2:	6883      	ldr	r3, [r0, #8]
 80062d4:	4a28      	ldr	r2, [pc, #160]	; (8006378 <HAL_ADC_Init+0x214>)
 80062d6:	f023 4310 	bic.w	r3, r3, #2415919104	; 0x90000000
 80062da:	f023 0317 	bic.w	r3, r3, #23
 80062de:	f043 5380 	orr.w	r3, r3, #268435456	; 0x10000000
 80062e2:	6083      	str	r3, [r0, #8]
 80062e4:	4b25      	ldr	r3, [pc, #148]	; (800637c <HAL_ADC_Init+0x218>)
 80062e6:	681b      	ldr	r3, [r3, #0]
 80062e8:	fbb3 f3f2 	udiv	r3, r3, r2
 80062ec:	3301      	adds	r3, #1
 80062ee:	005b      	lsls	r3, r3, #1
 80062f0:	9301      	str	r3, [sp, #4]
 80062f2:	9b01      	ldr	r3, [sp, #4]
 80062f4:	2b00      	cmp	r3, #0
 80062f6:	f43f af48 	beq.w	800618a <HAL_ADC_Init+0x26>
 80062fa:	9b01      	ldr	r3, [sp, #4]
 80062fc:	3b01      	subs	r3, #1
 80062fe:	e7f7      	b.n	80062f0 <HAL_ADC_Init+0x18c>
 8006300:	2500      	movs	r5, #0
 8006302:	e74f      	b.n	80061a4 <HAL_ADC_Init+0x40>
 8006304:	6da2      	ldr	r2, [r4, #88]	; 0x58
 8006306:	f042 0220 	orr.w	r2, r2, #32
 800630a:	65a2      	str	r2, [r4, #88]	; 0x58
 800630c:	6de2      	ldr	r2, [r4, #92]	; 0x5c
 800630e:	f042 0201 	orr.w	r2, r2, #1
 8006312:	65e2      	str	r2, [r4, #92]	; 0x5c
 8006314:	e780      	b.n	8006218 <HAL_ADC_Init+0xb4>
 8006316:	f5b3 1f00 	cmp.w	r3, #2097152	; 0x200000
 800631a:	d1ca      	bne.n	80062b2 <HAL_ADC_Init+0x14e>
 800631c:	6e27      	ldr	r7, [r4, #96]	; 0x60
 800631e:	0082      	lsls	r2, r0, #2
 8006320:	fa27 f202 	lsr.w	r2, r7, r2
 8006324:	f002 020f 	and.w	r2, r2, #15
 8006328:	2a0f      	cmp	r2, #15
 800632a:	d00e      	beq.n	800634a <HAL_ADC_Init+0x1e6>
 800632c:	3001      	adds	r0, #1
 800632e:	2808      	cmp	r0, #8
 8006330:	d1f5      	bne.n	800631e <HAL_ADC_Init+0x1ba>
 8006332:	6a8b      	ldr	r3, [r1, #40]	; 0x28
 8006334:	69e3      	ldr	r3, [r4, #28]
 8006336:	3b01      	subs	r3, #1
 8006338:	009b      	lsls	r3, r3, #2
 800633a:	f003 031c 	and.w	r3, r3, #28
 800633e:	f06f 020f 	mvn.w	r2, #15
 8006342:	fa02 f303 	lsl.w	r3, r2, r3
 8006346:	433b      	orrs	r3, r7
 8006348:	e7b2      	b.n	80062b0 <HAL_ADC_Init+0x14c>
 800634a:	2801      	cmp	r0, #1
 800634c:	d0ad      	beq.n	80062aa <HAL_ADC_Init+0x146>
 800634e:	e7f0      	b.n	8006332 <HAL_ADC_Init+0x1ce>
 8006350:	6da3      	ldr	r3, [r4, #88]	; 0x58
 8006352:	f023 0312 	bic.w	r3, r3, #18
 8006356:	f043 0310 	orr.w	r3, r3, #16
 800635a:	65a3      	str	r3, [r4, #88]	; 0x58
 800635c:	6de3      	ldr	r3, [r4, #92]	; 0x5c
 800635e:	f043 0301 	orr.w	r3, r3, #1
 8006362:	65e3      	str	r3, [r4, #92]	; 0x5c
 8006364:	2501      	movs	r5, #1
 8006366:	e7b1      	b.n	80062cc <HAL_ADC_Init+0x168>
 8006368:	f043 0310 	orr.w	r3, r3, #16
 800636c:	65a3      	str	r3, [r4, #88]	; 0x58
 800636e:	e7f9      	b.n	8006364 <HAL_ADC_Init+0x200>
 8006370:	1ffffc02 	.word	0x1ffffc02
 8006374:	40012000 	.word	0x40012000
 8006378:	00030d40 	.word	0x00030d40
 800637c:	20000064 	.word	0x20000064

08006380 <HAL_ADC_PollForConversion>:
 8006380:	b5f8      	push	{r3, r4, r5, r6, r7, lr}
 8006382:	6945      	ldr	r5, [r0, #20]
 8006384:	2d08      	cmp	r5, #8
 8006386:	4604      	mov	r4, r0
 8006388:	460e      	mov	r6, r1
 800638a:	d00a      	beq.n	80063a2 <HAL_ADC_PollForConversion+0x22>
 800638c:	6803      	ldr	r3, [r0, #0]
 800638e:	68db      	ldr	r3, [r3, #12]
 8006390:	07d9      	lsls	r1, r3, #31
 8006392:	d505      	bpl.n	80063a0 <HAL_ADC_PollForConversion+0x20>
 8006394:	6d83      	ldr	r3, [r0, #88]	; 0x58
 8006396:	f043 0320 	orr.w	r3, r3, #32
 800639a:	6583      	str	r3, [r0, #88]	; 0x58
 800639c:	2001      	movs	r0, #1
 800639e:	bdf8      	pop	{r3, r4, r5, r6, r7, pc}
 80063a0:	2504      	movs	r5, #4
 80063a2:	f7ff fbc9 	bl	8005b38 <HAL_GetTick>
 80063a6:	4607      	mov	r7, r0
 80063a8:	6820      	ldr	r0, [r4, #0]
 80063aa:	6803      	ldr	r3, [r0, #0]
 80063ac:	422b      	tst	r3, r5
 80063ae:	d022      	beq.n	80063f6 <HAL_ADC_PollForConversion+0x76>
 80063b0:	6da3      	ldr	r3, [r4, #88]	; 0x58
 80063b2:	f443 7300 	orr.w	r3, r3, #512	; 0x200
 80063b6:	65a3      	str	r3, [r4, #88]	; 0x58
 80063b8:	68c3      	ldr	r3, [r0, #12]
 80063ba:	f413 6f40 	tst.w	r3, #3072	; 0xc00
 80063be:	d114      	bne.n	80063ea <HAL_ADC_PollForConversion+0x6a>
 80063c0:	7ea3      	ldrb	r3, [r4, #26]
 80063c2:	b993      	cbnz	r3, 80063ea <HAL_ADC_PollForConversion+0x6a>
 80063c4:	6803      	ldr	r3, [r0, #0]
 80063c6:	071b      	lsls	r3, r3, #28
 80063c8:	d50f      	bpl.n	80063ea <HAL_ADC_PollForConversion+0x6a>
 80063ca:	f7ff fec7 	bl	800615c <LL_ADC_REG_IsConversionOngoing>
 80063ce:	bb38      	cbnz	r0, 8006420 <HAL_ADC_PollForConversion+0xa0>
 80063d0:	6822      	ldr	r2, [r4, #0]
 80063d2:	6853      	ldr	r3, [r2, #4]
 80063d4:	f023 030c 	bic.w	r3, r3, #12
 80063d8:	6053      	str	r3, [r2, #4]
 80063da:	6da3      	ldr	r3, [r4, #88]	; 0x58
 80063dc:	f423 7380 	bic.w	r3, r3, #256	; 0x100
 80063e0:	f023 0301 	bic.w	r3, r3, #1
 80063e4:	f043 0301 	orr.w	r3, r3, #1
 80063e8:	65a3      	str	r3, [r4, #88]	; 0x58
 80063ea:	7e20      	ldrb	r0, [r4, #24]
 80063ec:	bb08      	cbnz	r0, 8006432 <HAL_ADC_PollForConversion+0xb2>
 80063ee:	6823      	ldr	r3, [r4, #0]
 80063f0:	220c      	movs	r2, #12
 80063f2:	601a      	str	r2, [r3, #0]
 80063f4:	e7d3      	b.n	800639e <HAL_ADC_PollForConversion+0x1e>
 80063f6:	1c72      	adds	r2, r6, #1
 80063f8:	d0d7      	beq.n	80063aa <HAL_ADC_PollForConversion+0x2a>
 80063fa:	f7ff fb9d 	bl	8005b38 <HAL_GetTick>
 80063fe:	1bc0      	subs	r0, r0, r7
 8006400:	42b0      	cmp	r0, r6
 8006402:	d801      	bhi.n	8006408 <HAL_ADC_PollForConversion+0x88>
 8006404:	2e00      	cmp	r6, #0
 8006406:	d1cf      	bne.n	80063a8 <HAL_ADC_PollForConversion+0x28>
 8006408:	6823      	ldr	r3, [r4, #0]
 800640a:	681b      	ldr	r3, [r3, #0]
 800640c:	402b      	ands	r3, r5
 800640e:	d1cb      	bne.n	80063a8 <HAL_ADC_PollForConversion+0x28>
 8006410:	6da2      	ldr	r2, [r4, #88]	; 0x58
 8006412:	f884 3054 	strb.w	r3, [r4, #84]	; 0x54
 8006416:	f042 0204 	orr.w	r2, r2, #4
 800641a:	65a2      	str	r2, [r4, #88]	; 0x58
 800641c:	2003      	movs	r0, #3
 800641e:	e7be      	b.n	800639e <HAL_ADC_PollForConversion+0x1e>
 8006420:	6da3      	ldr	r3, [r4, #88]	; 0x58
 8006422:	f043 0320 	orr.w	r3, r3, #32
 8006426:	65a3      	str	r3, [r4, #88]	; 0x58
 8006428:	6de3      	ldr	r3, [r4, #92]	; 0x5c
 800642a:	f043 0301 	orr.w	r3, r3, #1
 800642e:	65e3      	str	r3, [r4, #92]	; 0x5c
 8006430:	e7db      	b.n	80063ea <HAL_ADC_PollForConversion+0x6a>
 8006432:	2000      	movs	r0, #0
 8006434:	e7b3      	b.n	800639e <HAL_ADC_PollForConversion+0x1e>

08006436 <HAL_ADC_GetValue>:
 8006436:	6803      	ldr	r3, [r0, #0]
 8006438:	6c18      	ldr	r0, [r3, #64]	; 0x40
 800643a:	4770      	bx	lr

0800643c <HAL_ADC_ConfigChannel>:
 800643c:	b5f7      	push	{r0, r1, r2, r4, r5, r6, r7, lr}
 800643e:	2300      	movs	r3, #0
 8006440:	9301      	str	r3, [sp, #4]
 8006442:	f890 3054 	ldrb.w	r3, [r0, #84]	; 0x54
 8006446:	2b01      	cmp	r3, #1
 8006448:	4604      	mov	r4, r0
 800644a:	f000 80c7 	beq.w	80065dc <HAL_ADC_ConfigChannel+0x1a0>
 800644e:	2301      	movs	r3, #1
 8006450:	f880 3054 	strb.w	r3, [r0, #84]	; 0x54
 8006454:	6800      	ldr	r0, [r0, #0]
 8006456:	f7ff fe81 	bl	800615c <LL_ADC_REG_IsConversionOngoing>
 800645a:	2800      	cmp	r0, #0
 800645c:	f040 80b8 	bne.w	80065d0 <HAL_ADC_ConfigChannel+0x194>
 8006460:	e9d1 2000 	ldrd	r2, r0, [r1]
 8006464:	6923      	ldr	r3, [r4, #16]
 8006466:	2802      	cmp	r0, #2
 8006468:	f023 0304 	bic.w	r3, r3, #4
 800646c:	f000 8083 	beq.w	8006576 <HAL_ADC_ConfigChannel+0x13a>
 8006470:	f1b3 4f00 	cmp.w	r3, #2147483648	; 0x80000000
 8006474:	6825      	ldr	r5, [r4, #0]
 8006476:	f3c2 0e11 	ubfx	lr, r2, #0, #18
 800647a:	d113      	bne.n	80064a4 <HAL_ADC_ConfigChannel+0x68>
 800647c:	6aab      	ldr	r3, [r5, #40]	; 0x28
 800647e:	ea43 030e 	orr.w	r3, r3, lr
 8006482:	62ab      	str	r3, [r5, #40]	; 0x28
 8006484:	688b      	ldr	r3, [r1, #8]
 8006486:	6968      	ldr	r0, [r5, #20]
 8006488:	ea03 2302 	and.w	r3, r3, r2, lsl #8
 800648c:	f023 437c 	bic.w	r3, r3, #4227858432	; 0xfc000000
 8006490:	f023 03ff 	bic.w	r3, r3, #255	; 0xff
 8006494:	ea20 2102 	bic.w	r1, r0, r2, lsl #8
 8006498:	430b      	orrs	r3, r1
 800649a:	2a00      	cmp	r2, #0
 800649c:	616b      	str	r3, [r5, #20]
 800649e:	db26      	blt.n	80064ee <HAL_ADC_ConfigChannel+0xb2>
 80064a0:	2000      	movs	r0, #0
 80064a2:	e055      	b.n	8006550 <HAL_ADC_ConfigChannel+0x114>
 80064a4:	6e23      	ldr	r3, [r4, #96]	; 0x60
 80064a6:	f000 071f 	and.w	r7, r0, #31
 80064aa:	f04f 0c0f 	mov.w	ip, #15
 80064ae:	fa0c fc07 	lsl.w	ip, ip, r7
 80064b2:	ea6f 060c 	mvn.w	r6, ip
 80064b6:	ea23 0c0c 	bic.w	ip, r3, ip
 80064ba:	f1be 0f00 	cmp.w	lr, #0
 80064be:	d111      	bne.n	80064e4 <HAL_ADC_ConfigChannel+0xa8>
 80064c0:	f3c2 6384 	ubfx	r3, r2, #26, #5
 80064c4:	40bb      	lsls	r3, r7
 80064c6:	ea43 030c 	orr.w	r3, r3, ip
 80064ca:	6623      	str	r3, [r4, #96]	; 0x60
 80064cc:	0880      	lsrs	r0, r0, #2
 80064ce:	69e3      	ldr	r3, [r4, #28]
 80064d0:	3001      	adds	r0, #1
 80064d2:	4298      	cmp	r0, r3
 80064d4:	d8d6      	bhi.n	8006484 <HAL_ADC_ConfigChannel+0x48>
 80064d6:	6aa8      	ldr	r0, [r5, #40]	; 0x28
 80064d8:	f3c2 6383 	ubfx	r3, r2, #26, #4
 80064dc:	40bb      	lsls	r3, r7
 80064de:	4006      	ands	r6, r0
 80064e0:	4333      	orrs	r3, r6
 80064e2:	e7ce      	b.n	8006482 <HAL_ADC_ConfigChannel+0x46>
 80064e4:	fa92 f3a2 	rbit	r3, r2
 80064e8:	fab3 f383 	clz	r3, r3
 80064ec:	e7ea      	b.n	80064c4 <HAL_ADC_ConfigChannel+0x88>
 80064ee:	493c      	ldr	r1, [pc, #240]	; (80065e0 <HAL_ADC_ConfigChannel+0x1a4>)
 80064f0:	483c      	ldr	r0, [pc, #240]	; (80065e4 <HAL_ADC_ConfigChannel+0x1a8>)
 80064f2:	f8d1 3708 	ldr.w	r3, [r1, #1800]	; 0x708
 80064f6:	4282      	cmp	r2, r0
 80064f8:	f003 75e0 	and.w	r5, r3, #29360128	; 0x1c00000
 80064fc:	d119      	bne.n	8006532 <HAL_ADC_ConfigChannel+0xf6>
 80064fe:	021b      	lsls	r3, r3, #8
 8006500:	d4ce      	bmi.n	80064a0 <HAL_ADC_ConfigChannel+0x64>
 8006502:	f8d1 3708 	ldr.w	r3, [r1, #1800]	; 0x708
 8006506:	4a38      	ldr	r2, [pc, #224]	; (80065e8 <HAL_ADC_ConfigChannel+0x1ac>)
 8006508:	f023 73e0 	bic.w	r3, r3, #29360128	; 0x1c00000
 800650c:	432b      	orrs	r3, r5
 800650e:	f443 0300 	orr.w	r3, r3, #8388608	; 0x800000
 8006512:	f8c1 3708 	str.w	r3, [r1, #1800]	; 0x708
 8006516:	4b35      	ldr	r3, [pc, #212]	; (80065ec <HAL_ADC_ConfigChannel+0x1b0>)
 8006518:	681b      	ldr	r3, [r3, #0]
 800651a:	fbb3 f2f2 	udiv	r2, r3, r2
 800651e:	230c      	movs	r3, #12
 8006520:	fb02 3303 	mla	r3, r2, r3, r3
 8006524:	9301      	str	r3, [sp, #4]
 8006526:	9b01      	ldr	r3, [sp, #4]
 8006528:	2b00      	cmp	r3, #0
 800652a:	d0b9      	beq.n	80064a0 <HAL_ADC_ConfigChannel+0x64>
 800652c:	9b01      	ldr	r3, [sp, #4]
 800652e:	3b01      	subs	r3, #1
 8006530:	e7f8      	b.n	8006524 <HAL_ADC_ConfigChannel+0xe8>
 8006532:	482f      	ldr	r0, [pc, #188]	; (80065f0 <HAL_ADC_ConfigChannel+0x1b4>)
 8006534:	4282      	cmp	r2, r0
 8006536:	d110      	bne.n	800655a <HAL_ADC_ConfigChannel+0x11e>
 8006538:	f013 7080 	ands.w	r0, r3, #16777216	; 0x1000000
 800653c:	d1b0      	bne.n	80064a0 <HAL_ADC_ConfigChannel+0x64>
 800653e:	f8d1 3708 	ldr.w	r3, [r1, #1800]	; 0x708
 8006542:	f023 73e0 	bic.w	r3, r3, #29360128	; 0x1c00000
 8006546:	432b      	orrs	r3, r5
 8006548:	f043 7380 	orr.w	r3, r3, #16777216	; 0x1000000
 800654c:	f8c1 3708 	str.w	r3, [r1, #1800]	; 0x708
 8006550:	2300      	movs	r3, #0
 8006552:	f884 3054 	strb.w	r3, [r4, #84]	; 0x54
 8006556:	b003      	add	sp, #12
 8006558:	bdf0      	pop	{r4, r5, r6, r7, pc}
 800655a:	4826      	ldr	r0, [pc, #152]	; (80065f4 <HAL_ADC_ConfigChannel+0x1b8>)
 800655c:	4282      	cmp	r2, r0
 800655e:	d19f      	bne.n	80064a0 <HAL_ADC_ConfigChannel+0x64>
 8006560:	f413 0080 	ands.w	r0, r3, #4194304	; 0x400000
 8006564:	d19c      	bne.n	80064a0 <HAL_ADC_ConfigChannel+0x64>
 8006566:	f8d1 3708 	ldr.w	r3, [r1, #1800]	; 0x708
 800656a:	f023 73e0 	bic.w	r3, r3, #29360128	; 0x1c00000
 800656e:	432b      	orrs	r3, r5
 8006570:	f443 0380 	orr.w	r3, r3, #4194304	; 0x400000
 8006574:	e7ea      	b.n	800654c <HAL_ADC_ConfigChannel+0x110>
 8006576:	f1b3 4f00 	cmp.w	r3, #2147483648	; 0x80000000
 800657a:	d106      	bne.n	800658a <HAL_ADC_ConfigChannel+0x14e>
 800657c:	6821      	ldr	r1, [r4, #0]
 800657e:	6a8b      	ldr	r3, [r1, #40]	; 0x28
 8006580:	f3c2 0011 	ubfx	r0, r2, #0, #18
 8006584:	ea23 0300 	bic.w	r3, r3, r0
 8006588:	628b      	str	r3, [r1, #40]	; 0x28
 800658a:	2a00      	cmp	r2, #0
 800658c:	da88      	bge.n	80064a0 <HAL_ADC_ConfigChannel+0x64>
 800658e:	4815      	ldr	r0, [pc, #84]	; (80065e4 <HAL_ADC_ConfigChannel+0x1a8>)
 8006590:	4913      	ldr	r1, [pc, #76]	; (80065e0 <HAL_ADC_ConfigChannel+0x1a4>)
 8006592:	4282      	cmp	r2, r0
 8006594:	f8d1 3708 	ldr.w	r3, [r1, #1800]	; 0x708
 8006598:	d109      	bne.n	80065ae <HAL_ADC_ConfigChannel+0x172>
 800659a:	f8d1 2708 	ldr.w	r2, [r1, #1800]	; 0x708
 800659e:	f003 73a0 	and.w	r3, r3, #20971520	; 0x1400000
 80065a2:	f022 72e0 	bic.w	r2, r2, #29360128	; 0x1c00000
 80065a6:	4313      	orrs	r3, r2
 80065a8:	f8c1 3708 	str.w	r3, [r1, #1800]	; 0x708
 80065ac:	e778      	b.n	80064a0 <HAL_ADC_ConfigChannel+0x64>
 80065ae:	4810      	ldr	r0, [pc, #64]	; (80065f0 <HAL_ADC_ConfigChannel+0x1b4>)
 80065b0:	4282      	cmp	r2, r0
 80065b2:	d104      	bne.n	80065be <HAL_ADC_ConfigChannel+0x182>
 80065b4:	f8d1 2708 	ldr.w	r2, [r1, #1800]	; 0x708
 80065b8:	f403 0340 	and.w	r3, r3, #12582912	; 0xc00000
 80065bc:	e7f1      	b.n	80065a2 <HAL_ADC_ConfigChannel+0x166>
 80065be:	480d      	ldr	r0, [pc, #52]	; (80065f4 <HAL_ADC_ConfigChannel+0x1b8>)
 80065c0:	4282      	cmp	r2, r0
 80065c2:	f47f af6d 	bne.w	80064a0 <HAL_ADC_ConfigChannel+0x64>
 80065c6:	f8d1 2708 	ldr.w	r2, [r1, #1800]	; 0x708
 80065ca:	f003 73c0 	and.w	r3, r3, #25165824	; 0x1800000
 80065ce:	e7e8      	b.n	80065a2 <HAL_ADC_ConfigChannel+0x166>
 80065d0:	6da2      	ldr	r2, [r4, #88]	; 0x58
 80065d2:	f042 0220 	orr.w	r2, r2, #32
 80065d6:	65a2      	str	r2, [r4, #88]	; 0x58
 80065d8:	4618      	mov	r0, r3
 80065da:	e7b9      	b.n	8006550 <HAL_ADC_ConfigChannel+0x114>
 80065dc:	2002      	movs	r0, #2
 80065de:	e7ba      	b.n	8006556 <HAL_ADC_ConfigChannel+0x11a>
 80065e0:	40012000 	.word	0x40012000
 80065e4:	b0001000 	.word	0xb0001000
 80065e8:	00030d40 	.word	0x00030d40
 80065ec:	20000064 	.word	0x20000064
 80065f0:	b8004000 	.word	0xb8004000
 80065f4:	b4002000 	.word	0xb4002000

080065f8 <ADC_ConversionStop>:
 80065f8:	b538      	push	{r3, r4, r5, lr}
 80065fa:	4604      	mov	r4, r0
 80065fc:	6800      	ldr	r0, [r0, #0]
 80065fe:	f7ff fdad 	bl	800615c <LL_ADC_REG_IsConversionOngoing>
 8006602:	b908      	cbnz	r0, 8006608 <ADC_ConversionStop+0x10>
 8006604:	2000      	movs	r0, #0
 8006606:	bd38      	pop	{r3, r4, r5, pc}
 8006608:	6822      	ldr	r2, [r4, #0]
 800660a:	6893      	ldr	r3, [r2, #8]
 800660c:	0799      	lsls	r1, r3, #30
 800660e:	d407      	bmi.n	8006620 <ADC_ConversionStop+0x28>
 8006610:	6893      	ldr	r3, [r2, #8]
 8006612:	f023 4300 	bic.w	r3, r3, #2147483648	; 0x80000000
 8006616:	f023 0317 	bic.w	r3, r3, #23
 800661a:	f043 0310 	orr.w	r3, r3, #16
 800661e:	6093      	str	r3, [r2, #8]
 8006620:	f7ff fa8a 	bl	8005b38 <HAL_GetTick>
 8006624:	4605      	mov	r5, r0
 8006626:	6823      	ldr	r3, [r4, #0]
 8006628:	689b      	ldr	r3, [r3, #8]
 800662a:	075b      	lsls	r3, r3, #29
 800662c:	d5ea      	bpl.n	8006604 <ADC_ConversionStop+0xc>
 800662e:	f7ff fa83 	bl	8005b38 <HAL_GetTick>
 8006632:	1b40      	subs	r0, r0, r5
 8006634:	2802      	cmp	r0, #2
 8006636:	d9f6      	bls.n	8006626 <ADC_ConversionStop+0x2e>
 8006638:	6823      	ldr	r3, [r4, #0]
 800663a:	689b      	ldr	r3, [r3, #8]
 800663c:	075a      	lsls	r2, r3, #29
 800663e:	d5f2      	bpl.n	8006626 <ADC_ConversionStop+0x2e>
 8006640:	6da3      	ldr	r3, [r4, #88]	; 0x58
 8006642:	f043 0310 	orr.w	r3, r3, #16
 8006646:	65a3      	str	r3, [r4, #88]	; 0x58
 8006648:	6de3      	ldr	r3, [r4, #92]	; 0x5c
 800664a:	f043 0301 	orr.w	r3, r3, #1
 800664e:	65e3      	str	r3, [r4, #92]	; 0x5c
 8006650:	2001      	movs	r0, #1
 8006652:	e7d8      	b.n	8006606 <ADC_ConversionStop+0xe>

08006654 <ADC_Enable>:
 8006654:	b573      	push	{r0, r1, r4, r5, r6, lr}
 8006656:	2300      	movs	r3, #0
 8006658:	6802      	ldr	r2, [r0, #0]
 800665a:	9301      	str	r3, [sp, #4]
 800665c:	6893      	ldr	r3, [r2, #8]
 800665e:	07dd      	lsls	r5, r3, #31
 8006660:	4604      	mov	r4, r0
 8006662:	d502      	bpl.n	800666a <ADC_Enable+0x16>
 8006664:	2000      	movs	r0, #0
 8006666:	b002      	add	sp, #8
 8006668:	bd70      	pop	{r4, r5, r6, pc}
 800666a:	6891      	ldr	r1, [r2, #8]
 800666c:	4b21      	ldr	r3, [pc, #132]	; (80066f4 <ADC_Enable+0xa0>)
 800666e:	4219      	tst	r1, r3
 8006670:	d009      	beq.n	8006686 <ADC_Enable+0x32>
 8006672:	6da3      	ldr	r3, [r4, #88]	; 0x58
 8006674:	f043 0310 	orr.w	r3, r3, #16
 8006678:	65a3      	str	r3, [r4, #88]	; 0x58
 800667a:	6de3      	ldr	r3, [r4, #92]	; 0x5c
 800667c:	f043 0301 	orr.w	r3, r3, #1
 8006680:	65e3      	str	r3, [r4, #92]	; 0x5c
 8006682:	2001      	movs	r0, #1
 8006684:	e7ef      	b.n	8006666 <ADC_Enable+0x12>
 8006686:	6893      	ldr	r3, [r2, #8]
 8006688:	f023 4300 	bic.w	r3, r3, #2147483648	; 0x80000000
 800668c:	f023 0317 	bic.w	r3, r3, #23
 8006690:	f043 0301 	orr.w	r3, r3, #1
 8006694:	6093      	str	r3, [r2, #8]
 8006696:	4b18      	ldr	r3, [pc, #96]	; (80066f8 <ADC_Enable+0xa4>)
 8006698:	f8d3 3708 	ldr.w	r3, [r3, #1800]	; 0x708
 800669c:	0218      	lsls	r0, r3, #8
 800669e:	d41c      	bmi.n	80066da <ADC_Enable+0x86>
 80066a0:	7e63      	ldrb	r3, [r4, #25]
 80066a2:	2b01      	cmp	r3, #1
 80066a4:	d0de      	beq.n	8006664 <ADC_Enable+0x10>
 80066a6:	f7ff fa47 	bl	8005b38 <HAL_GetTick>
 80066aa:	4e14      	ldr	r6, [pc, #80]	; (80066fc <ADC_Enable+0xa8>)
 80066ac:	4605      	mov	r5, r0
 80066ae:	6822      	ldr	r2, [r4, #0]
 80066b0:	6813      	ldr	r3, [r2, #0]
 80066b2:	07db      	lsls	r3, r3, #31
 80066b4:	d4d6      	bmi.n	8006664 <ADC_Enable+0x10>
 80066b6:	6893      	ldr	r3, [r2, #8]
 80066b8:	07d9      	lsls	r1, r3, #31
 80066ba:	bf5f      	itttt	pl
 80066bc:	6893      	ldrpl	r3, [r2, #8]
 80066be:	4033      	andpl	r3, r6
 80066c0:	f043 0301 	orrpl.w	r3, r3, #1
 80066c4:	6093      	strpl	r3, [r2, #8]
 80066c6:	f7ff fa37 	bl	8005b38 <HAL_GetTick>
 80066ca:	1b40      	subs	r0, r0, r5
 80066cc:	2802      	cmp	r0, #2
 80066ce:	d9ee      	bls.n	80066ae <ADC_Enable+0x5a>
 80066d0:	6823      	ldr	r3, [r4, #0]
 80066d2:	681b      	ldr	r3, [r3, #0]
 80066d4:	07da      	lsls	r2, r3, #31
 80066d6:	d4ea      	bmi.n	80066ae <ADC_Enable+0x5a>
 80066d8:	e7cb      	b.n	8006672 <ADC_Enable+0x1e>
 80066da:	4b09      	ldr	r3, [pc, #36]	; (8006700 <ADC_Enable+0xac>)
 80066dc:	4a09      	ldr	r2, [pc, #36]	; (8006704 <ADC_Enable+0xb0>)
 80066de:	681b      	ldr	r3, [r3, #0]
 80066e0:	fbb3 f3f2 	udiv	r3, r3, r2
 80066e4:	3301      	adds	r3, #1
 80066e6:	9301      	str	r3, [sp, #4]
 80066e8:	9b01      	ldr	r3, [sp, #4]
 80066ea:	2b00      	cmp	r3, #0
 80066ec:	d0d8      	beq.n	80066a0 <ADC_Enable+0x4c>
 80066ee:	9b01      	ldr	r3, [sp, #4]
 80066f0:	3b01      	subs	r3, #1
 80066f2:	e7f8      	b.n	80066e6 <ADC_Enable+0x92>
 80066f4:	80000017 	.word	0x80000017
 80066f8:	40012000 	.word	0x40012000
 80066fc:	7fffffe8 	.word	0x7fffffe8
 8006700:	20000064 	.word	0x20000064
 8006704:	00030d40 	.word	0x00030d40

08006708 <HAL_ADC_Start>:
 8006708:	b538      	push	{r3, r4, r5, lr}
 800670a:	4604      	mov	r4, r0
 800670c:	6800      	ldr	r0, [r0, #0]
 800670e:	f7ff fd25 	bl	800615c <LL_ADC_REG_IsConversionOngoing>
 8006712:	4605      	mov	r5, r0
 8006714:	bb20      	cbnz	r0, 8006760 <HAL_ADC_Start+0x58>
 8006716:	f894 3054 	ldrb.w	r3, [r4, #84]	; 0x54
 800671a:	2b01      	cmp	r3, #1
 800671c:	d020      	beq.n	8006760 <HAL_ADC_Start+0x58>
 800671e:	2301      	movs	r3, #1
 8006720:	f884 3054 	strb.w	r3, [r4, #84]	; 0x54
 8006724:	4620      	mov	r0, r4
 8006726:	f7ff ff95 	bl	8006654 <ADC_Enable>
 800672a:	b9b0      	cbnz	r0, 800675a <HAL_ADC_Start+0x52>
 800672c:	6da3      	ldr	r3, [r4, #88]	; 0x58
 800672e:	6822      	ldr	r2, [r4, #0]
 8006730:	f423 6370 	bic.w	r3, r3, #3840	; 0xf00
 8006734:	f023 0301 	bic.w	r3, r3, #1
 8006738:	f443 7380 	orr.w	r3, r3, #256	; 0x100
 800673c:	65a3      	str	r3, [r4, #88]	; 0x58
 800673e:	231c      	movs	r3, #28
 8006740:	65e0      	str	r0, [r4, #92]	; 0x5c
 8006742:	6013      	str	r3, [r2, #0]
 8006744:	f884 0054 	strb.w	r0, [r4, #84]	; 0x54
 8006748:	6893      	ldr	r3, [r2, #8]
 800674a:	f023 4300 	bic.w	r3, r3, #2147483648	; 0x80000000
 800674e:	f023 0317 	bic.w	r3, r3, #23
 8006752:	f043 0304 	orr.w	r3, r3, #4
 8006756:	6093      	str	r3, [r2, #8]
 8006758:	bd38      	pop	{r3, r4, r5, pc}
 800675a:	f884 5054 	strb.w	r5, [r4, #84]	; 0x54
 800675e:	e7fb      	b.n	8006758 <HAL_ADC_Start+0x50>
 8006760:	2002      	movs	r0, #2
 8006762:	e7f9      	b.n	8006758 <HAL_ADC_Start+0x50>

08006764 <ADC_Disable>:
 8006764:	6802      	ldr	r2, [r0, #0]
 8006766:	b538      	push	{r3, r4, r5, lr}
 8006768:	6893      	ldr	r3, [r2, #8]
 800676a:	6891      	ldr	r1, [r2, #8]
 800676c:	4604      	mov	r4, r0
 800676e:	07c8      	lsls	r0, r1, #31
 8006770:	d401      	bmi.n	8006776 <ADC_Disable+0x12>
 8006772:	2000      	movs	r0, #0
 8006774:	bd38      	pop	{r3, r4, r5, pc}
 8006776:	0799      	lsls	r1, r3, #30
 8006778:	d4fb      	bmi.n	8006772 <ADC_Disable+0xe>
 800677a:	6893      	ldr	r3, [r2, #8]
 800677c:	f003 0305 	and.w	r3, r3, #5
 8006780:	2b01      	cmp	r3, #1
 8006782:	d119      	bne.n	80067b8 <ADC_Disable+0x54>
 8006784:	6893      	ldr	r3, [r2, #8]
 8006786:	f023 4300 	bic.w	r3, r3, #2147483648	; 0x80000000
 800678a:	f023 0317 	bic.w	r3, r3, #23
 800678e:	f043 0302 	orr.w	r3, r3, #2
 8006792:	6093      	str	r3, [r2, #8]
 8006794:	2303      	movs	r3, #3
 8006796:	6013      	str	r3, [r2, #0]
 8006798:	f7ff f9ce 	bl	8005b38 <HAL_GetTick>
 800679c:	4605      	mov	r5, r0
 800679e:	6823      	ldr	r3, [r4, #0]
 80067a0:	689b      	ldr	r3, [r3, #8]
 80067a2:	07db      	lsls	r3, r3, #31
 80067a4:	d5e5      	bpl.n	8006772 <ADC_Disable+0xe>
 80067a6:	f7ff f9c7 	bl	8005b38 <HAL_GetTick>
 80067aa:	1b40      	subs	r0, r0, r5
 80067ac:	2802      	cmp	r0, #2
 80067ae:	d9f6      	bls.n	800679e <ADC_Disable+0x3a>
 80067b0:	6823      	ldr	r3, [r4, #0]
 80067b2:	689b      	ldr	r3, [r3, #8]
 80067b4:	07da      	lsls	r2, r3, #31
 80067b6:	d5f2      	bpl.n	800679e <ADC_Disable+0x3a>
 80067b8:	6da3      	ldr	r3, [r4, #88]	; 0x58
 80067ba:	f043 0310 	orr.w	r3, r3, #16
 80067be:	65a3      	str	r3, [r4, #88]	; 0x58
 80067c0:	6de3      	ldr	r3, [r4, #92]	; 0x5c
 80067c2:	f043 0301 	orr.w	r3, r3, #1
 80067c6:	65e3      	str	r3, [r4, #92]	; 0x5c
 80067c8:	2001      	movs	r0, #1
 80067ca:	e7d3      	b.n	8006774 <ADC_Disable+0x10>

080067cc <HAL_ADC_DeInit>:
 80067cc:	b570      	push	{r4, r5, r6, lr}
 80067ce:	4604      	mov	r4, r0
 80067d0:	2800      	cmp	r0, #0
 80067d2:	d043      	beq.n	800685c <HAL_ADC_DeInit+0x90>
 80067d4:	6d83      	ldr	r3, [r0, #88]	; 0x58
 80067d6:	f043 0302 	orr.w	r3, r3, #2
 80067da:	6583      	str	r3, [r0, #88]	; 0x58
 80067dc:	f7ff ff0c 	bl	80065f8 <ADC_ConversionStop>
 80067e0:	4605      	mov	r5, r0
 80067e2:	b968      	cbnz	r0, 8006800 <HAL_ADC_DeInit+0x34>
 80067e4:	4620      	mov	r0, r4
 80067e6:	f7ff ffbd 	bl	8006764 <ADC_Disable>
 80067ea:	4605      	mov	r5, r0
 80067ec:	b908      	cbnz	r0, 80067f2 <HAL_ADC_DeInit+0x26>
 80067ee:	2301      	movs	r3, #1
 80067f0:	65a3      	str	r3, [r4, #88]	; 0x58
 80067f2:	6822      	ldr	r2, [r4, #0]
 80067f4:	6893      	ldr	r3, [r2, #8]
 80067f6:	f023 4310 	bic.w	r3, r3, #2415919104	; 0x90000000
 80067fa:	f023 0317 	bic.w	r3, r3, #23
 80067fe:	6093      	str	r3, [r2, #8]
 8006800:	6823      	ldr	r3, [r4, #0]
 8006802:	685a      	ldr	r2, [r3, #4]
 8006804:	f422 7267 	bic.w	r2, r2, #924	; 0x39c
 8006808:	f022 0203 	bic.w	r2, r2, #3
 800680c:	605a      	str	r2, [r3, #4]
 800680e:	f240 329f 	movw	r2, #927	; 0x39f
 8006812:	601a      	str	r2, [r3, #0]
 8006814:	68d9      	ldr	r1, [r3, #12]
 8006816:	4a12      	ldr	r2, [pc, #72]	; (8006860 <HAL_ADC_DeInit+0x94>)
 8006818:	400a      	ands	r2, r1
 800681a:	60da      	str	r2, [r3, #12]
 800681c:	691a      	ldr	r2, [r3, #16]
 800681e:	f022 4240 	bic.w	r2, r2, #3221225472	; 0xc0000000
 8006822:	611a      	str	r2, [r3, #16]
 8006824:	695a      	ldr	r2, [r3, #20]
 8006826:	f022 0207 	bic.w	r2, r2, #7
 800682a:	615a      	str	r2, [r3, #20]
 800682c:	6a1a      	ldr	r2, [r3, #32]
 800682e:	f002 22f0 	and.w	r2, r2, #4026593280	; 0xf000f000
 8006832:	621a      	str	r2, [r3, #32]
 8006834:	6a9a      	ldr	r2, [r3, #40]	; 0x28
 8006836:	4a0b      	ldr	r2, [pc, #44]	; (8006864 <HAL_ADC_DeInit+0x98>)
 8006838:	2600      	movs	r6, #0
 800683a:	629e      	str	r6, [r3, #40]	; 0x28
 800683c:	f8d2 3708 	ldr.w	r3, [r2, #1800]	; 0x708
 8006840:	f023 73fe 	bic.w	r3, r3, #33292288	; 0x1fc0000
 8006844:	f8c2 3708 	str.w	r3, [r2, #1800]	; 0x708
 8006848:	4620      	mov	r0, r4
 800684a:	f7fb fc89 	bl	8002160 <HAL_ADC_MspDeInit>
 800684e:	65e6      	str	r6, [r4, #92]	; 0x5c
 8006850:	6626      	str	r6, [r4, #96]	; 0x60
 8006852:	65a6      	str	r6, [r4, #88]	; 0x58
 8006854:	f884 6054 	strb.w	r6, [r4, #84]	; 0x54
 8006858:	4628      	mov	r0, r5
 800685a:	bd70      	pop	{r4, r5, r6, pc}
 800685c:	2501      	movs	r5, #1
 800685e:	e7fb      	b.n	8006858 <HAL_ADC_DeInit+0x8c>
 8006860:	833e0200 	.word	0x833e0200
 8006864:	40012000 	.word	0x40012000

08006868 <HAL_ADC_Stop>:
 8006868:	b510      	push	{r4, lr}
 800686a:	f890 3054 	ldrb.w	r3, [r0, #84]	; 0x54
 800686e:	2b01      	cmp	r3, #1
 8006870:	4604      	mov	r4, r0
 8006872:	d015      	beq.n	80068a0 <HAL_ADC_Stop+0x38>
 8006874:	2301      	movs	r3, #1
 8006876:	f880 3054 	strb.w	r3, [r0, #84]	; 0x54
 800687a:	f7ff febd 	bl	80065f8 <ADC_ConversionStop>
 800687e:	b958      	cbnz	r0, 8006898 <HAL_ADC_Stop+0x30>
 8006880:	4620      	mov	r0, r4
 8006882:	f7ff ff6f 	bl	8006764 <ADC_Disable>
 8006886:	b938      	cbnz	r0, 8006898 <HAL_ADC_Stop+0x30>
 8006888:	6da3      	ldr	r3, [r4, #88]	; 0x58
 800688a:	f423 7380 	bic.w	r3, r3, #256	; 0x100
 800688e:	f023 0301 	bic.w	r3, r3, #1
 8006892:	f043 0301 	orr.w	r3, r3, #1
 8006896:	65a3      	str	r3, [r4, #88]	; 0x58
 8006898:	2300      	movs	r3, #0
 800689a:	f884 3054 	strb.w	r3, [r4, #84]	; 0x54
 800689e:	bd10      	pop	{r4, pc}
 80068a0:	2002      	movs	r0, #2
 80068a2:	e7fc      	b.n	800689e <HAL_ADC_Stop+0x36>

080068a4 <HAL_ADCEx_Calibration_Start>:
 80068a4:	b5f7      	push	{r0, r1, r2, r4, r5, r6, r7, lr}
 80068a6:	2300      	movs	r3, #0
 80068a8:	9301      	str	r3, [sp, #4]
 80068aa:	f890 3054 	ldrb.w	r3, [r0, #84]	; 0x54
 80068ae:	2b01      	cmp	r3, #1
 80068b0:	4604      	mov	r4, r0
 80068b2:	d07f      	beq.n	80069b4 <HAL_ADCEx_Calibration_Start+0x110>
 80068b4:	2301      	movs	r3, #1
 80068b6:	f880 3054 	strb.w	r3, [r0, #84]	; 0x54
 80068ba:	f7ff ff53 	bl	8006764 <ADC_Disable>
 80068be:	6823      	ldr	r3, [r4, #0]
 80068c0:	689a      	ldr	r2, [r3, #8]
 80068c2:	f012 0201 	ands.w	r2, r2, #1
 80068c6:	4605      	mov	r5, r0
 80068c8:	d170      	bne.n	80069ac <HAL_ADCEx_Calibration_Start+0x108>
 80068ca:	6da1      	ldr	r1, [r4, #88]	; 0x58
 80068cc:	4f3a      	ldr	r7, [pc, #232]	; (80069b8 <HAL_ADCEx_Calibration_Start+0x114>)
 80068ce:	f421 7181 	bic.w	r1, r1, #258	; 0x102
 80068d2:	f041 0102 	orr.w	r1, r1, #2
 80068d6:	65a1      	str	r1, [r4, #88]	; 0x58
 80068d8:	68de      	ldr	r6, [r3, #12]
 80068da:	68d9      	ldr	r1, [r3, #12]
 80068dc:	f421 4100 	bic.w	r1, r1, #32768	; 0x8000
 80068e0:	f021 0103 	bic.w	r1, r1, #3
 80068e4:	60d9      	str	r1, [r3, #12]
 80068e6:	2008      	movs	r0, #8
 80068e8:	6899      	ldr	r1, [r3, #8]
 80068ea:	4039      	ands	r1, r7
 80068ec:	f041 4100 	orr.w	r1, r1, #2147483648	; 0x80000000
 80068f0:	6099      	str	r1, [r3, #8]
 80068f2:	6899      	ldr	r1, [r3, #8]
 80068f4:	2900      	cmp	r1, #0
 80068f6:	da13      	bge.n	8006920 <HAL_ADCEx_Calibration_Start+0x7c>
 80068f8:	9901      	ldr	r1, [sp, #4]
 80068fa:	3101      	adds	r1, #1
 80068fc:	9101      	str	r1, [sp, #4]
 80068fe:	9901      	ldr	r1, [sp, #4]
 8006900:	f5b1 3f2e 	cmp.w	r1, #178176	; 0x2b800
 8006904:	d3f5      	bcc.n	80068f2 <HAL_ADCEx_Calibration_Start+0x4e>
 8006906:	6da3      	ldr	r3, [r4, #88]	; 0x58
 8006908:	f023 0312 	bic.w	r3, r3, #18
 800690c:	f043 0310 	orr.w	r3, r3, #16
 8006910:	65a3      	str	r3, [r4, #88]	; 0x58
 8006912:	2300      	movs	r3, #0
 8006914:	f884 3054 	strb.w	r3, [r4, #84]	; 0x54
 8006918:	2501      	movs	r5, #1
 800691a:	4628      	mov	r0, r5
 800691c:	b003      	add	sp, #12
 800691e:	bdf0      	pop	{r4, r5, r6, r7, pc}
 8006920:	f8d3 10b4 	ldr.w	r1, [r3, #180]	; 0xb4
 8006924:	3801      	subs	r0, #1
 8006926:	f001 017f 	and.w	r1, r1, #127	; 0x7f
 800692a:	440a      	add	r2, r1
 800692c:	d1dc      	bne.n	80068e8 <HAL_ADCEx_Calibration_Start+0x44>
 800692e:	6899      	ldr	r1, [r3, #8]
 8006930:	4821      	ldr	r0, [pc, #132]	; (80069b8 <HAL_ADCEx_Calibration_Start+0x114>)
 8006932:	4001      	ands	r1, r0
 8006934:	f041 0101 	orr.w	r1, r1, #1
 8006938:	6099      	str	r1, [r3, #8]
 800693a:	f8d3 10b4 	ldr.w	r1, [r3, #180]	; 0xb4
 800693e:	f021 017f 	bic.w	r1, r1, #127	; 0x7f
 8006942:	ea41 02d2 	orr.w	r2, r1, r2, lsr #3
 8006946:	f8c3 20b4 	str.w	r2, [r3, #180]	; 0xb4
 800694a:	689a      	ldr	r2, [r3, #8]
 800694c:	4002      	ands	r2, r0
 800694e:	f042 0202 	orr.w	r2, r2, #2
 8006952:	609a      	str	r2, [r3, #8]
 8006954:	f7ff f8f0 	bl	8005b38 <HAL_GetTick>
 8006958:	4607      	mov	r7, r0
 800695a:	6823      	ldr	r3, [r4, #0]
 800695c:	689a      	ldr	r2, [r3, #8]
 800695e:	07d2      	lsls	r2, r2, #31
 8006960:	d412      	bmi.n	8006988 <HAL_ADCEx_Calibration_Start+0xe4>
 8006962:	f426 46ff 	bic.w	r6, r6, #32640	; 0x7f80
 8006966:	f026 067c 	bic.w	r6, r6, #124	; 0x7c
 800696a:	68da      	ldr	r2, [r3, #12]
 800696c:	0436      	lsls	r6, r6, #16
 800696e:	0c36      	lsrs	r6, r6, #16
 8006970:	4316      	orrs	r6, r2
 8006972:	60de      	str	r6, [r3, #12]
 8006974:	6da3      	ldr	r3, [r4, #88]	; 0x58
 8006976:	f023 0303 	bic.w	r3, r3, #3
 800697a:	f043 0301 	orr.w	r3, r3, #1
 800697e:	65a3      	str	r3, [r4, #88]	; 0x58
 8006980:	2300      	movs	r3, #0
 8006982:	f884 3054 	strb.w	r3, [r4, #84]	; 0x54
 8006986:	e7c8      	b.n	800691a <HAL_ADCEx_Calibration_Start+0x76>
 8006988:	f7ff f8d6 	bl	8005b38 <HAL_GetTick>
 800698c:	1bc0      	subs	r0, r0, r7
 800698e:	2802      	cmp	r0, #2
 8006990:	d9e3      	bls.n	800695a <HAL_ADCEx_Calibration_Start+0xb6>
 8006992:	6823      	ldr	r3, [r4, #0]
 8006994:	689b      	ldr	r3, [r3, #8]
 8006996:	07d9      	lsls	r1, r3, #31
 8006998:	d5df      	bpl.n	800695a <HAL_ADCEx_Calibration_Start+0xb6>
 800699a:	6da3      	ldr	r3, [r4, #88]	; 0x58
 800699c:	f043 0310 	orr.w	r3, r3, #16
 80069a0:	65a3      	str	r3, [r4, #88]	; 0x58
 80069a2:	6de3      	ldr	r3, [r4, #92]	; 0x5c
 80069a4:	f043 0301 	orr.w	r3, r3, #1
 80069a8:	65e3      	str	r3, [r4, #92]	; 0x5c
 80069aa:	e7b5      	b.n	8006918 <HAL_ADCEx_Calibration_Start+0x74>
 80069ac:	6da3      	ldr	r3, [r4, #88]	; 0x58
 80069ae:	f043 0310 	orr.w	r3, r3, #16
 80069b2:	e7e4      	b.n	800697e <HAL_ADCEx_Calibration_Start+0xda>
 80069b4:	2502      	movs	r5, #2
 80069b6:	e7b0      	b.n	800691a <HAL_ADCEx_Calibration_Start+0x76>
 80069b8:	7fffffe8 	.word	0x7fffffe8

080069bc <HAL_NVIC_SetPriorityGrouping>:
 80069bc:	4907      	ldr	r1, [pc, #28]	; (80069dc <HAL_NVIC_SetPriorityGrouping+0x20>)
 80069be:	68ca      	ldr	r2, [r1, #12]
 80069c0:	f422 62e0 	bic.w	r2, r2, #1792	; 0x700
 80069c4:	0203      	lsls	r3, r0, #8
 80069c6:	0412      	lsls	r2, r2, #16
 80069c8:	f403 63e0 	and.w	r3, r3, #1792	; 0x700
 80069cc:	0c12      	lsrs	r2, r2, #16
 80069ce:	4313      	orrs	r3, r2
 80069d0:	f043 63bf 	orr.w	r3, r3, #100139008	; 0x5f80000
 80069d4:	f443 3300 	orr.w	r3, r3, #131072	; 0x20000
 80069d8:	60cb      	str	r3, [r1, #12]
 80069da:	4770      	bx	lr
 80069dc:	e000ed00 	.word	0xe000ed00

080069e0 <HAL_NVIC_SetPriority>:
 80069e0:	4b16      	ldr	r3, [pc, #88]	; (8006a3c <HAL_NVIC_SetPriority+0x5c>)
 80069e2:	b530      	push	{r4, r5, lr}
 80069e4:	68dc      	ldr	r4, [r3, #12]
 80069e6:	f3c4 2402 	ubfx	r4, r4, #8, #3
 80069ea:	f1c4 0307 	rsb	r3, r4, #7
 80069ee:	1d25      	adds	r5, r4, #4
 80069f0:	2b04      	cmp	r3, #4
 80069f2:	bf28      	it	cs
 80069f4:	2304      	movcs	r3, #4
 80069f6:	2d06      	cmp	r5, #6
 80069f8:	f04f 35ff 	mov.w	r5, #4294967295	; 0xffffffff
 80069fc:	fa05 f303 	lsl.w	r3, r5, r3
 8006a00:	bf8c      	ite	hi
 8006a02:	3c03      	subhi	r4, #3
 8006a04:	2400      	movls	r4, #0
 8006a06:	ea21 0303 	bic.w	r3, r1, r3
 8006a0a:	40a3      	lsls	r3, r4
 8006a0c:	fa05 f404 	lsl.w	r4, r5, r4
 8006a10:	ea22 0204 	bic.w	r2, r2, r4
 8006a14:	2800      	cmp	r0, #0
 8006a16:	ea43 0302 	orr.w	r3, r3, r2
 8006a1a:	bfac      	ite	ge
 8006a1c:	f100 4060 	addge.w	r0, r0, #3758096384	; 0xe0000000
 8006a20:	4a07      	ldrlt	r2, [pc, #28]	; (8006a40 <HAL_NVIC_SetPriority+0x60>)
 8006a22:	ea4f 1303 	mov.w	r3, r3, lsl #4
 8006a26:	bfb8      	it	lt
 8006a28:	f000 000f 	andlt.w	r0, r0, #15
 8006a2c:	b2db      	uxtb	r3, r3
 8006a2e:	bfaa      	itet	ge
 8006a30:	f500 4061 	addge.w	r0, r0, #57600	; 0xe100
 8006a34:	5413      	strblt	r3, [r2, r0]
 8006a36:	f880 3300 	strbge.w	r3, [r0, #768]	; 0x300
 8006a3a:	bd30      	pop	{r4, r5, pc}
 8006a3c:	e000ed00 	.word	0xe000ed00
 8006a40:	e000ed14 	.word	0xe000ed14

08006a44 <HAL_NVIC_EnableIRQ>:
 8006a44:	2800      	cmp	r0, #0
 8006a46:	db08      	blt.n	8006a5a <HAL_NVIC_EnableIRQ+0x16>
 8006a48:	2301      	movs	r3, #1
 8006a4a:	0942      	lsrs	r2, r0, #5
 8006a4c:	f000 001f 	and.w	r0, r0, #31
 8006a50:	fa03 f000 	lsl.w	r0, r3, r0
 8006a54:	4b01      	ldr	r3, [pc, #4]	; (8006a5c <HAL_NVIC_EnableIRQ+0x18>)
 8006a56:	f843 0022 	str.w	r0, [r3, r2, lsl #2]
 8006a5a:	4770      	bx	lr
 8006a5c:	e000e100 	.word	0xe000e100

08006a60 <HAL_GPIO_Init>:
 8006a60:	e92d 4ff0 	stmdb	sp!, {r4, r5, r6, r7, r8, r9, sl, fp, lr}
 8006a64:	4c52      	ldr	r4, [pc, #328]	; (8006bb0 <HAL_GPIO_Init+0x150>)
 8006a66:	2300      	movs	r3, #0
 8006a68:	f04f 090f 	mov.w	r9, #15
 8006a6c:	680a      	ldr	r2, [r1, #0]
 8006a6e:	fa32 f503 	lsrs.w	r5, r2, r3
 8006a72:	d101      	bne.n	8006a78 <HAL_GPIO_Init+0x18>
 8006a74:	e8bd 8ff0 	ldmia.w	sp!, {r4, r5, r6, r7, r8, r9, sl, fp, pc}
 8006a78:	2501      	movs	r5, #1
 8006a7a:	fa05 f803 	lsl.w	r8, r5, r3
 8006a7e:	ea18 0202 	ands.w	r2, r8, r2
 8006a82:	f000 808e 	beq.w	8006ba2 <HAL_GPIO_Init+0x142>
 8006a86:	684e      	ldr	r6, [r1, #4]
 8006a88:	2703      	movs	r7, #3
 8006a8a:	f006 0503 	and.w	r5, r6, #3
 8006a8e:	ea4f 0e43 	mov.w	lr, r3, lsl #1
 8006a92:	fa07 fc0e 	lsl.w	ip, r7, lr
 8006a96:	1e6f      	subs	r7, r5, #1
 8006a98:	2f01      	cmp	r7, #1
 8006a9a:	ea6f 0c0c 	mvn.w	ip, ip
 8006a9e:	d832      	bhi.n	8006b06 <HAL_GPIO_Init+0xa6>
 8006aa0:	6887      	ldr	r7, [r0, #8]
 8006aa2:	ea07 0a0c 	and.w	sl, r7, ip
 8006aa6:	68cf      	ldr	r7, [r1, #12]
 8006aa8:	fa07 f70e 	lsl.w	r7, r7, lr
 8006aac:	ea47 070a 	orr.w	r7, r7, sl
 8006ab0:	6087      	str	r7, [r0, #8]
 8006ab2:	6847      	ldr	r7, [r0, #4]
 8006ab4:	ea27 0808 	bic.w	r8, r7, r8
 8006ab8:	f3c6 1700 	ubfx	r7, r6, #4, #1
 8006abc:	409f      	lsls	r7, r3
 8006abe:	ea47 0708 	orr.w	r7, r7, r8
 8006ac2:	6047      	str	r7, [r0, #4]
 8006ac4:	68c7      	ldr	r7, [r0, #12]
 8006ac6:	ea07 080c 	and.w	r8, r7, ip
 8006aca:	688f      	ldr	r7, [r1, #8]
 8006acc:	fa07 f70e 	lsl.w	r7, r7, lr
 8006ad0:	ea47 0708 	orr.w	r7, r7, r8
 8006ad4:	2d02      	cmp	r5, #2
 8006ad6:	60c7      	str	r7, [r0, #12]
 8006ad8:	d117      	bne.n	8006b0a <HAL_GPIO_Init+0xaa>
 8006ada:	ea4f 08d3 	mov.w	r8, r3, lsr #3
 8006ade:	eb00 0888 	add.w	r8, r0, r8, lsl #2
 8006ae2:	f003 0a07 	and.w	sl, r3, #7
 8006ae6:	f8d8 7020 	ldr.w	r7, [r8, #32]
 8006aea:	ea4f 0a8a 	mov.w	sl, sl, lsl #2
 8006aee:	fa09 fb0a 	lsl.w	fp, r9, sl
 8006af2:	ea27 0b0b 	bic.w	fp, r7, fp
 8006af6:	690f      	ldr	r7, [r1, #16]
 8006af8:	fa07 f70a 	lsl.w	r7, r7, sl
 8006afc:	ea47 070b 	orr.w	r7, r7, fp
 8006b00:	f8c8 7020 	str.w	r7, [r8, #32]
 8006b04:	e001      	b.n	8006b0a <HAL_GPIO_Init+0xaa>
 8006b06:	2d03      	cmp	r5, #3
 8006b08:	d1dc      	bne.n	8006ac4 <HAL_GPIO_Init+0x64>
 8006b0a:	6807      	ldr	r7, [r0, #0]
 8006b0c:	fa05 f50e 	lsl.w	r5, r5, lr
 8006b10:	ea07 070c 	and.w	r7, r7, ip
 8006b14:	432f      	orrs	r7, r5
 8006b16:	f416 3f40 	tst.w	r6, #196608	; 0x30000
 8006b1a:	6007      	str	r7, [r0, #0]
 8006b1c:	d041      	beq.n	8006ba2 <HAL_GPIO_Init+0x142>
 8006b1e:	f023 0703 	bic.w	r7, r3, #3
 8006b22:	f107 4780 	add.w	r7, r7, #1073741824	; 0x40000000
 8006b26:	f507 3780 	add.w	r7, r7, #65536	; 0x10000
 8006b2a:	f003 0c03 	and.w	ip, r3, #3
 8006b2e:	68bd      	ldr	r5, [r7, #8]
 8006b30:	ea4f 0c8c 	mov.w	ip, ip, lsl #2
 8006b34:	f04f 0e07 	mov.w	lr, #7
 8006b38:	fa0e fe0c 	lsl.w	lr, lr, ip
 8006b3c:	f1b0 4f90 	cmp.w	r0, #1207959552	; 0x48000000
 8006b40:	ea25 0e0e 	bic.w	lr, r5, lr
 8006b44:	d02f      	beq.n	8006ba6 <HAL_GPIO_Init+0x146>
 8006b46:	4d1b      	ldr	r5, [pc, #108]	; (8006bb4 <HAL_GPIO_Init+0x154>)
 8006b48:	42a8      	cmp	r0, r5
 8006b4a:	d02e      	beq.n	8006baa <HAL_GPIO_Init+0x14a>
 8006b4c:	f505 6580 	add.w	r5, r5, #1024	; 0x400
 8006b50:	42a8      	cmp	r0, r5
 8006b52:	bf0c      	ite	eq
 8006b54:	2502      	moveq	r5, #2
 8006b56:	2507      	movne	r5, #7
 8006b58:	fa05 f50c 	lsl.w	r5, r5, ip
 8006b5c:	ea45 050e 	orr.w	r5, r5, lr
 8006b60:	60bd      	str	r5, [r7, #8]
 8006b62:	6825      	ldr	r5, [r4, #0]
 8006b64:	43d7      	mvns	r7, r2
 8006b66:	f416 1f80 	tst.w	r6, #1048576	; 0x100000
 8006b6a:	bf0c      	ite	eq
 8006b6c:	403d      	andeq	r5, r7
 8006b6e:	4315      	orrne	r5, r2
 8006b70:	6025      	str	r5, [r4, #0]
 8006b72:	6865      	ldr	r5, [r4, #4]
 8006b74:	f416 1f00 	tst.w	r6, #2097152	; 0x200000
 8006b78:	bf0c      	ite	eq
 8006b7a:	403d      	andeq	r5, r7
 8006b7c:	4315      	orrne	r5, r2
 8006b7e:	6065      	str	r5, [r4, #4]
 8006b80:	f8d4 5080 	ldr.w	r5, [r4, #128]	; 0x80
 8006b84:	f416 3f80 	tst.w	r6, #65536	; 0x10000
 8006b88:	bf0c      	ite	eq
 8006b8a:	403d      	andeq	r5, r7
 8006b8c:	4315      	orrne	r5, r2
 8006b8e:	f8c4 5080 	str.w	r5, [r4, #128]	; 0x80
 8006b92:	f8d4 5084 	ldr.w	r5, [r4, #132]	; 0x84
 8006b96:	03b6      	lsls	r6, r6, #14
 8006b98:	bf54      	ite	pl
 8006b9a:	403d      	andpl	r5, r7
 8006b9c:	4315      	orrmi	r5, r2
 8006b9e:	f8c4 5084 	str.w	r5, [r4, #132]	; 0x84
 8006ba2:	3301      	adds	r3, #1
 8006ba4:	e762      	b.n	8006a6c <HAL_GPIO_Init+0xc>
 8006ba6:	2500      	movs	r5, #0
 8006ba8:	e7d6      	b.n	8006b58 <HAL_GPIO_Init+0xf8>
 8006baa:	2501      	movs	r5, #1
 8006bac:	e7d4      	b.n	8006b58 <HAL_GPIO_Init+0xf8>
 8006bae:	bf00      	nop
 8006bb0:	58000800 	.word	0x58000800
 8006bb4:	48000400 	.word	0x48000400

08006bb8 <HAL_GPIO_DeInit>:
 8006bb8:	4a37      	ldr	r2, [pc, #220]	; (8006c98 <HAL_GPIO_DeInit+0xe0>)
 8006bba:	e92d 4ff0 	stmdb	sp!, {r4, r5, r6, r7, r8, r9, sl, fp, lr}
 8006bbe:	2300      	movs	r3, #0
 8006bc0:	f04f 0a01 	mov.w	sl, #1
 8006bc4:	f04f 0b07 	mov.w	fp, #7
 8006bc8:	f04f 090f 	mov.w	r9, #15
 8006bcc:	fa31 f403 	lsrs.w	r4, r1, r3
 8006bd0:	d101      	bne.n	8006bd6 <HAL_GPIO_DeInit+0x1e>
 8006bd2:	e8bd 8ff0 	ldmia.w	sp!, {r4, r5, r6, r7, r8, r9, sl, fp, pc}
 8006bd6:	fa0a fc03 	lsl.w	ip, sl, r3
 8006bda:	ea1c 0601 	ands.w	r6, ip, r1
 8006bde:	d054      	beq.n	8006c8a <HAL_GPIO_DeInit+0xd2>
 8006be0:	f023 0403 	bic.w	r4, r3, #3
 8006be4:	f104 4480 	add.w	r4, r4, #1073741824	; 0x40000000
 8006be8:	f504 3480 	add.w	r4, r4, #65536	; 0x10000
 8006bec:	f003 0703 	and.w	r7, r3, #3
 8006bf0:	68a5      	ldr	r5, [r4, #8]
 8006bf2:	00bf      	lsls	r7, r7, #2
 8006bf4:	fa0b f807 	lsl.w	r8, fp, r7
 8006bf8:	f1b0 4f90 	cmp.w	r0, #1207959552	; 0x48000000
 8006bfc:	ea08 0e05 	and.w	lr, r8, r5
 8006c00:	d045      	beq.n	8006c8e <HAL_GPIO_DeInit+0xd6>
 8006c02:	4d26      	ldr	r5, [pc, #152]	; (8006c9c <HAL_GPIO_DeInit+0xe4>)
 8006c04:	42a8      	cmp	r0, r5
 8006c06:	d044      	beq.n	8006c92 <HAL_GPIO_DeInit+0xda>
 8006c08:	f505 6580 	add.w	r5, r5, #1024	; 0x400
 8006c0c:	42a8      	cmp	r0, r5
 8006c0e:	bf0c      	ite	eq
 8006c10:	2502      	moveq	r5, #2
 8006c12:	2507      	movne	r5, #7
 8006c14:	40bd      	lsls	r5, r7
 8006c16:	4575      	cmp	r5, lr
 8006c18:	d117      	bne.n	8006c4a <HAL_GPIO_DeInit+0x92>
 8006c1a:	f8d2 5080 	ldr.w	r5, [r2, #128]	; 0x80
 8006c1e:	ea25 0506 	bic.w	r5, r5, r6
 8006c22:	f8c2 5080 	str.w	r5, [r2, #128]	; 0x80
 8006c26:	f8d2 5084 	ldr.w	r5, [r2, #132]	; 0x84
 8006c2a:	ea25 0506 	bic.w	r5, r5, r6
 8006c2e:	f8c2 5084 	str.w	r5, [r2, #132]	; 0x84
 8006c32:	6815      	ldr	r5, [r2, #0]
 8006c34:	ea25 0506 	bic.w	r5, r5, r6
 8006c38:	6015      	str	r5, [r2, #0]
 8006c3a:	6855      	ldr	r5, [r2, #4]
 8006c3c:	ea25 0506 	bic.w	r5, r5, r6
 8006c40:	6055      	str	r5, [r2, #4]
 8006c42:	68a5      	ldr	r5, [r4, #8]
 8006c44:	ea25 0508 	bic.w	r5, r5, r8
 8006c48:	60a5      	str	r5, [r4, #8]
 8006c4a:	6805      	ldr	r5, [r0, #0]
 8006c4c:	2603      	movs	r6, #3
 8006c4e:	005c      	lsls	r4, r3, #1
 8006c50:	fa06 f404 	lsl.w	r4, r6, r4
 8006c54:	fa23 f606 	lsr.w	r6, r3, r6
 8006c58:	4325      	orrs	r5, r4
 8006c5a:	eb00 0686 	add.w	r6, r0, r6, lsl #2
 8006c5e:	6005      	str	r5, [r0, #0]
 8006c60:	f003 0507 	and.w	r5, r3, #7
 8006c64:	6a37      	ldr	r7, [r6, #32]
 8006c66:	00ad      	lsls	r5, r5, #2
 8006c68:	fa09 f505 	lsl.w	r5, r9, r5
 8006c6c:	ea27 0505 	bic.w	r5, r7, r5
 8006c70:	6235      	str	r5, [r6, #32]
 8006c72:	6885      	ldr	r5, [r0, #8]
 8006c74:	ea25 0504 	bic.w	r5, r5, r4
 8006c78:	6085      	str	r5, [r0, #8]
 8006c7a:	6845      	ldr	r5, [r0, #4]
 8006c7c:	ea25 050c 	bic.w	r5, r5, ip
 8006c80:	6045      	str	r5, [r0, #4]
 8006c82:	68c5      	ldr	r5, [r0, #12]
 8006c84:	ea25 0404 	bic.w	r4, r5, r4
 8006c88:	60c4      	str	r4, [r0, #12]
 8006c8a:	3301      	adds	r3, #1
 8006c8c:	e79e      	b.n	8006bcc <HAL_GPIO_DeInit+0x14>
 8006c8e:	2500      	movs	r5, #0
 8006c90:	e7c0      	b.n	8006c14 <HAL_GPIO_DeInit+0x5c>
 8006c92:	2501      	movs	r5, #1
 8006c94:	e7be      	b.n	8006c14 <HAL_GPIO_DeInit+0x5c>
 8006c96:	bf00      	nop
 8006c98:	58000800 	.word	0x58000800
 8006c9c:	48000400 	.word	0x48000400

08006ca0 <HAL_GPIO_WritePin>:
 8006ca0:	b10a      	cbz	r2, 8006ca6 <HAL_GPIO_WritePin+0x6>
 8006ca2:	6181      	str	r1, [r0, #24]
 8006ca4:	4770      	bx	lr
 8006ca6:	6281      	str	r1, [r0, #40]	; 0x28
 8006ca8:	4770      	bx	lr
	...

08006cac <HAL_GPIO_EXTI_IRQHandler>:
 8006cac:	4a04      	ldr	r2, [pc, #16]	; (8006cc0 <HAL_GPIO_EXTI_IRQHandler+0x14>)
 8006cae:	68d1      	ldr	r1, [r2, #12]
 8006cb0:	4201      	tst	r1, r0
 8006cb2:	b508      	push	{r3, lr}
 8006cb4:	d002      	beq.n	8006cbc <HAL_GPIO_EXTI_IRQHandler+0x10>
 8006cb6:	60d0      	str	r0, [r2, #12]
 8006cb8:	f004 f922 	bl	800af00 <HAL_GPIO_EXTI_Callback>
 8006cbc:	bd08      	pop	{r3, pc}
 8006cbe:	bf00      	nop
 8006cc0:	58000800 	.word	0x58000800

08006cc4 <HAL_PWR_EnableBkUpAccess>:
 8006cc4:	4a02      	ldr	r2, [pc, #8]	; (8006cd0 <HAL_PWR_EnableBkUpAccess+0xc>)
 8006cc6:	6813      	ldr	r3, [r2, #0]
 8006cc8:	f443 7380 	orr.w	r3, r3, #256	; 0x100
 8006ccc:	6013      	str	r3, [r2, #0]
 8006cce:	4770      	bx	lr
 8006cd0:	58000400 	.word	0x58000400

08006cd4 <HAL_PWREx_GetVoltageRange>:
 8006cd4:	4b02      	ldr	r3, [pc, #8]	; (8006ce0 <HAL_PWREx_GetVoltageRange+0xc>)
 8006cd6:	6818      	ldr	r0, [r3, #0]
 8006cd8:	f400 60c0 	and.w	r0, r0, #1536	; 0x600
 8006cdc:	4770      	bx	lr
 8006cde:	bf00      	nop
 8006ce0:	58000400 	.word	0x58000400

08006ce4 <LL_RCC_HSE_IsReady>:
 8006ce4:	f04f 43b0 	mov.w	r3, #1476395008	; 0x58000000
 8006ce8:	6818      	ldr	r0, [r3, #0]
 8006cea:	f3c0 4040 	ubfx	r0, r0, #17, #1
 8006cee:	4770      	bx	lr

08006cf0 <LL_RCC_HSI_IsReady>:
 8006cf0:	f04f 43b0 	mov.w	r3, #1476395008	; 0x58000000
 8006cf4:	6818      	ldr	r0, [r3, #0]
 8006cf6:	f3c0 2080 	ubfx	r0, r0, #10, #1
 8006cfa:	4770      	bx	lr

08006cfc <LL_RCC_MSI_IsReady>:
 8006cfc:	f04f 43b0 	mov.w	r3, #1476395008	; 0x58000000
 8006d00:	6818      	ldr	r0, [r3, #0]
 8006d02:	f3c0 0040 	ubfx	r0, r0, #1, #1
 8006d06:	4770      	bx	lr

08006d08 <LL_RCC_MSI_SetCalibTrimming>:
 8006d08:	f04f 42b0 	mov.w	r2, #1476395008	; 0x58000000
 8006d0c:	6853      	ldr	r3, [r2, #4]
 8006d0e:	f423 437f 	bic.w	r3, r3, #65280	; 0xff00
 8006d12:	ea43 2300 	orr.w	r3, r3, r0, lsl #8
 8006d16:	6053      	str	r3, [r2, #4]
 8006d18:	4770      	bx	lr

08006d1a <LL_RCC_PLL_IsReady>:
 8006d1a:	f04f 43b0 	mov.w	r3, #1476395008	; 0x58000000
 8006d1e:	6818      	ldr	r0, [r3, #0]
 8006d20:	f3c0 6040 	ubfx	r0, r0, #25, #1
 8006d24:	4770      	bx	lr
	...

08006d28 <RCC_SetFlashLatencyFromMSIRange>:
 8006d28:	b57f      	push	{r0, r1, r2, r3, r4, r5, r6, lr}
 8006d2a:	f04f 43b0 	mov.w	r3, #1476395008	; 0x58000000
 8006d2e:	4a2c      	ldr	r2, [pc, #176]	; (8006de0 <RCC_SetFlashLatencyFromMSIRange+0xb8>)
 8006d30:	f8d3 3108 	ldr.w	r3, [r3, #264]	; 0x108
 8006d34:	f3c0 1003 	ubfx	r0, r0, #4, #4
 8006d38:	f003 030f 	and.w	r3, r3, #15
 8006d3c:	f852 4020 	ldr.w	r4, [r2, r0, lsl #2]
 8006d40:	4a28      	ldr	r2, [pc, #160]	; (8006de4 <RCC_SetFlashLatencyFromMSIRange+0xbc>)
 8006d42:	f852 3023 	ldr.w	r3, [r2, r3, lsl #2]
 8006d46:	fbb4 f4f3 	udiv	r4, r4, r3
 8006d4a:	f7ff ffc3 	bl	8006cd4 <HAL_PWREx_GetVoltageRange>
 8006d4e:	4b26      	ldr	r3, [pc, #152]	; (8006de8 <RCC_SetFlashLatencyFromMSIRange+0xc0>)
 8006d50:	4605      	mov	r5, r0
 8006d52:	e893 0007 	ldmia.w	r3, {r0, r1, r2}
 8006d56:	f5b5 7f00 	cmp.w	r5, #512	; 0x200
 8006d5a:	ab04      	add	r3, sp, #16
 8006d5c:	e903 0007 	stmdb	r3, {r0, r1, r2}
 8006d60:	d010      	beq.n	8006d84 <RCC_SetFlashLatencyFromMSIRange+0x5c>
 8006d62:	4b22      	ldr	r3, [pc, #136]	; (8006dec <RCC_SetFlashLatencyFromMSIRange+0xc4>)
 8006d64:	429c      	cmp	r4, r3
 8006d66:	d318      	bcc.n	8006d9a <RCC_SetFlashLatencyFromMSIRange+0x72>
 8006d68:	f503 03b7 	add.w	r3, r3, #5996544	; 0x5b8000
 8006d6c:	f603 537f 	addw	r3, r3, #3455	; 0xd7f
 8006d70:	429c      	cmp	r4, r3
 8006d72:	d929      	bls.n	8006dc8 <RCC_SetFlashLatencyFromMSIRange+0xa0>
 8006d74:	f503 1374 	add.w	r3, r3, #3997696	; 0x3d0000
 8006d78:	f503 6310 	add.w	r3, r3, #2304	; 0x900
 8006d7c:	429c      	cmp	r4, r3
 8006d7e:	d825      	bhi.n	8006dcc <RCC_SetFlashLatencyFromMSIRange+0xa4>
 8006d80:	2302      	movs	r3, #2
 8006d82:	e00b      	b.n	8006d9c <RCC_SetFlashLatencyFromMSIRange+0x74>
 8006d84:	4b1a      	ldr	r3, [pc, #104]	; (8006df0 <RCC_SetFlashLatencyFromMSIRange+0xc8>)
 8006d86:	429c      	cmp	r4, r3
 8006d88:	d907      	bls.n	8006d9a <RCC_SetFlashLatencyFromMSIRange+0x72>
 8006d8a:	4b1a      	ldr	r3, [pc, #104]	; (8006df4 <RCC_SetFlashLatencyFromMSIRange+0xcc>)
 8006d8c:	429c      	cmp	r4, r3
 8006d8e:	d91b      	bls.n	8006dc8 <RCC_SetFlashLatencyFromMSIRange+0xa0>
 8006d90:	f503 0337 	add.w	r3, r3, #11993088	; 0xb70000
 8006d94:	f503 53d8 	add.w	r3, r3, #6912	; 0x1b00
 8006d98:	e7f0      	b.n	8006d7c <RCC_SetFlashLatencyFromMSIRange+0x54>
 8006d9a:	2300      	movs	r3, #0
 8006d9c:	aa04      	add	r2, sp, #16
 8006d9e:	eb02 0383 	add.w	r3, r2, r3, lsl #2
 8006da2:	f853 4c0c 	ldr.w	r4, [r3, #-12]
 8006da6:	4d14      	ldr	r5, [pc, #80]	; (8006df8 <RCC_SetFlashLatencyFromMSIRange+0xd0>)
 8006da8:	682b      	ldr	r3, [r5, #0]
 8006daa:	f023 0307 	bic.w	r3, r3, #7
 8006dae:	4323      	orrs	r3, r4
 8006db0:	602b      	str	r3, [r5, #0]
 8006db2:	f7fe fec1 	bl	8005b38 <HAL_GetTick>
 8006db6:	4606      	mov	r6, r0
 8006db8:	682b      	ldr	r3, [r5, #0]
 8006dba:	f003 0307 	and.w	r3, r3, #7
 8006dbe:	429c      	cmp	r4, r3
 8006dc0:	d106      	bne.n	8006dd0 <RCC_SetFlashLatencyFromMSIRange+0xa8>
 8006dc2:	2000      	movs	r0, #0
 8006dc4:	b004      	add	sp, #16
 8006dc6:	bd70      	pop	{r4, r5, r6, pc}
 8006dc8:	2301      	movs	r3, #1
 8006dca:	e7e7      	b.n	8006d9c <RCC_SetFlashLatencyFromMSIRange+0x74>
 8006dcc:	2400      	movs	r4, #0
 8006dce:	e7ea      	b.n	8006da6 <RCC_SetFlashLatencyFromMSIRange+0x7e>
 8006dd0:	f7fe feb2 	bl	8005b38 <HAL_GetTick>
 8006dd4:	1b80      	subs	r0, r0, r6
 8006dd6:	2802      	cmp	r0, #2
 8006dd8:	d9ee      	bls.n	8006db8 <RCC_SetFlashLatencyFromMSIRange+0x90>
 8006dda:	2003      	movs	r0, #3
 8006ddc:	e7f2      	b.n	8006dc4 <RCC_SetFlashLatencyFromMSIRange+0x9c>
 8006dde:	bf00      	nop
 8006de0:	08010d60 	.word	0x08010d60
 8006de4:	08010d00 	.word	0x08010d00
 8006de8:	0800e848 	.word	0x0800e848
 8006dec:	006acfc0 	.word	0x006acfc0
 8006df0:	0121eabf 	.word	0x0121eabf
 8006df4:	0234933f 	.word	0x0234933f
 8006df8:	58004000 	.word	0x58004000

08006dfc <HAL_RCC_GetSysClockFreq>:
 8006dfc:	f04f 43b0 	mov.w	r3, #1476395008	; 0x58000000
 8006e00:	b510      	push	{r4, lr}
 8006e02:	689a      	ldr	r2, [r3, #8]
 8006e04:	68d9      	ldr	r1, [r3, #12]
 8006e06:	f012 020c 	ands.w	r2, r2, #12
 8006e0a:	d005      	beq.n	8006e18 <HAL_RCC_GetSysClockFreq+0x1c>
 8006e0c:	2a0c      	cmp	r2, #12
 8006e0e:	d14a      	bne.n	8006ea6 <HAL_RCC_GetSysClockFreq+0xaa>
 8006e10:	f001 0303 	and.w	r3, r1, #3
 8006e14:	2b01      	cmp	r3, #1
 8006e16:	d150      	bne.n	8006eba <HAL_RCC_GetSysClockFreq+0xbe>
 8006e18:	f04f 41b0 	mov.w	r1, #1476395008	; 0x58000000
 8006e1c:	482b      	ldr	r0, [pc, #172]	; (8006ecc <HAL_RCC_GetSysClockFreq+0xd0>)
 8006e1e:	680b      	ldr	r3, [r1, #0]
 8006e20:	f013 0308 	ands.w	r3, r3, #8
 8006e24:	d006      	beq.n	8006e34 <HAL_RCC_GetSysClockFreq+0x38>
 8006e26:	680b      	ldr	r3, [r1, #0]
 8006e28:	f013 0308 	ands.w	r3, r3, #8
 8006e2c:	d137      	bne.n	8006e9e <HAL_RCC_GetSysClockFreq+0xa2>
 8006e2e:	f8d1 1094 	ldr.w	r1, [r1, #148]	; 0x94
 8006e32:	e007      	b.n	8006e44 <HAL_RCC_GetSysClockFreq+0x48>
 8006e34:	680c      	ldr	r4, [r1, #0]
 8006e36:	0724      	lsls	r4, r4, #28
 8006e38:	bf56      	itet	pl
 8006e3a:	f8d1 3094 	ldrpl.w	r3, [r1, #148]	; 0x94
 8006e3e:	6809      	ldrmi	r1, [r1, #0]
 8006e40:	f3c3 2303 	ubfxpl	r3, r3, #8, #4
 8006e44:	f850 3023 	ldr.w	r3, [r0, r3, lsl #2]
 8006e48:	2a00      	cmp	r2, #0
 8006e4a:	bf0c      	ite	eq
 8006e4c:	4618      	moveq	r0, r3
 8006e4e:	2000      	movne	r0, #0
 8006e50:	f04f 41b0 	mov.w	r1, #1476395008	; 0x58000000
 8006e54:	688a      	ldr	r2, [r1, #8]
 8006e56:	f002 020c 	and.w	r2, r2, #12
 8006e5a:	2a0c      	cmp	r2, #12
 8006e5c:	d11e      	bne.n	8006e9c <HAL_RCC_GetSysClockFreq+0xa0>
 8006e5e:	68ca      	ldr	r2, [r1, #12]
 8006e60:	f002 0203 	and.w	r2, r2, #3
 8006e64:	2a02      	cmp	r2, #2
 8006e66:	d02e      	beq.n	8006ec6 <HAL_RCC_GetSysClockFreq+0xca>
 8006e68:	2a03      	cmp	r2, #3
 8006e6a:	d106      	bne.n	8006e7a <HAL_RCC_GetSysClockFreq+0x7e>
 8006e6c:	680b      	ldr	r3, [r1, #0]
 8006e6e:	4a18      	ldr	r2, [pc, #96]	; (8006ed0 <HAL_RCC_GetSysClockFreq+0xd4>)
 8006e70:	f413 1f80 	tst.w	r3, #1048576	; 0x100000
 8006e74:	4b17      	ldr	r3, [pc, #92]	; (8006ed4 <HAL_RCC_GetSysClockFreq+0xd8>)
 8006e76:	bf18      	it	ne
 8006e78:	4613      	movne	r3, r2
 8006e7a:	f04f 42b0 	mov.w	r2, #1476395008	; 0x58000000
 8006e7e:	68d0      	ldr	r0, [r2, #12]
 8006e80:	68d1      	ldr	r1, [r2, #12]
 8006e82:	68d2      	ldr	r2, [r2, #12]
 8006e84:	f3c0 2006 	ubfx	r0, r0, #8, #7
 8006e88:	4358      	muls	r0, r3
 8006e8a:	f3c1 1302 	ubfx	r3, r1, #4, #3
 8006e8e:	3301      	adds	r3, #1
 8006e90:	fbb0 f0f3 	udiv	r0, r0, r3
 8006e94:	0f53      	lsrs	r3, r2, #29
 8006e96:	3301      	adds	r3, #1
 8006e98:	fbb0 f0f3 	udiv	r0, r0, r3
 8006e9c:	bd10      	pop	{r4, pc}
 8006e9e:	680b      	ldr	r3, [r1, #0]
 8006ea0:	f3c3 1303 	ubfx	r3, r3, #4, #4
 8006ea4:	e7ce      	b.n	8006e44 <HAL_RCC_GetSysClockFreq+0x48>
 8006ea6:	2a04      	cmp	r2, #4
 8006ea8:	d00a      	beq.n	8006ec0 <HAL_RCC_GetSysClockFreq+0xc4>
 8006eaa:	2a08      	cmp	r2, #8
 8006eac:	d105      	bne.n	8006eba <HAL_RCC_GetSysClockFreq+0xbe>
 8006eae:	681b      	ldr	r3, [r3, #0]
 8006eb0:	f413 1380 	ands.w	r3, r3, #1048576	; 0x100000
 8006eb4:	d104      	bne.n	8006ec0 <HAL_RCC_GetSysClockFreq+0xc4>
 8006eb6:	4807      	ldr	r0, [pc, #28]	; (8006ed4 <HAL_RCC_GetSysClockFreq+0xd8>)
 8006eb8:	e7ca      	b.n	8006e50 <HAL_RCC_GetSysClockFreq+0x54>
 8006eba:	2300      	movs	r3, #0
 8006ebc:	4618      	mov	r0, r3
 8006ebe:	e7c7      	b.n	8006e50 <HAL_RCC_GetSysClockFreq+0x54>
 8006ec0:	4803      	ldr	r0, [pc, #12]	; (8006ed0 <HAL_RCC_GetSysClockFreq+0xd4>)
 8006ec2:	2300      	movs	r3, #0
 8006ec4:	e7c4      	b.n	8006e50 <HAL_RCC_GetSysClockFreq+0x54>
 8006ec6:	4b02      	ldr	r3, [pc, #8]	; (8006ed0 <HAL_RCC_GetSysClockFreq+0xd4>)
 8006ec8:	e7d7      	b.n	8006e7a <HAL_RCC_GetSysClockFreq+0x7e>
 8006eca:	bf00      	nop
 8006ecc:	08010d60 	.word	0x08010d60
 8006ed0:	00f42400 	.word	0x00f42400
 8006ed4:	01e84800 	.word	0x01e84800

08006ed8 <HAL_RCC_GetHCLKFreq>:
 8006ed8:	b508      	push	{r3, lr}
 8006eda:	f7ff ff8f 	bl	8006dfc <HAL_RCC_GetSysClockFreq>
 8006ede:	f04f 43b0 	mov.w	r3, #1476395008	; 0x58000000
 8006ee2:	4a04      	ldr	r2, [pc, #16]	; (8006ef4 <HAL_RCC_GetHCLKFreq+0x1c>)
 8006ee4:	689b      	ldr	r3, [r3, #8]
 8006ee6:	f3c3 1303 	ubfx	r3, r3, #4, #4
 8006eea:	f852 3023 	ldr.w	r3, [r2, r3, lsl #2]
 8006eee:	fbb0 f0f3 	udiv	r0, r0, r3
 8006ef2:	bd08      	pop	{r3, pc}
 8006ef4:	08010d00 	.word	0x08010d00

08006ef8 <HAL_RCC_OscConfig>:
 8006ef8:	e92d 41f0 	stmdb	sp!, {r4, r5, r6, r7, r8, lr}
 8006efc:	4604      	mov	r4, r0
 8006efe:	2800      	cmp	r0, #0
 8006f00:	d055      	beq.n	8006fae <HAL_RCC_OscConfig+0xb6>
 8006f02:	f04f 43b0 	mov.w	r3, #1476395008	; 0x58000000
 8006f06:	689d      	ldr	r5, [r3, #8]
 8006f08:	68de      	ldr	r6, [r3, #12]
 8006f0a:	6803      	ldr	r3, [r0, #0]
 8006f0c:	0699      	lsls	r1, r3, #26
 8006f0e:	f005 050c 	and.w	r5, r5, #12
 8006f12:	f006 0603 	and.w	r6, r6, #3
 8006f16:	d56b      	bpl.n	8006ff0 <HAL_RCC_OscConfig+0xf8>
 8006f18:	b11d      	cbz	r5, 8006f22 <HAL_RCC_OscConfig+0x2a>
 8006f1a:	2d0c      	cmp	r5, #12
 8006f1c:	d149      	bne.n	8006fb2 <HAL_RCC_OscConfig+0xba>
 8006f1e:	2e01      	cmp	r6, #1
 8006f20:	d147      	bne.n	8006fb2 <HAL_RCC_OscConfig+0xba>
 8006f22:	f7ff feeb 	bl	8006cfc <LL_RCC_MSI_IsReady>
 8006f26:	b110      	cbz	r0, 8006f2e <HAL_RCC_OscConfig+0x36>
 8006f28:	6a23      	ldr	r3, [r4, #32]
 8006f2a:	2b00      	cmp	r3, #0
 8006f2c:	d03f      	beq.n	8006fae <HAL_RCC_OscConfig+0xb6>
 8006f2e:	f04f 43b0 	mov.w	r3, #1476395008	; 0x58000000
 8006f32:	6aa0      	ldr	r0, [r4, #40]	; 0x28
 8006f34:	681a      	ldr	r2, [r3, #0]
 8006f36:	0712      	lsls	r2, r2, #28
 8006f38:	bf56      	itet	pl
 8006f3a:	f8d3 3094 	ldrpl.w	r3, [r3, #148]	; 0x94
 8006f3e:	681b      	ldrmi	r3, [r3, #0]
 8006f40:	091b      	lsrpl	r3, r3, #4
 8006f42:	f003 03f0 	and.w	r3, r3, #240	; 0xf0
 8006f46:	4298      	cmp	r0, r3
 8006f48:	d91e      	bls.n	8006f88 <HAL_RCC_OscConfig+0x90>
 8006f4a:	f7ff feed 	bl	8006d28 <RCC_SetFlashLatencyFromMSIRange>
 8006f4e:	2800      	cmp	r0, #0
 8006f50:	d12d      	bne.n	8006fae <HAL_RCC_OscConfig+0xb6>
 8006f52:	f04f 42b0 	mov.w	r2, #1476395008	; 0x58000000
 8006f56:	6813      	ldr	r3, [r2, #0]
 8006f58:	f043 0308 	orr.w	r3, r3, #8
 8006f5c:	6013      	str	r3, [r2, #0]
 8006f5e:	6813      	ldr	r3, [r2, #0]
 8006f60:	6aa1      	ldr	r1, [r4, #40]	; 0x28
 8006f62:	f023 03f0 	bic.w	r3, r3, #240	; 0xf0
 8006f66:	430b      	orrs	r3, r1
 8006f68:	6013      	str	r3, [r2, #0]
 8006f6a:	6a60      	ldr	r0, [r4, #36]	; 0x24
 8006f6c:	f7ff fecc 	bl	8006d08 <LL_RCC_MSI_SetCalibTrimming>
 8006f70:	f7ff ffb2 	bl	8006ed8 <HAL_RCC_GetHCLKFreq>
 8006f74:	4bac      	ldr	r3, [pc, #688]	; (8007228 <HAL_RCC_OscConfig+0x330>)
 8006f76:	6018      	str	r0, [r3, #0]
 8006f78:	4bac      	ldr	r3, [pc, #688]	; (800722c <HAL_RCC_OscConfig+0x334>)
 8006f7a:	6818      	ldr	r0, [r3, #0]
 8006f7c:	f7fe fdda 	bl	8005b34 <HAL_InitTick>
 8006f80:	2800      	cmp	r0, #0
 8006f82:	d035      	beq.n	8006ff0 <HAL_RCC_OscConfig+0xf8>
 8006f84:	e8bd 81f0 	ldmia.w	sp!, {r4, r5, r6, r7, r8, pc}
 8006f88:	f04f 42b0 	mov.w	r2, #1476395008	; 0x58000000
 8006f8c:	6813      	ldr	r3, [r2, #0]
 8006f8e:	f043 0308 	orr.w	r3, r3, #8
 8006f92:	6013      	str	r3, [r2, #0]
 8006f94:	6813      	ldr	r3, [r2, #0]
 8006f96:	f023 03f0 	bic.w	r3, r3, #240	; 0xf0
 8006f9a:	4303      	orrs	r3, r0
 8006f9c:	6013      	str	r3, [r2, #0]
 8006f9e:	6a60      	ldr	r0, [r4, #36]	; 0x24
 8006fa0:	f7ff feb2 	bl	8006d08 <LL_RCC_MSI_SetCalibTrimming>
 8006fa4:	6aa0      	ldr	r0, [r4, #40]	; 0x28
 8006fa6:	f7ff febf 	bl	8006d28 <RCC_SetFlashLatencyFromMSIRange>
 8006faa:	2800      	cmp	r0, #0
 8006fac:	d0e0      	beq.n	8006f70 <HAL_RCC_OscConfig+0x78>
 8006fae:	2001      	movs	r0, #1
 8006fb0:	e7e8      	b.n	8006f84 <HAL_RCC_OscConfig+0x8c>
 8006fb2:	6a22      	ldr	r2, [r4, #32]
 8006fb4:	f04f 43b0 	mov.w	r3, #1476395008	; 0x58000000
 8006fb8:	2a00      	cmp	r2, #0
 8006fba:	d054      	beq.n	8007066 <HAL_RCC_OscConfig+0x16e>
 8006fbc:	681a      	ldr	r2, [r3, #0]
 8006fbe:	f042 0201 	orr.w	r2, r2, #1
 8006fc2:	601a      	str	r2, [r3, #0]
 8006fc4:	f7fe fdb8 	bl	8005b38 <HAL_GetTick>
 8006fc8:	4607      	mov	r7, r0
 8006fca:	f7ff fe97 	bl	8006cfc <LL_RCC_MSI_IsReady>
 8006fce:	2800      	cmp	r0, #0
 8006fd0:	d042      	beq.n	8007058 <HAL_RCC_OscConfig+0x160>
 8006fd2:	f04f 42b0 	mov.w	r2, #1476395008	; 0x58000000
 8006fd6:	6813      	ldr	r3, [r2, #0]
 8006fd8:	f043 0308 	orr.w	r3, r3, #8
 8006fdc:	6013      	str	r3, [r2, #0]
 8006fde:	6813      	ldr	r3, [r2, #0]
 8006fe0:	6aa1      	ldr	r1, [r4, #40]	; 0x28
 8006fe2:	f023 03f0 	bic.w	r3, r3, #240	; 0xf0
 8006fe6:	430b      	orrs	r3, r1
 8006fe8:	6013      	str	r3, [r2, #0]
 8006fea:	6a60      	ldr	r0, [r4, #36]	; 0x24
 8006fec:	f7ff fe8c 	bl	8006d08 <LL_RCC_MSI_SetCalibTrimming>
 8006ff0:	6823      	ldr	r3, [r4, #0]
 8006ff2:	07db      	lsls	r3, r3, #31
 8006ff4:	d448      	bmi.n	8007088 <HAL_RCC_OscConfig+0x190>
 8006ff6:	6823      	ldr	r3, [r4, #0]
 8006ff8:	079f      	lsls	r7, r3, #30
 8006ffa:	f100 8090 	bmi.w	800711e <HAL_RCC_OscConfig+0x226>
 8006ffe:	6823      	ldr	r3, [r4, #0]
 8007000:	071e      	lsls	r6, r3, #28
 8007002:	f140 80fc 	bpl.w	80071fe <HAL_RCC_OscConfig+0x306>
 8007006:	69a3      	ldr	r3, [r4, #24]
 8007008:	f04f 46b0 	mov.w	r6, #1476395008	; 0x58000000
 800700c:	2b00      	cmp	r3, #0
 800700e:	f000 80e3 	beq.w	80071d8 <HAL_RCC_OscConfig+0x2e0>
 8007012:	f8d6 3094 	ldr.w	r3, [r6, #148]	; 0x94
 8007016:	69e1      	ldr	r1, [r4, #28]
 8007018:	f003 0210 	and.w	r2, r3, #16
 800701c:	4291      	cmp	r1, r2
 800701e:	f000 80c6 	beq.w	80071ae <HAL_RCC_OscConfig+0x2b6>
 8007022:	f003 0203 	and.w	r2, r3, #3
 8007026:	2a02      	cmp	r2, #2
 8007028:	d0c1      	beq.n	8006fae <HAL_RCC_OscConfig+0xb6>
 800702a:	07d8      	lsls	r0, r3, #31
 800702c:	f140 80b5 	bpl.w	800719a <HAL_RCC_OscConfig+0x2a2>
 8007030:	f8d6 3094 	ldr.w	r3, [r6, #148]	; 0x94
 8007034:	f023 0301 	bic.w	r3, r3, #1
 8007038:	f8c6 3094 	str.w	r3, [r6, #148]	; 0x94
 800703c:	f7fe fd7c 	bl	8005b38 <HAL_GetTick>
 8007040:	4607      	mov	r7, r0
 8007042:	f8d6 3094 	ldr.w	r3, [r6, #148]	; 0x94
 8007046:	0799      	lsls	r1, r3, #30
 8007048:	f140 80a7 	bpl.w	800719a <HAL_RCC_OscConfig+0x2a2>
 800704c:	f7fe fd74 	bl	8005b38 <HAL_GetTick>
 8007050:	1bc3      	subs	r3, r0, r7
 8007052:	2b11      	cmp	r3, #17
 8007054:	d9f5      	bls.n	8007042 <HAL_RCC_OscConfig+0x14a>
 8007056:	e004      	b.n	8007062 <HAL_RCC_OscConfig+0x16a>
 8007058:	f7fe fd6e 	bl	8005b38 <HAL_GetTick>
 800705c:	1bc0      	subs	r0, r0, r7
 800705e:	2802      	cmp	r0, #2
 8007060:	d9b3      	bls.n	8006fca <HAL_RCC_OscConfig+0xd2>
 8007062:	2003      	movs	r0, #3
 8007064:	e78e      	b.n	8006f84 <HAL_RCC_OscConfig+0x8c>
 8007066:	681a      	ldr	r2, [r3, #0]
 8007068:	f022 0201 	bic.w	r2, r2, #1
 800706c:	601a      	str	r2, [r3, #0]
 800706e:	f7fe fd63 	bl	8005b38 <HAL_GetTick>
 8007072:	4607      	mov	r7, r0
 8007074:	f7ff fe42 	bl	8006cfc <LL_RCC_MSI_IsReady>
 8007078:	2800      	cmp	r0, #0
 800707a:	d0b9      	beq.n	8006ff0 <HAL_RCC_OscConfig+0xf8>
 800707c:	f7fe fd5c 	bl	8005b38 <HAL_GetTick>
 8007080:	1bc0      	subs	r0, r0, r7
 8007082:	2802      	cmp	r0, #2
 8007084:	d9f6      	bls.n	8007074 <HAL_RCC_OscConfig+0x17c>
 8007086:	e7ec      	b.n	8007062 <HAL_RCC_OscConfig+0x16a>
 8007088:	2d08      	cmp	r5, #8
 800708a:	d003      	beq.n	8007094 <HAL_RCC_OscConfig+0x19c>
 800708c:	2d0c      	cmp	r5, #12
 800708e:	d109      	bne.n	80070a4 <HAL_RCC_OscConfig+0x1ac>
 8007090:	2e03      	cmp	r6, #3
 8007092:	d107      	bne.n	80070a4 <HAL_RCC_OscConfig+0x1ac>
 8007094:	f7ff fe26 	bl	8006ce4 <LL_RCC_HSE_IsReady>
 8007098:	2800      	cmp	r0, #0
 800709a:	d0ac      	beq.n	8006ff6 <HAL_RCC_OscConfig+0xfe>
 800709c:	6863      	ldr	r3, [r4, #4]
 800709e:	2b00      	cmp	r3, #0
 80070a0:	d1a9      	bne.n	8006ff6 <HAL_RCC_OscConfig+0xfe>
 80070a2:	e784      	b.n	8006fae <HAL_RCC_OscConfig+0xb6>
 80070a4:	f04f 43b0 	mov.w	r3, #1476395008	; 0x58000000
 80070a8:	68a1      	ldr	r1, [r4, #8]
 80070aa:	681a      	ldr	r2, [r3, #0]
 80070ac:	f422 1280 	bic.w	r2, r2, #1048576	; 0x100000
 80070b0:	430a      	orrs	r2, r1
 80070b2:	601a      	str	r2, [r3, #0]
 80070b4:	6862      	ldr	r2, [r4, #4]
 80070b6:	f5b2 3f80 	cmp.w	r2, #65536	; 0x10000
 80070ba:	d110      	bne.n	80070de <HAL_RCC_OscConfig+0x1e6>
 80070bc:	681a      	ldr	r2, [r3, #0]
 80070be:	f442 3280 	orr.w	r2, r2, #65536	; 0x10000
 80070c2:	601a      	str	r2, [r3, #0]
 80070c4:	f7fe fd38 	bl	8005b38 <HAL_GetTick>
 80070c8:	4607      	mov	r7, r0
 80070ca:	f7ff fe0b 	bl	8006ce4 <LL_RCC_HSE_IsReady>
 80070ce:	2800      	cmp	r0, #0
 80070d0:	d191      	bne.n	8006ff6 <HAL_RCC_OscConfig+0xfe>
 80070d2:	f7fe fd31 	bl	8005b38 <HAL_GetTick>
 80070d6:	1bc0      	subs	r0, r0, r7
 80070d8:	2864      	cmp	r0, #100	; 0x64
 80070da:	d9f6      	bls.n	80070ca <HAL_RCC_OscConfig+0x1d2>
 80070dc:	e7c1      	b.n	8007062 <HAL_RCC_OscConfig+0x16a>
 80070de:	f5b2 1f04 	cmp.w	r2, #2162688	; 0x210000
 80070e2:	d104      	bne.n	80070ee <HAL_RCC_OscConfig+0x1f6>
 80070e4:	681a      	ldr	r2, [r3, #0]
 80070e6:	f442 1200 	orr.w	r2, r2, #2097152	; 0x200000
 80070ea:	601a      	str	r2, [r3, #0]
 80070ec:	e7e6      	b.n	80070bc <HAL_RCC_OscConfig+0x1c4>
 80070ee:	6819      	ldr	r1, [r3, #0]
 80070f0:	f421 3180 	bic.w	r1, r1, #65536	; 0x10000
 80070f4:	6019      	str	r1, [r3, #0]
 80070f6:	6819      	ldr	r1, [r3, #0]
 80070f8:	f421 1100 	bic.w	r1, r1, #2097152	; 0x200000
 80070fc:	6019      	str	r1, [r3, #0]
 80070fe:	2a00      	cmp	r2, #0
 8007100:	d1e0      	bne.n	80070c4 <HAL_RCC_OscConfig+0x1cc>
 8007102:	f7fe fd19 	bl	8005b38 <HAL_GetTick>
 8007106:	4607      	mov	r7, r0
 8007108:	f7ff fdec 	bl	8006ce4 <LL_RCC_HSE_IsReady>
 800710c:	2800      	cmp	r0, #0
 800710e:	f43f af72 	beq.w	8006ff6 <HAL_RCC_OscConfig+0xfe>
 8007112:	f7fe fd11 	bl	8005b38 <HAL_GetTick>
 8007116:	1bc0      	subs	r0, r0, r7
 8007118:	2864      	cmp	r0, #100	; 0x64
 800711a:	d9f5      	bls.n	8007108 <HAL_RCC_OscConfig+0x210>
 800711c:	e7a1      	b.n	8007062 <HAL_RCC_OscConfig+0x16a>
 800711e:	2d04      	cmp	r5, #4
 8007120:	d003      	beq.n	800712a <HAL_RCC_OscConfig+0x232>
 8007122:	2d0c      	cmp	r5, #12
 8007124:	d112      	bne.n	800714c <HAL_RCC_OscConfig+0x254>
 8007126:	2e02      	cmp	r6, #2
 8007128:	d110      	bne.n	800714c <HAL_RCC_OscConfig+0x254>
 800712a:	f7ff fde1 	bl	8006cf0 <LL_RCC_HSI_IsReady>
 800712e:	b118      	cbz	r0, 8007138 <HAL_RCC_OscConfig+0x240>
 8007130:	6923      	ldr	r3, [r4, #16]
 8007132:	2b00      	cmp	r3, #0
 8007134:	f43f af3b 	beq.w	8006fae <HAL_RCC_OscConfig+0xb6>
 8007138:	f04f 42b0 	mov.w	r2, #1476395008	; 0x58000000
 800713c:	6961      	ldr	r1, [r4, #20]
 800713e:	6853      	ldr	r3, [r2, #4]
 8007140:	f023 43fe 	bic.w	r3, r3, #2130706432	; 0x7f000000
 8007144:	ea43 6301 	orr.w	r3, r3, r1, lsl #24
 8007148:	6053      	str	r3, [r2, #4]
 800714a:	e758      	b.n	8006ffe <HAL_RCC_OscConfig+0x106>
 800714c:	6922      	ldr	r2, [r4, #16]
 800714e:	f04f 43b0 	mov.w	r3, #1476395008	; 0x58000000
 8007152:	b182      	cbz	r2, 8007176 <HAL_RCC_OscConfig+0x27e>
 8007154:	681a      	ldr	r2, [r3, #0]
 8007156:	f442 7280 	orr.w	r2, r2, #256	; 0x100
 800715a:	601a      	str	r2, [r3, #0]
 800715c:	f7fe fcec 	bl	8005b38 <HAL_GetTick>
 8007160:	4606      	mov	r6, r0
 8007162:	f7ff fdc5 	bl	8006cf0 <LL_RCC_HSI_IsReady>
 8007166:	2800      	cmp	r0, #0
 8007168:	d1e6      	bne.n	8007138 <HAL_RCC_OscConfig+0x240>
 800716a:	f7fe fce5 	bl	8005b38 <HAL_GetTick>
 800716e:	1b80      	subs	r0, r0, r6
 8007170:	2802      	cmp	r0, #2
 8007172:	d9f6      	bls.n	8007162 <HAL_RCC_OscConfig+0x26a>
 8007174:	e775      	b.n	8007062 <HAL_RCC_OscConfig+0x16a>
 8007176:	681a      	ldr	r2, [r3, #0]
 8007178:	f422 7280 	bic.w	r2, r2, #256	; 0x100
 800717c:	601a      	str	r2, [r3, #0]
 800717e:	f7fe fcdb 	bl	8005b38 <HAL_GetTick>
 8007182:	4606      	mov	r6, r0
 8007184:	f7ff fdb4 	bl	8006cf0 <LL_RCC_HSI_IsReady>
 8007188:	2800      	cmp	r0, #0
 800718a:	f43f af38 	beq.w	8006ffe <HAL_RCC_OscConfig+0x106>
 800718e:	f7fe fcd3 	bl	8005b38 <HAL_GetTick>
 8007192:	1b80      	subs	r0, r0, r6
 8007194:	2802      	cmp	r0, #2
 8007196:	d9f5      	bls.n	8007184 <HAL_RCC_OscConfig+0x28c>
 8007198:	e763      	b.n	8007062 <HAL_RCC_OscConfig+0x16a>
 800719a:	f04f 42b0 	mov.w	r2, #1476395008	; 0x58000000
 800719e:	69e1      	ldr	r1, [r4, #28]
 80071a0:	f8d2 3094 	ldr.w	r3, [r2, #148]	; 0x94
 80071a4:	f023 0310 	bic.w	r3, r3, #16
 80071a8:	430b      	orrs	r3, r1
 80071aa:	f8c2 3094 	str.w	r3, [r2, #148]	; 0x94
 80071ae:	f04f 47b0 	mov.w	r7, #1476395008	; 0x58000000
 80071b2:	f8d7 3094 	ldr.w	r3, [r7, #148]	; 0x94
 80071b6:	f043 0301 	orr.w	r3, r3, #1
 80071ba:	f8c7 3094 	str.w	r3, [r7, #148]	; 0x94
 80071be:	f7fe fcbb 	bl	8005b38 <HAL_GetTick>
 80071c2:	4606      	mov	r6, r0
 80071c4:	f8d7 3094 	ldr.w	r3, [r7, #148]	; 0x94
 80071c8:	079a      	lsls	r2, r3, #30
 80071ca:	d418      	bmi.n	80071fe <HAL_RCC_OscConfig+0x306>
 80071cc:	f7fe fcb4 	bl	8005b38 <HAL_GetTick>
 80071d0:	1b83      	subs	r3, r0, r6
 80071d2:	2b11      	cmp	r3, #17
 80071d4:	d9f6      	bls.n	80071c4 <HAL_RCC_OscConfig+0x2cc>
 80071d6:	e744      	b.n	8007062 <HAL_RCC_OscConfig+0x16a>
 80071d8:	f8d6 3094 	ldr.w	r3, [r6, #148]	; 0x94
 80071dc:	f023 0301 	bic.w	r3, r3, #1
 80071e0:	f8c6 3094 	str.w	r3, [r6, #148]	; 0x94
 80071e4:	f7fe fca8 	bl	8005b38 <HAL_GetTick>
 80071e8:	4607      	mov	r7, r0
 80071ea:	f8d6 3094 	ldr.w	r3, [r6, #148]	; 0x94
 80071ee:	079b      	lsls	r3, r3, #30
 80071f0:	d505      	bpl.n	80071fe <HAL_RCC_OscConfig+0x306>
 80071f2:	f7fe fca1 	bl	8005b38 <HAL_GetTick>
 80071f6:	1bc3      	subs	r3, r0, r7
 80071f8:	2b11      	cmp	r3, #17
 80071fa:	d9f6      	bls.n	80071ea <HAL_RCC_OscConfig+0x2f2>
 80071fc:	e731      	b.n	8007062 <HAL_RCC_OscConfig+0x16a>
 80071fe:	6823      	ldr	r3, [r4, #0]
 8007200:	0758      	lsls	r0, r3, #29
 8007202:	d553      	bpl.n	80072ac <HAL_RCC_OscConfig+0x3b4>
 8007204:	4f0a      	ldr	r7, [pc, #40]	; (8007230 <HAL_RCC_OscConfig+0x338>)
 8007206:	683b      	ldr	r3, [r7, #0]
 8007208:	05d9      	lsls	r1, r3, #23
 800720a:	d413      	bmi.n	8007234 <HAL_RCC_OscConfig+0x33c>
 800720c:	f7ff fd5a 	bl	8006cc4 <HAL_PWR_EnableBkUpAccess>
 8007210:	f7fe fc92 	bl	8005b38 <HAL_GetTick>
 8007214:	4606      	mov	r6, r0
 8007216:	683b      	ldr	r3, [r7, #0]
 8007218:	05da      	lsls	r2, r3, #23
 800721a:	d40b      	bmi.n	8007234 <HAL_RCC_OscConfig+0x33c>
 800721c:	f7fe fc8c 	bl	8005b38 <HAL_GetTick>
 8007220:	1b83      	subs	r3, r0, r6
 8007222:	2b02      	cmp	r3, #2
 8007224:	d9f7      	bls.n	8007216 <HAL_RCC_OscConfig+0x31e>
 8007226:	e71c      	b.n	8007062 <HAL_RCC_OscConfig+0x16a>
 8007228:	20000064 	.word	0x20000064
 800722c:	20000068 	.word	0x20000068
 8007230:	58000400 	.word	0x58000400
 8007234:	68e3      	ldr	r3, [r4, #12]
 8007236:	f04f 46b0 	mov.w	r6, #1476395008	; 0x58000000
 800723a:	2b00      	cmp	r3, #0
 800723c:	d058      	beq.n	80072f0 <HAL_RCC_OscConfig+0x3f8>
 800723e:	f023 0380 	bic.w	r3, r3, #128	; 0x80
 8007242:	2b05      	cmp	r3, #5
 8007244:	bf02      	ittt	eq
 8007246:	f8d6 3090 	ldreq.w	r3, [r6, #144]	; 0x90
 800724a:	f043 0304 	orreq.w	r3, r3, #4
 800724e:	f8c6 3090 	streq.w	r3, [r6, #144]	; 0x90
 8007252:	f04f 46b0 	mov.w	r6, #1476395008	; 0x58000000
 8007256:	f7fe fc6f 	bl	8005b38 <HAL_GetTick>
 800725a:	f8d6 3090 	ldr.w	r3, [r6, #144]	; 0x90
 800725e:	f043 0301 	orr.w	r3, r3, #1
 8007262:	4607      	mov	r7, r0
 8007264:	f8c6 3090 	str.w	r3, [r6, #144]	; 0x90
 8007268:	f241 3888 	movw	r8, #5000	; 0x1388
 800726c:	f8d6 3090 	ldr.w	r3, [r6, #144]	; 0x90
 8007270:	079b      	lsls	r3, r3, #30
 8007272:	d405      	bmi.n	8007280 <HAL_RCC_OscConfig+0x388>
 8007274:	f7fe fc60 	bl	8005b38 <HAL_GetTick>
 8007278:	1bc3      	subs	r3, r0, r7
 800727a:	4543      	cmp	r3, r8
 800727c:	d9f6      	bls.n	800726c <HAL_RCC_OscConfig+0x374>
 800727e:	e6f0      	b.n	8007062 <HAL_RCC_OscConfig+0x16a>
 8007280:	68e3      	ldr	r3, [r4, #12]
 8007282:	f023 0304 	bic.w	r3, r3, #4
 8007286:	2b81      	cmp	r3, #129	; 0x81
 8007288:	d11b      	bne.n	80072c2 <HAL_RCC_OscConfig+0x3ca>
 800728a:	f7fe fc55 	bl	8005b38 <HAL_GetTick>
 800728e:	f8d6 3090 	ldr.w	r3, [r6, #144]	; 0x90
 8007292:	f043 0380 	orr.w	r3, r3, #128	; 0x80
 8007296:	f8c6 3090 	str.w	r3, [r6, #144]	; 0x90
 800729a:	4607      	mov	r7, r0
 800729c:	f04f 46b0 	mov.w	r6, #1476395008	; 0x58000000
 80072a0:	f241 3888 	movw	r8, #5000	; 0x1388
 80072a4:	f8d6 3090 	ldr.w	r3, [r6, #144]	; 0x90
 80072a8:	0518      	lsls	r0, r3, #20
 80072aa:	d504      	bpl.n	80072b6 <HAL_RCC_OscConfig+0x3be>
 80072ac:	6ae0      	ldr	r0, [r4, #44]	; 0x2c
 80072ae:	2800      	cmp	r0, #0
 80072b0:	d14a      	bne.n	8007348 <HAL_RCC_OscConfig+0x450>
 80072b2:	2000      	movs	r0, #0
 80072b4:	e666      	b.n	8006f84 <HAL_RCC_OscConfig+0x8c>
 80072b6:	f7fe fc3f 	bl	8005b38 <HAL_GetTick>
 80072ba:	1bc0      	subs	r0, r0, r7
 80072bc:	4540      	cmp	r0, r8
 80072be:	d9f1      	bls.n	80072a4 <HAL_RCC_OscConfig+0x3ac>
 80072c0:	e6cf      	b.n	8007062 <HAL_RCC_OscConfig+0x16a>
 80072c2:	f7fe fc39 	bl	8005b38 <HAL_GetTick>
 80072c6:	f8d6 3090 	ldr.w	r3, [r6, #144]	; 0x90
 80072ca:	f023 0380 	bic.w	r3, r3, #128	; 0x80
 80072ce:	f8c6 3090 	str.w	r3, [r6, #144]	; 0x90
 80072d2:	4607      	mov	r7, r0
 80072d4:	f04f 46b0 	mov.w	r6, #1476395008	; 0x58000000
 80072d8:	f241 3888 	movw	r8, #5000	; 0x1388
 80072dc:	f8d6 3090 	ldr.w	r3, [r6, #144]	; 0x90
 80072e0:	0519      	lsls	r1, r3, #20
 80072e2:	d5e3      	bpl.n	80072ac <HAL_RCC_OscConfig+0x3b4>
 80072e4:	f7fe fc28 	bl	8005b38 <HAL_GetTick>
 80072e8:	1bc0      	subs	r0, r0, r7
 80072ea:	4540      	cmp	r0, r8
 80072ec:	d9f6      	bls.n	80072dc <HAL_RCC_OscConfig+0x3e4>
 80072ee:	e6b8      	b.n	8007062 <HAL_RCC_OscConfig+0x16a>
 80072f0:	f7fe fc22 	bl	8005b38 <HAL_GetTick>
 80072f4:	f8d6 3090 	ldr.w	r3, [r6, #144]	; 0x90
 80072f8:	f023 0380 	bic.w	r3, r3, #128	; 0x80
 80072fc:	4607      	mov	r7, r0
 80072fe:	f8c6 3090 	str.w	r3, [r6, #144]	; 0x90
 8007302:	f241 3888 	movw	r8, #5000	; 0x1388
 8007306:	f8d6 3090 	ldr.w	r3, [r6, #144]	; 0x90
 800730a:	051a      	lsls	r2, r3, #20
 800730c:	d416      	bmi.n	800733c <HAL_RCC_OscConfig+0x444>
 800730e:	f7fe fc13 	bl	8005b38 <HAL_GetTick>
 8007312:	f8d6 3090 	ldr.w	r3, [r6, #144]	; 0x90
 8007316:	f023 0301 	bic.w	r3, r3, #1
 800731a:	f8c6 3090 	str.w	r3, [r6, #144]	; 0x90
 800731e:	4607      	mov	r7, r0
 8007320:	f04f 48b0 	mov.w	r8, #1476395008	; 0x58000000
 8007324:	f241 3688 	movw	r6, #5000	; 0x1388
 8007328:	f8d8 3090 	ldr.w	r3, [r8, #144]	; 0x90
 800732c:	079b      	lsls	r3, r3, #30
 800732e:	d5bd      	bpl.n	80072ac <HAL_RCC_OscConfig+0x3b4>
 8007330:	f7fe fc02 	bl	8005b38 <HAL_GetTick>
 8007334:	1bc3      	subs	r3, r0, r7
 8007336:	42b3      	cmp	r3, r6
 8007338:	d9f6      	bls.n	8007328 <HAL_RCC_OscConfig+0x430>
 800733a:	e692      	b.n	8007062 <HAL_RCC_OscConfig+0x16a>
 800733c:	f7fe fbfc 	bl	8005b38 <HAL_GetTick>
 8007340:	1bc0      	subs	r0, r0, r7
 8007342:	4540      	cmp	r0, r8
 8007344:	d9df      	bls.n	8007306 <HAL_RCC_OscConfig+0x40e>
 8007346:	e68c      	b.n	8007062 <HAL_RCC_OscConfig+0x16a>
 8007348:	2d0c      	cmp	r5, #12
 800734a:	d053      	beq.n	80073f4 <HAL_RCC_OscConfig+0x4fc>
 800734c:	f04f 43b0 	mov.w	r3, #1476395008	; 0x58000000
 8007350:	2802      	cmp	r0, #2
 8007352:	681a      	ldr	r2, [r3, #0]
 8007354:	f022 7280 	bic.w	r2, r2, #16777216	; 0x1000000
 8007358:	601a      	str	r2, [r3, #0]
 800735a:	d133      	bne.n	80073c4 <HAL_RCC_OscConfig+0x4cc>
 800735c:	f7fe fbec 	bl	8005b38 <HAL_GetTick>
 8007360:	4605      	mov	r5, r0
 8007362:	f7ff fcda 	bl	8006d1a <LL_RCC_PLL_IsReady>
 8007366:	bb38      	cbnz	r0, 80073b8 <HAL_RCC_OscConfig+0x4c0>
 8007368:	e9d4 310c 	ldrd	r3, r1, [r4, #48]	; 0x30
 800736c:	f04f 42b0 	mov.w	r2, #1476395008	; 0x58000000
 8007370:	430b      	orrs	r3, r1
 8007372:	68d0      	ldr	r0, [r2, #12]
 8007374:	492f      	ldr	r1, [pc, #188]	; (8007434 <HAL_RCC_OscConfig+0x53c>)
 8007376:	4001      	ands	r1, r0
 8007378:	430b      	orrs	r3, r1
 800737a:	6be1      	ldr	r1, [r4, #60]	; 0x3c
 800737c:	430b      	orrs	r3, r1
 800737e:	6c21      	ldr	r1, [r4, #64]	; 0x40
 8007380:	430b      	orrs	r3, r1
 8007382:	6c61      	ldr	r1, [r4, #68]	; 0x44
 8007384:	430b      	orrs	r3, r1
 8007386:	6ba1      	ldr	r1, [r4, #56]	; 0x38
 8007388:	ea43 2301 	orr.w	r3, r3, r1, lsl #8
 800738c:	60d3      	str	r3, [r2, #12]
 800738e:	6813      	ldr	r3, [r2, #0]
 8007390:	f043 7380 	orr.w	r3, r3, #16777216	; 0x1000000
 8007394:	6013      	str	r3, [r2, #0]
 8007396:	68d3      	ldr	r3, [r2, #12]
 8007398:	f043 5380 	orr.w	r3, r3, #268435456	; 0x10000000
 800739c:	60d3      	str	r3, [r2, #12]
 800739e:	f7fe fbcb 	bl	8005b38 <HAL_GetTick>
 80073a2:	4604      	mov	r4, r0
 80073a4:	f7ff fcb9 	bl	8006d1a <LL_RCC_PLL_IsReady>
 80073a8:	2800      	cmp	r0, #0
 80073aa:	d182      	bne.n	80072b2 <HAL_RCC_OscConfig+0x3ba>
 80073ac:	f7fe fbc4 	bl	8005b38 <HAL_GetTick>
 80073b0:	1b00      	subs	r0, r0, r4
 80073b2:	280a      	cmp	r0, #10
 80073b4:	d9f6      	bls.n	80073a4 <HAL_RCC_OscConfig+0x4ac>
 80073b6:	e654      	b.n	8007062 <HAL_RCC_OscConfig+0x16a>
 80073b8:	f7fe fbbe 	bl	8005b38 <HAL_GetTick>
 80073bc:	1b40      	subs	r0, r0, r5
 80073be:	280a      	cmp	r0, #10
 80073c0:	d9cf      	bls.n	8007362 <HAL_RCC_OscConfig+0x46a>
 80073c2:	e64e      	b.n	8007062 <HAL_RCC_OscConfig+0x16a>
 80073c4:	68da      	ldr	r2, [r3, #12]
 80073c6:	f022 0203 	bic.w	r2, r2, #3
 80073ca:	60da      	str	r2, [r3, #12]
 80073cc:	68da      	ldr	r2, [r3, #12]
 80073ce:	f022 5288 	bic.w	r2, r2, #285212672	; 0x11000000
 80073d2:	f422 3280 	bic.w	r2, r2, #65536	; 0x10000
 80073d6:	60da      	str	r2, [r3, #12]
 80073d8:	f7fe fbae 	bl	8005b38 <HAL_GetTick>
 80073dc:	4604      	mov	r4, r0
 80073de:	f7ff fc9c 	bl	8006d1a <LL_RCC_PLL_IsReady>
 80073e2:	2800      	cmp	r0, #0
 80073e4:	f43f af65 	beq.w	80072b2 <HAL_RCC_OscConfig+0x3ba>
 80073e8:	f7fe fba6 	bl	8005b38 <HAL_GetTick>
 80073ec:	1b00      	subs	r0, r0, r4
 80073ee:	280a      	cmp	r0, #10
 80073f0:	d9f5      	bls.n	80073de <HAL_RCC_OscConfig+0x4e6>
 80073f2:	e636      	b.n	8007062 <HAL_RCC_OscConfig+0x16a>
 80073f4:	2801      	cmp	r0, #1
 80073f6:	f43f adc5 	beq.w	8006f84 <HAL_RCC_OscConfig+0x8c>
 80073fa:	f04f 43b0 	mov.w	r3, #1476395008	; 0x58000000
 80073fe:	6b22      	ldr	r2, [r4, #48]	; 0x30
 8007400:	68db      	ldr	r3, [r3, #12]
 8007402:	f003 0103 	and.w	r1, r3, #3
 8007406:	4291      	cmp	r1, r2
 8007408:	f47f add1 	bne.w	8006fae <HAL_RCC_OscConfig+0xb6>
 800740c:	6b61      	ldr	r1, [r4, #52]	; 0x34
 800740e:	f003 0270 	and.w	r2, r3, #112	; 0x70
 8007412:	428a      	cmp	r2, r1
 8007414:	f47f adcb 	bne.w	8006fae <HAL_RCC_OscConfig+0xb6>
 8007418:	6ba1      	ldr	r1, [r4, #56]	; 0x38
 800741a:	f403 42fe 	and.w	r2, r3, #32512	; 0x7f00
 800741e:	ebb2 2f01 	cmp.w	r2, r1, lsl #8
 8007422:	f47f adc4 	bne.w	8006fae <HAL_RCC_OscConfig+0xb6>
 8007426:	6c62      	ldr	r2, [r4, #68]	; 0x44
 8007428:	f003 4360 	and.w	r3, r3, #3758096384	; 0xe0000000
 800742c:	4293      	cmp	r3, r2
 800742e:	f43f af40 	beq.w	80072b2 <HAL_RCC_OscConfig+0x3ba>
 8007432:	e5bc      	b.n	8006fae <HAL_RCC_OscConfig+0xb6>
 8007434:	11c1808c 	.word	0x11c1808c

08007438 <HAL_RCC_ClockConfig>:
 8007438:	e92d 41f0 	stmdb	sp!, {r4, r5, r6, r7, r8, lr}
 800743c:	460d      	mov	r5, r1
 800743e:	4604      	mov	r4, r0
 8007440:	b910      	cbnz	r0, 8007448 <HAL_RCC_ClockConfig+0x10>
 8007442:	2001      	movs	r0, #1
 8007444:	e8bd 81f0 	ldmia.w	sp!, {r4, r5, r6, r7, r8, pc}
 8007448:	4e67      	ldr	r6, [pc, #412]	; (80075e8 <HAL_RCC_ClockConfig+0x1b0>)
 800744a:	6833      	ldr	r3, [r6, #0]
 800744c:	f003 0307 	and.w	r3, r3, #7
 8007450:	428b      	cmp	r3, r1
 8007452:	d316      	bcc.n	8007482 <HAL_RCC_ClockConfig+0x4a>
 8007454:	6823      	ldr	r3, [r4, #0]
 8007456:	0798      	lsls	r0, r3, #30
 8007458:	d527      	bpl.n	80074aa <HAL_RCC_ClockConfig+0x72>
 800745a:	f04f 47b0 	mov.w	r7, #1476395008	; 0x58000000
 800745e:	68a2      	ldr	r2, [r4, #8]
 8007460:	68bb      	ldr	r3, [r7, #8]
 8007462:	f023 03f0 	bic.w	r3, r3, #240	; 0xf0
 8007466:	4313      	orrs	r3, r2
 8007468:	60bb      	str	r3, [r7, #8]
 800746a:	f7fe fb65 	bl	8005b38 <HAL_GetTick>
 800746e:	4606      	mov	r6, r0
 8007470:	68bb      	ldr	r3, [r7, #8]
 8007472:	03d9      	lsls	r1, r3, #15
 8007474:	d419      	bmi.n	80074aa <HAL_RCC_ClockConfig+0x72>
 8007476:	f7fe fb5f 	bl	8005b38 <HAL_GetTick>
 800747a:	1b83      	subs	r3, r0, r6
 800747c:	2b02      	cmp	r3, #2
 800747e:	d9f7      	bls.n	8007470 <HAL_RCC_ClockConfig+0x38>
 8007480:	e011      	b.n	80074a6 <HAL_RCC_ClockConfig+0x6e>
 8007482:	6833      	ldr	r3, [r6, #0]
 8007484:	f023 0307 	bic.w	r3, r3, #7
 8007488:	430b      	orrs	r3, r1
 800748a:	6033      	str	r3, [r6, #0]
 800748c:	f7fe fb54 	bl	8005b38 <HAL_GetTick>
 8007490:	4607      	mov	r7, r0
 8007492:	6833      	ldr	r3, [r6, #0]
 8007494:	f003 0307 	and.w	r3, r3, #7
 8007498:	42ab      	cmp	r3, r5
 800749a:	d0db      	beq.n	8007454 <HAL_RCC_ClockConfig+0x1c>
 800749c:	f7fe fb4c 	bl	8005b38 <HAL_GetTick>
 80074a0:	1bc0      	subs	r0, r0, r7
 80074a2:	2802      	cmp	r0, #2
 80074a4:	d9f5      	bls.n	8007492 <HAL_RCC_ClockConfig+0x5a>
 80074a6:	2003      	movs	r0, #3
 80074a8:	e7cc      	b.n	8007444 <HAL_RCC_ClockConfig+0xc>
 80074aa:	6823      	ldr	r3, [r4, #0]
 80074ac:	065a      	lsls	r2, r3, #25
 80074ae:	d517      	bpl.n	80074e0 <HAL_RCC_ClockConfig+0xa8>
 80074b0:	f04f 47b0 	mov.w	r7, #1476395008	; 0x58000000
 80074b4:	6962      	ldr	r2, [r4, #20]
 80074b6:	f8d7 3108 	ldr.w	r3, [r7, #264]	; 0x108
 80074ba:	f023 030f 	bic.w	r3, r3, #15
 80074be:	ea43 1312 	orr.w	r3, r3, r2, lsr #4
 80074c2:	f8c7 3108 	str.w	r3, [r7, #264]	; 0x108
 80074c6:	f7fe fb37 	bl	8005b38 <HAL_GetTick>
 80074ca:	4606      	mov	r6, r0
 80074cc:	f8d7 3108 	ldr.w	r3, [r7, #264]	; 0x108
 80074d0:	03db      	lsls	r3, r3, #15
 80074d2:	d405      	bmi.n	80074e0 <HAL_RCC_ClockConfig+0xa8>
 80074d4:	f7fe fb30 	bl	8005b38 <HAL_GetTick>
 80074d8:	1b83      	subs	r3, r0, r6
 80074da:	2b02      	cmp	r3, #2
 80074dc:	d9f6      	bls.n	80074cc <HAL_RCC_ClockConfig+0x94>
 80074de:	e7e2      	b.n	80074a6 <HAL_RCC_ClockConfig+0x6e>
 80074e0:	6823      	ldr	r3, [r4, #0]
 80074e2:	075e      	lsls	r6, r3, #29
 80074e4:	d513      	bpl.n	800750e <HAL_RCC_ClockConfig+0xd6>
 80074e6:	f04f 47b0 	mov.w	r7, #1476395008	; 0x58000000
 80074ea:	68e2      	ldr	r2, [r4, #12]
 80074ec:	68bb      	ldr	r3, [r7, #8]
 80074ee:	f423 63e0 	bic.w	r3, r3, #1792	; 0x700
 80074f2:	4313      	orrs	r3, r2
 80074f4:	60bb      	str	r3, [r7, #8]
 80074f6:	f7fe fb1f 	bl	8005b38 <HAL_GetTick>
 80074fa:	4606      	mov	r6, r0
 80074fc:	68bb      	ldr	r3, [r7, #8]
 80074fe:	0398      	lsls	r0, r3, #14
 8007500:	d405      	bmi.n	800750e <HAL_RCC_ClockConfig+0xd6>
 8007502:	f7fe fb19 	bl	8005b38 <HAL_GetTick>
 8007506:	1b83      	subs	r3, r0, r6
 8007508:	2b02      	cmp	r3, #2
 800750a:	d9f7      	bls.n	80074fc <HAL_RCC_ClockConfig+0xc4>
 800750c:	e7cb      	b.n	80074a6 <HAL_RCC_ClockConfig+0x6e>
 800750e:	6823      	ldr	r3, [r4, #0]
 8007510:	0719      	lsls	r1, r3, #28
 8007512:	d514      	bpl.n	800753e <HAL_RCC_ClockConfig+0x106>
 8007514:	f04f 47b0 	mov.w	r7, #1476395008	; 0x58000000
 8007518:	6922      	ldr	r2, [r4, #16]
 800751a:	68bb      	ldr	r3, [r7, #8]
 800751c:	f423 5360 	bic.w	r3, r3, #14336	; 0x3800
 8007520:	ea43 03c2 	orr.w	r3, r3, r2, lsl #3
 8007524:	60bb      	str	r3, [r7, #8]
 8007526:	f7fe fb07 	bl	8005b38 <HAL_GetTick>
 800752a:	4606      	mov	r6, r0
 800752c:	68bb      	ldr	r3, [r7, #8]
 800752e:	035a      	lsls	r2, r3, #13
 8007530:	d405      	bmi.n	800753e <HAL_RCC_ClockConfig+0x106>
 8007532:	f7fe fb01 	bl	8005b38 <HAL_GetTick>
 8007536:	1b83      	subs	r3, r0, r6
 8007538:	2b02      	cmp	r3, #2
 800753a:	d9f7      	bls.n	800752c <HAL_RCC_ClockConfig+0xf4>
 800753c:	e7b3      	b.n	80074a6 <HAL_RCC_ClockConfig+0x6e>
 800753e:	6823      	ldr	r3, [r4, #0]
 8007540:	07db      	lsls	r3, r3, #31
 8007542:	d40f      	bmi.n	8007564 <HAL_RCC_ClockConfig+0x12c>
 8007544:	4c28      	ldr	r4, [pc, #160]	; (80075e8 <HAL_RCC_ClockConfig+0x1b0>)
 8007546:	6823      	ldr	r3, [r4, #0]
 8007548:	f003 0307 	and.w	r3, r3, #7
 800754c:	42ab      	cmp	r3, r5
 800754e:	d837      	bhi.n	80075c0 <HAL_RCC_ClockConfig+0x188>
 8007550:	f7ff fcc2 	bl	8006ed8 <HAL_RCC_GetHCLKFreq>
 8007554:	4b25      	ldr	r3, [pc, #148]	; (80075ec <HAL_RCC_ClockConfig+0x1b4>)
 8007556:	6018      	str	r0, [r3, #0]
 8007558:	4b25      	ldr	r3, [pc, #148]	; (80075f0 <HAL_RCC_ClockConfig+0x1b8>)
 800755a:	e8bd 41f0 	ldmia.w	sp!, {r4, r5, r6, r7, r8, lr}
 800755e:	6818      	ldr	r0, [r3, #0]
 8007560:	f7fe bae8 	b.w	8005b34 <HAL_InitTick>
 8007564:	6863      	ldr	r3, [r4, #4]
 8007566:	2b02      	cmp	r3, #2
 8007568:	d11e      	bne.n	80075a8 <HAL_RCC_ClockConfig+0x170>
 800756a:	f7ff fbbb 	bl	8006ce4 <LL_RCC_HSE_IsReady>
 800756e:	2800      	cmp	r0, #0
 8007570:	f43f af67 	beq.w	8007442 <HAL_RCC_ClockConfig+0xa>
 8007574:	f04f 46b0 	mov.w	r6, #1476395008	; 0x58000000
 8007578:	6862      	ldr	r2, [r4, #4]
 800757a:	68b3      	ldr	r3, [r6, #8]
 800757c:	f023 0303 	bic.w	r3, r3, #3
 8007580:	4313      	orrs	r3, r2
 8007582:	60b3      	str	r3, [r6, #8]
 8007584:	f7fe fad8 	bl	8005b38 <HAL_GetTick>
 8007588:	f241 3888 	movw	r8, #5000	; 0x1388
 800758c:	4607      	mov	r7, r0
 800758e:	68b3      	ldr	r3, [r6, #8]
 8007590:	6862      	ldr	r2, [r4, #4]
 8007592:	f003 030c 	and.w	r3, r3, #12
 8007596:	ebb3 0f82 	cmp.w	r3, r2, lsl #2
 800759a:	d0d3      	beq.n	8007544 <HAL_RCC_ClockConfig+0x10c>
 800759c:	f7fe facc 	bl	8005b38 <HAL_GetTick>
 80075a0:	1bc0      	subs	r0, r0, r7
 80075a2:	4540      	cmp	r0, r8
 80075a4:	d9f3      	bls.n	800758e <HAL_RCC_ClockConfig+0x156>
 80075a6:	e77e      	b.n	80074a6 <HAL_RCC_ClockConfig+0x6e>
 80075a8:	2b03      	cmp	r3, #3
 80075aa:	d102      	bne.n	80075b2 <HAL_RCC_ClockConfig+0x17a>
 80075ac:	f7ff fbb5 	bl	8006d1a <LL_RCC_PLL_IsReady>
 80075b0:	e7dd      	b.n	800756e <HAL_RCC_ClockConfig+0x136>
 80075b2:	b913      	cbnz	r3, 80075ba <HAL_RCC_ClockConfig+0x182>
 80075b4:	f7ff fba2 	bl	8006cfc <LL_RCC_MSI_IsReady>
 80075b8:	e7d9      	b.n	800756e <HAL_RCC_ClockConfig+0x136>
 80075ba:	f7ff fb99 	bl	8006cf0 <LL_RCC_HSI_IsReady>
 80075be:	e7d6      	b.n	800756e <HAL_RCC_ClockConfig+0x136>
 80075c0:	6823      	ldr	r3, [r4, #0]
 80075c2:	f023 0307 	bic.w	r3, r3, #7
 80075c6:	432b      	orrs	r3, r5
 80075c8:	6023      	str	r3, [r4, #0]
 80075ca:	f7fe fab5 	bl	8005b38 <HAL_GetTick>
 80075ce:	4606      	mov	r6, r0
 80075d0:	6823      	ldr	r3, [r4, #0]
 80075d2:	f003 0307 	and.w	r3, r3, #7
 80075d6:	42ab      	cmp	r3, r5
 80075d8:	d0ba      	beq.n	8007550 <HAL_RCC_ClockConfig+0x118>
 80075da:	f7fe faad 	bl	8005b38 <HAL_GetTick>
 80075de:	1b80      	subs	r0, r0, r6
 80075e0:	2802      	cmp	r0, #2
 80075e2:	d9f5      	bls.n	80075d0 <HAL_RCC_ClockConfig+0x198>
 80075e4:	e75f      	b.n	80074a6 <HAL_RCC_ClockConfig+0x6e>
 80075e6:	bf00      	nop
 80075e8:	58004000 	.word	0x58004000
 80075ec:	20000064 	.word	0x20000064
 80075f0:	20000068 	.word	0x20000068

080075f4 <HAL_RCC_GetPCLK1Freq>:
 80075f4:	b508      	push	{r3, lr}
 80075f6:	f7ff fc6f 	bl	8006ed8 <HAL_RCC_GetHCLKFreq>
 80075fa:	f04f 43b0 	mov.w	r3, #1476395008	; 0x58000000
 80075fe:	4a04      	ldr	r2, [pc, #16]	; (8007610 <HAL_RCC_GetPCLK1Freq+0x1c>)
 8007600:	689b      	ldr	r3, [r3, #8]
 8007602:	f3c3 2302 	ubfx	r3, r3, #8, #3
 8007606:	f852 3023 	ldr.w	r3, [r2, r3, lsl #2]
 800760a:	40d8      	lsrs	r0, r3
 800760c:	bd08      	pop	{r3, pc}
 800760e:	bf00      	nop
 8007610:	08010d40 	.word	0x08010d40

08007614 <HAL_RCC_GetPCLK2Freq>:
 8007614:	b508      	push	{r3, lr}
 8007616:	f7ff fc5f 	bl	8006ed8 <HAL_RCC_GetHCLKFreq>
 800761a:	f04f 43b0 	mov.w	r3, #1476395008	; 0x58000000
 800761e:	4a04      	ldr	r2, [pc, #16]	; (8007630 <HAL_RCC_GetPCLK2Freq+0x1c>)
 8007620:	689b      	ldr	r3, [r3, #8]
 8007622:	f3c3 23c2 	ubfx	r3, r3, #11, #3
 8007626:	f852 3023 	ldr.w	r3, [r2, r3, lsl #2]
 800762a:	40d8      	lsrs	r0, r3
 800762c:	bd08      	pop	{r3, pc}
 800762e:	bf00      	nop
 8007630:	08010d40 	.word	0x08010d40

08007634 <LL_RCC_LSE_IsReady>:
 8007634:	f04f 43b0 	mov.w	r3, #1476395008	; 0x58000000
 8007638:	f8d3 0090 	ldr.w	r0, [r3, #144]	; 0x90
 800763c:	f3c0 0040 	ubfx	r0, r0, #1, #1
 8007640:	4770      	bx	lr

08007642 <LL_RCC_SetI2CClockSource>:
 8007642:	f04f 41b0 	mov.w	r1, #1476395008	; 0x58000000
 8007646:	0902      	lsrs	r2, r0, #4
 8007648:	f8d1 3088 	ldr.w	r3, [r1, #136]	; 0x88
 800764c:	f402 227f 	and.w	r2, r2, #1044480	; 0xff000
 8007650:	0100      	lsls	r0, r0, #4
 8007652:	ea23 0302 	bic.w	r3, r3, r2
 8007656:	f400 207f 	and.w	r0, r0, #1044480	; 0xff000
 800765a:	4318      	orrs	r0, r3
 800765c:	f8c1 0088 	str.w	r0, [r1, #136]	; 0x88
 8007660:	4770      	bx	lr

08007662 <LL_RCC_SetLPTIMClockSource>:
 8007662:	f04f 41b0 	mov.w	r1, #1476395008	; 0x58000000
 8007666:	0c02      	lsrs	r2, r0, #16
 8007668:	f8d1 3088 	ldr.w	r3, [r1, #136]	; 0x88
 800766c:	0412      	lsls	r2, r2, #16
 800766e:	ea23 0302 	bic.w	r3, r3, r2
 8007672:	ea43 4000 	orr.w	r0, r3, r0, lsl #16
 8007676:	f8c1 0088 	str.w	r0, [r1, #136]	; 0x88
 800767a:	4770      	bx	lr

0800767c <HAL_RCCEx_PeriphCLKConfig>:
 800767c:	b570      	push	{r4, r5, r6, lr}
 800767e:	6805      	ldr	r5, [r0, #0]
 8007680:	f415 3580 	ands.w	r5, r5, #65536	; 0x10000
 8007684:	4604      	mov	r4, r0
 8007686:	d038      	beq.n	80076fa <HAL_RCCEx_PeriphCLKConfig+0x7e>
 8007688:	f7ff fb1c 	bl	8006cc4 <HAL_PWR_EnableBkUpAccess>
 800768c:	f7fe fa54 	bl	8005b38 <HAL_GetTick>
 8007690:	4e64      	ldr	r6, [pc, #400]	; (8007824 <HAL_RCCEx_PeriphCLKConfig+0x1a8>)
 8007692:	4605      	mov	r5, r0
 8007694:	6833      	ldr	r3, [r6, #0]
 8007696:	05db      	lsls	r3, r3, #23
 8007698:	d529      	bpl.n	80076ee <HAL_RCCEx_PeriphCLKConfig+0x72>
 800769a:	f04f 43b0 	mov.w	r3, #1476395008	; 0x58000000
 800769e:	6b61      	ldr	r1, [r4, #52]	; 0x34
 80076a0:	f8d3 2090 	ldr.w	r2, [r3, #144]	; 0x90
 80076a4:	f402 7240 	and.w	r2, r2, #768	; 0x300
 80076a8:	4291      	cmp	r1, r2
 80076aa:	d014      	beq.n	80076d6 <HAL_RCCEx_PeriphCLKConfig+0x5a>
 80076ac:	f8d3 1090 	ldr.w	r1, [r3, #144]	; 0x90
 80076b0:	f8d3 2090 	ldr.w	r2, [r3, #144]	; 0x90
 80076b4:	f442 3280 	orr.w	r2, r2, #65536	; 0x10000
 80076b8:	f8c3 2090 	str.w	r2, [r3, #144]	; 0x90
 80076bc:	f8d3 2090 	ldr.w	r2, [r3, #144]	; 0x90
 80076c0:	f421 7040 	bic.w	r0, r1, #768	; 0x300
 80076c4:	f422 3280 	bic.w	r2, r2, #65536	; 0x10000
 80076c8:	078d      	lsls	r5, r1, #30
 80076ca:	f8c3 2090 	str.w	r2, [r3, #144]	; 0x90
 80076ce:	f8c3 0090 	str.w	r0, [r3, #144]	; 0x90
 80076d2:	f100 8096 	bmi.w	8007802 <HAL_RCCEx_PeriphCLKConfig+0x186>
 80076d6:	f04f 42b0 	mov.w	r2, #1476395008	; 0x58000000
 80076da:	6b61      	ldr	r1, [r4, #52]	; 0x34
 80076dc:	f8d2 3090 	ldr.w	r3, [r2, #144]	; 0x90
 80076e0:	f423 7340 	bic.w	r3, r3, #768	; 0x300
 80076e4:	430b      	orrs	r3, r1
 80076e6:	f8c2 3090 	str.w	r3, [r2, #144]	; 0x90
 80076ea:	2500      	movs	r5, #0
 80076ec:	e005      	b.n	80076fa <HAL_RCCEx_PeriphCLKConfig+0x7e>
 80076ee:	f7fe fa23 	bl	8005b38 <HAL_GetTick>
 80076f2:	1b40      	subs	r0, r0, r5
 80076f4:	2802      	cmp	r0, #2
 80076f6:	d9cd      	bls.n	8007694 <HAL_RCCEx_PeriphCLKConfig+0x18>
 80076f8:	2503      	movs	r5, #3
 80076fa:	6822      	ldr	r2, [r4, #0]
 80076fc:	07d0      	lsls	r0, r2, #31
 80076fe:	d50a      	bpl.n	8007716 <HAL_RCCEx_PeriphCLKConfig+0x9a>
 8007700:	f04f 40b0 	mov.w	r0, #1476395008	; 0x58000000
 8007704:	6861      	ldr	r1, [r4, #4]
 8007706:	f8d0 3088 	ldr.w	r3, [r0, #136]	; 0x88
 800770a:	ea23 4311 	bic.w	r3, r3, r1, lsr #16
 800770e:	b289      	uxth	r1, r1
 8007710:	430b      	orrs	r3, r1
 8007712:	f8c0 3088 	str.w	r3, [r0, #136]	; 0x88
 8007716:	0791      	lsls	r1, r2, #30
 8007718:	d50a      	bpl.n	8007730 <HAL_RCCEx_PeriphCLKConfig+0xb4>
 800771a:	f04f 40b0 	mov.w	r0, #1476395008	; 0x58000000
 800771e:	68a1      	ldr	r1, [r4, #8]
 8007720:	f8d0 3088 	ldr.w	r3, [r0, #136]	; 0x88
 8007724:	ea23 4311 	bic.w	r3, r3, r1, lsr #16
 8007728:	b289      	uxth	r1, r1
 800772a:	430b      	orrs	r3, r1
 800772c:	f8c0 3088 	str.w	r3, [r0, #136]	; 0x88
 8007730:	0693      	lsls	r3, r2, #26
 8007732:	d509      	bpl.n	8007748 <HAL_RCCEx_PeriphCLKConfig+0xcc>
 8007734:	f04f 41b0 	mov.w	r1, #1476395008	; 0x58000000
 8007738:	6920      	ldr	r0, [r4, #16]
 800773a:	f8d1 3088 	ldr.w	r3, [r1, #136]	; 0x88
 800773e:	f423 6340 	bic.w	r3, r3, #3072	; 0xc00
 8007742:	4303      	orrs	r3, r0
 8007744:	f8c1 3088 	str.w	r3, [r1, #136]	; 0x88
 8007748:	0596      	lsls	r6, r2, #22
 800774a:	d502      	bpl.n	8007752 <HAL_RCCEx_PeriphCLKConfig+0xd6>
 800774c:	6a20      	ldr	r0, [r4, #32]
 800774e:	f7ff ff88 	bl	8007662 <LL_RCC_SetLPTIMClockSource>
 8007752:	6823      	ldr	r3, [r4, #0]
 8007754:	0558      	lsls	r0, r3, #21
 8007756:	d502      	bpl.n	800775e <HAL_RCCEx_PeriphCLKConfig+0xe2>
 8007758:	6a60      	ldr	r0, [r4, #36]	; 0x24
 800775a:	f7ff ff82 	bl	8007662 <LL_RCC_SetLPTIMClockSource>
 800775e:	6823      	ldr	r3, [r4, #0]
 8007760:	0519      	lsls	r1, r3, #20
 8007762:	d502      	bpl.n	800776a <HAL_RCCEx_PeriphCLKConfig+0xee>
 8007764:	6aa0      	ldr	r0, [r4, #40]	; 0x28
 8007766:	f7ff ff7c 	bl	8007662 <LL_RCC_SetLPTIMClockSource>
 800776a:	6823      	ldr	r3, [r4, #0]
 800776c:	065a      	lsls	r2, r3, #25
 800776e:	d502      	bpl.n	8007776 <HAL_RCCEx_PeriphCLKConfig+0xfa>
 8007770:	6960      	ldr	r0, [r4, #20]
 8007772:	f7ff ff66 	bl	8007642 <LL_RCC_SetI2CClockSource>
 8007776:	6823      	ldr	r3, [r4, #0]
 8007778:	061b      	lsls	r3, r3, #24
 800777a:	d502      	bpl.n	8007782 <HAL_RCCEx_PeriphCLKConfig+0x106>
 800777c:	69a0      	ldr	r0, [r4, #24]
 800777e:	f7ff ff60 	bl	8007642 <LL_RCC_SetI2CClockSource>
 8007782:	6823      	ldr	r3, [r4, #0]
 8007784:	05de      	lsls	r6, r3, #23
 8007786:	d502      	bpl.n	800778e <HAL_RCCEx_PeriphCLKConfig+0x112>
 8007788:	69e0      	ldr	r0, [r4, #28]
 800778a:	f7ff ff5a 	bl	8007642 <LL_RCC_SetI2CClockSource>
 800778e:	6821      	ldr	r1, [r4, #0]
 8007790:	06c8      	lsls	r0, r1, #27
 8007792:	d510      	bpl.n	80077b6 <HAL_RCCEx_PeriphCLKConfig+0x13a>
 8007794:	f04f 42b0 	mov.w	r2, #1476395008	; 0x58000000
 8007798:	68e0      	ldr	r0, [r4, #12]
 800779a:	f8d2 3088 	ldr.w	r3, [r2, #136]	; 0x88
 800779e:	f423 7340 	bic.w	r3, r3, #768	; 0x300
 80077a2:	4303      	orrs	r3, r0
 80077a4:	f8c2 3088 	str.w	r3, [r2, #136]	; 0x88
 80077a8:	f5b0 7f80 	cmp.w	r0, #256	; 0x100
 80077ac:	bf02      	ittt	eq
 80077ae:	68d3      	ldreq	r3, [r2, #12]
 80077b0:	f043 7380 	orreq.w	r3, r3, #16777216	; 0x1000000
 80077b4:	60d3      	streq	r3, [r2, #12]
 80077b6:	040a      	lsls	r2, r1, #16
 80077b8:	d50e      	bpl.n	80077d8 <HAL_RCCEx_PeriphCLKConfig+0x15c>
 80077ba:	f04f 42b0 	mov.w	r2, #1476395008	; 0x58000000
 80077be:	6b20      	ldr	r0, [r4, #48]	; 0x30
 80077c0:	f8d2 3088 	ldr.w	r3, [r2, #136]	; 0x88
 80077c4:	f023 4340 	bic.w	r3, r3, #3221225472	; 0xc0000000
 80077c8:	4303      	orrs	r3, r0
 80077ca:	f8c2 3088 	str.w	r3, [r2, #136]	; 0x88
 80077ce:	b918      	cbnz	r0, 80077d8 <HAL_RCCEx_PeriphCLKConfig+0x15c>
 80077d0:	68d3      	ldr	r3, [r2, #12]
 80077d2:	f043 7380 	orr.w	r3, r3, #16777216	; 0x1000000
 80077d6:	60d3      	str	r3, [r2, #12]
 80077d8:	044b      	lsls	r3, r1, #17
 80077da:	d510      	bpl.n	80077fe <HAL_RCCEx_PeriphCLKConfig+0x182>
 80077dc:	f04f 42b0 	mov.w	r2, #1476395008	; 0x58000000
 80077e0:	6ae1      	ldr	r1, [r4, #44]	; 0x2c
 80077e2:	f8d2 3088 	ldr.w	r3, [r2, #136]	; 0x88
 80077e6:	f023 5340 	bic.w	r3, r3, #805306368	; 0x30000000
 80077ea:	430b      	orrs	r3, r1
 80077ec:	f1b1 5f00 	cmp.w	r1, #536870912	; 0x20000000
 80077f0:	f8c2 3088 	str.w	r3, [r2, #136]	; 0x88
 80077f4:	d103      	bne.n	80077fe <HAL_RCCEx_PeriphCLKConfig+0x182>
 80077f6:	68d3      	ldr	r3, [r2, #12]
 80077f8:	f443 3380 	orr.w	r3, r3, #65536	; 0x10000
 80077fc:	60d3      	str	r3, [r2, #12]
 80077fe:	4628      	mov	r0, r5
 8007800:	bd70      	pop	{r4, r5, r6, pc}
 8007802:	f7fe f999 	bl	8005b38 <HAL_GetTick>
 8007806:	f241 3688 	movw	r6, #5000	; 0x1388
 800780a:	4605      	mov	r5, r0
 800780c:	f7ff ff12 	bl	8007634 <LL_RCC_LSE_IsReady>
 8007810:	2801      	cmp	r0, #1
 8007812:	f43f af60 	beq.w	80076d6 <HAL_RCCEx_PeriphCLKConfig+0x5a>
 8007816:	f7fe f98f 	bl	8005b38 <HAL_GetTick>
 800781a:	1b40      	subs	r0, r0, r5
 800781c:	42b0      	cmp	r0, r6
 800781e:	d9f5      	bls.n	800780c <HAL_RCCEx_PeriphCLKConfig+0x190>
 8007820:	e76a      	b.n	80076f8 <HAL_RCCEx_PeriphCLKConfig+0x7c>
 8007822:	bf00      	nop
 8007824:	58000400 	.word	0x58000400

08007828 <HAL_RTC_DeactivateAlarm>:
 8007828:	b530      	push	{r4, r5, lr}
 800782a:	f890 302c 	ldrb.w	r3, [r0, #44]	; 0x2c
 800782e:	2b01      	cmp	r3, #1
 8007830:	f04f 0202 	mov.w	r2, #2
 8007834:	d022      	beq.n	800787c <HAL_RTC_DeactivateAlarm+0x54>
 8007836:	4b19      	ldr	r3, [pc, #100]	; (800789c <HAL_RTC_DeactivateAlarm+0x74>)
 8007838:	f880 202d 	strb.w	r2, [r0, #45]	; 0x2d
 800783c:	24ca      	movs	r4, #202	; 0xca
 800783e:	2501      	movs	r5, #1
 8007840:	f880 502c 	strb.w	r5, [r0, #44]	; 0x2c
 8007844:	625c      	str	r4, [r3, #36]	; 0x24
 8007846:	2453      	movs	r4, #83	; 0x53
 8007848:	625c      	str	r4, [r3, #36]	; 0x24
 800784a:	f5b1 7f80 	cmp.w	r1, #256	; 0x100
 800784e:	6b04      	ldr	r4, [r0, #48]	; 0x30
 8007850:	d116      	bne.n	8007880 <HAL_RTC_DeactivateAlarm+0x58>
 8007852:	699a      	ldr	r2, [r3, #24]
 8007854:	f422 5288 	bic.w	r2, r2, #4352	; 0x1100
 8007858:	619a      	str	r2, [r3, #24]
 800785a:	6c5a      	ldr	r2, [r3, #68]	; 0x44
 800785c:	f024 0401 	bic.w	r4, r4, #1
 8007860:	f022 4200 	bic.w	r2, r2, #2147483648	; 0x80000000
 8007864:	645a      	str	r2, [r3, #68]	; 0x44
 8007866:	6304      	str	r4, [r0, #48]	; 0x30
 8007868:	65dd      	str	r5, [r3, #92]	; 0x5c
 800786a:	4b0c      	ldr	r3, [pc, #48]	; (800789c <HAL_RTC_DeactivateAlarm+0x74>)
 800786c:	22ff      	movs	r2, #255	; 0xff
 800786e:	625a      	str	r2, [r3, #36]	; 0x24
 8007870:	2301      	movs	r3, #1
 8007872:	2200      	movs	r2, #0
 8007874:	f880 302d 	strb.w	r3, [r0, #45]	; 0x2d
 8007878:	f880 202c 	strb.w	r2, [r0, #44]	; 0x2c
 800787c:	4610      	mov	r0, r2
 800787e:	bd30      	pop	{r4, r5, pc}
 8007880:	6999      	ldr	r1, [r3, #24]
 8007882:	f421 5108 	bic.w	r1, r1, #8704	; 0x2200
 8007886:	6199      	str	r1, [r3, #24]
 8007888:	6cd9      	ldr	r1, [r3, #76]	; 0x4c
 800788a:	f024 0402 	bic.w	r4, r4, #2
 800788e:	f021 4100 	bic.w	r1, r1, #2147483648	; 0x80000000
 8007892:	64d9      	str	r1, [r3, #76]	; 0x4c
 8007894:	6304      	str	r4, [r0, #48]	; 0x30
 8007896:	65da      	str	r2, [r3, #92]	; 0x5c
 8007898:	e7e7      	b.n	800786a <HAL_RTC_DeactivateAlarm+0x42>
 800789a:	bf00      	nop
 800789c:	40002800 	.word	0x40002800

080078a0 <HAL_RTC_AlarmIRQHandler>:
 80078a0:	b570      	push	{r4, r5, r6, lr}
 80078a2:	4e0b      	ldr	r6, [pc, #44]	; (80078d0 <HAL_RTC_AlarmIRQHandler+0x30>)
 80078a4:	6b03      	ldr	r3, [r0, #48]	; 0x30
 80078a6:	6d75      	ldr	r5, [r6, #84]	; 0x54
 80078a8:	401d      	ands	r5, r3
 80078aa:	07ea      	lsls	r2, r5, #31
 80078ac:	4604      	mov	r4, r0
 80078ae:	d503      	bpl.n	80078b8 <HAL_RTC_AlarmIRQHandler+0x18>
 80078b0:	2301      	movs	r3, #1
 80078b2:	65f3      	str	r3, [r6, #92]	; 0x5c
 80078b4:	f7fe fb07 	bl	8005ec6 <HAL_RTC_AlarmAEventCallback>
 80078b8:	07ab      	lsls	r3, r5, #30
 80078ba:	d504      	bpl.n	80078c6 <HAL_RTC_AlarmIRQHandler+0x26>
 80078bc:	2302      	movs	r3, #2
 80078be:	65f3      	str	r3, [r6, #92]	; 0x5c
 80078c0:	4620      	mov	r0, r4
 80078c2:	f000 f9c9 	bl	8007c58 <HAL_RTCEx_AlarmBEventCallback>
 80078c6:	2301      	movs	r3, #1
 80078c8:	f884 302d 	strb.w	r3, [r4, #45]	; 0x2d
 80078cc:	bd70      	pop	{r4, r5, r6, pc}
 80078ce:	bf00      	nop
 80078d0:	40002800 	.word	0x40002800

080078d4 <HAL_RTC_WaitForSynchro>:
 80078d4:	b538      	push	{r3, r4, r5, lr}
 80078d6:	4c0a      	ldr	r4, [pc, #40]	; (8007900 <HAL_RTC_WaitForSynchro+0x2c>)
 80078d8:	68e3      	ldr	r3, [r4, #12]
 80078da:	f023 0320 	bic.w	r3, r3, #32
 80078de:	60e3      	str	r3, [r4, #12]
 80078e0:	f7fe f92a 	bl	8005b38 <HAL_GetTick>
 80078e4:	4605      	mov	r5, r0
 80078e6:	68e3      	ldr	r3, [r4, #12]
 80078e8:	069b      	lsls	r3, r3, #26
 80078ea:	d501      	bpl.n	80078f0 <HAL_RTC_WaitForSynchro+0x1c>
 80078ec:	2000      	movs	r0, #0
 80078ee:	bd38      	pop	{r3, r4, r5, pc}
 80078f0:	f7fe f922 	bl	8005b38 <HAL_GetTick>
 80078f4:	1b40      	subs	r0, r0, r5
 80078f6:	f5b0 7f7a 	cmp.w	r0, #1000	; 0x3e8
 80078fa:	d9f4      	bls.n	80078e6 <HAL_RTC_WaitForSynchro+0x12>
 80078fc:	2003      	movs	r0, #3
 80078fe:	e7f6      	b.n	80078ee <HAL_RTC_WaitForSynchro+0x1a>
 8007900:	40002800 	.word	0x40002800

08007904 <RTC_EnterInitMode>:
 8007904:	e92d 41f0 	stmdb	sp!, {r4, r5, r6, r7, r8, lr}
 8007908:	4d11      	ldr	r5, [pc, #68]	; (8007950 <RTC_EnterInitMode+0x4c>)
 800790a:	68ec      	ldr	r4, [r5, #12]
 800790c:	f014 0440 	ands.w	r4, r4, #64	; 0x40
 8007910:	4607      	mov	r7, r0
 8007912:	d11a      	bne.n	800794a <RTC_EnterInitMode+0x46>
 8007914:	68eb      	ldr	r3, [r5, #12]
 8007916:	f043 0380 	orr.w	r3, r3, #128	; 0x80
 800791a:	60eb      	str	r3, [r5, #12]
 800791c:	f7fe f90c 	bl	8005b38 <HAL_GetTick>
 8007920:	f04f 0803 	mov.w	r8, #3
 8007924:	4606      	mov	r6, r0
 8007926:	68eb      	ldr	r3, [r5, #12]
 8007928:	065b      	lsls	r3, r3, #25
 800792a:	d401      	bmi.n	8007930 <RTC_EnterInitMode+0x2c>
 800792c:	2c03      	cmp	r4, #3
 800792e:	d102      	bne.n	8007936 <RTC_EnterInitMode+0x32>
 8007930:	4620      	mov	r0, r4
 8007932:	e8bd 81f0 	ldmia.w	sp!, {r4, r5, r6, r7, r8, pc}
 8007936:	f7fe f8ff 	bl	8005b38 <HAL_GetTick>
 800793a:	1b80      	subs	r0, r0, r6
 800793c:	f5b0 7f7a 	cmp.w	r0, #1000	; 0x3e8
 8007940:	bf84      	itt	hi
 8007942:	f887 802d 	strbhi.w	r8, [r7, #45]	; 0x2d
 8007946:	2403      	movhi	r4, #3
 8007948:	e7ed      	b.n	8007926 <RTC_EnterInitMode+0x22>
 800794a:	2400      	movs	r4, #0
 800794c:	e7f0      	b.n	8007930 <RTC_EnterInitMode+0x2c>
 800794e:	bf00      	nop
 8007950:	40002800 	.word	0x40002800

08007954 <RTC_ExitInitMode>:
 8007954:	4b10      	ldr	r3, [pc, #64]	; (8007998 <RTC_ExitInitMode+0x44>)
 8007956:	68da      	ldr	r2, [r3, #12]
 8007958:	f022 0280 	bic.w	r2, r2, #128	; 0x80
 800795c:	b510      	push	{r4, lr}
 800795e:	60da      	str	r2, [r3, #12]
 8007960:	699a      	ldr	r2, [r3, #24]
 8007962:	0692      	lsls	r2, r2, #26
 8007964:	4604      	mov	r4, r0
 8007966:	d406      	bmi.n	8007976 <RTC_ExitInitMode+0x22>
 8007968:	f7ff ffb4 	bl	80078d4 <HAL_RTC_WaitForSynchro>
 800796c:	b110      	cbz	r0, 8007974 <RTC_ExitInitMode+0x20>
 800796e:	2003      	movs	r0, #3
 8007970:	f884 002d 	strb.w	r0, [r4, #45]	; 0x2d
 8007974:	bd10      	pop	{r4, pc}
 8007976:	699a      	ldr	r2, [r3, #24]
 8007978:	f022 0220 	bic.w	r2, r2, #32
 800797c:	619a      	str	r2, [r3, #24]
 800797e:	f7ff ffa9 	bl	80078d4 <HAL_RTC_WaitForSynchro>
 8007982:	b110      	cbz	r0, 800798a <RTC_ExitInitMode+0x36>
 8007984:	2003      	movs	r0, #3
 8007986:	f884 002d 	strb.w	r0, [r4, #45]	; 0x2d
 800798a:	4a03      	ldr	r2, [pc, #12]	; (8007998 <RTC_ExitInitMode+0x44>)
 800798c:	6993      	ldr	r3, [r2, #24]
 800798e:	f043 0320 	orr.w	r3, r3, #32
 8007992:	6193      	str	r3, [r2, #24]
 8007994:	e7ee      	b.n	8007974 <RTC_ExitInitMode+0x20>
 8007996:	bf00      	nop
 8007998:	40002800 	.word	0x40002800

0800799c <HAL_RTC_Init>:
 800799c:	b538      	push	{r3, r4, r5, lr}
 800799e:	4604      	mov	r4, r0
 80079a0:	2800      	cmp	r0, #0
 80079a2:	d047      	beq.n	8007a34 <HAL_RTC_Init+0x98>
 80079a4:	f890 302d 	ldrb.w	r3, [r0, #45]	; 0x2d
 80079a8:	f003 02ff 	and.w	r2, r3, #255	; 0xff
 80079ac:	b91b      	cbnz	r3, 80079b6 <HAL_RTC_Init+0x1a>
 80079ae:	f880 202c 	strb.w	r2, [r0, #44]	; 0x2c
 80079b2:	f7fd fe6b 	bl	800568c <HAL_RTC_MspInit>
 80079b6:	4d20      	ldr	r5, [pc, #128]	; (8007a38 <HAL_RTC_Init+0x9c>)
 80079b8:	2302      	movs	r3, #2
 80079ba:	f884 302d 	strb.w	r3, [r4, #45]	; 0x2d
 80079be:	23ca      	movs	r3, #202	; 0xca
 80079c0:	626b      	str	r3, [r5, #36]	; 0x24
 80079c2:	2353      	movs	r3, #83	; 0x53
 80079c4:	626b      	str	r3, [r5, #36]	; 0x24
 80079c6:	4620      	mov	r0, r4
 80079c8:	f7ff ff9c 	bl	8007904 <RTC_EnterInitMode>
 80079cc:	bb70      	cbnz	r0, 8007a2c <HAL_RTC_Init+0x90>
 80079ce:	69ab      	ldr	r3, [r5, #24]
 80079d0:	f023 638e 	bic.w	r3, r3, #74448896	; 0x4700000
 80079d4:	f023 0340 	bic.w	r3, r3, #64	; 0x40
 80079d8:	61ab      	str	r3, [r5, #24]
 80079da:	6921      	ldr	r1, [r4, #16]
 80079dc:	6863      	ldr	r3, [r4, #4]
 80079de:	69aa      	ldr	r2, [r5, #24]
 80079e0:	430b      	orrs	r3, r1
 80079e2:	4313      	orrs	r3, r2
 80079e4:	69a2      	ldr	r2, [r4, #24]
 80079e6:	4313      	orrs	r3, r2
 80079e8:	61ab      	str	r3, [r5, #24]
 80079ea:	e9d4 2302 	ldrd	r2, r3, [r4, #8]
 80079ee:	ea43 4302 	orr.w	r3, r3, r2, lsl #16
 80079f2:	612b      	str	r3, [r5, #16]
 80079f4:	e9d4 3109 	ldrd	r3, r1, [r4, #36]	; 0x24
 80079f8:	68ea      	ldr	r2, [r5, #12]
 80079fa:	430b      	orrs	r3, r1
 80079fc:	f422 52f8 	bic.w	r2, r2, #7936	; 0x1f00
 8007a00:	4313      	orrs	r3, r2
 8007a02:	60eb      	str	r3, [r5, #12]
 8007a04:	4620      	mov	r0, r4
 8007a06:	f7ff ffa5 	bl	8007954 <RTC_ExitInitMode>
 8007a0a:	b978      	cbnz	r0, 8007a2c <HAL_RTC_Init+0x90>
 8007a0c:	e9d4 1307 	ldrd	r1, r3, [r4, #28]
 8007a10:	69aa      	ldr	r2, [r5, #24]
 8007a12:	430b      	orrs	r3, r1
 8007a14:	f022 4260 	bic.w	r2, r2, #3758096384	; 0xe0000000
 8007a18:	4313      	orrs	r3, r2
 8007a1a:	6962      	ldr	r2, [r4, #20]
 8007a1c:	4313      	orrs	r3, r2
 8007a1e:	61ab      	str	r3, [r5, #24]
 8007a20:	23ff      	movs	r3, #255	; 0xff
 8007a22:	626b      	str	r3, [r5, #36]	; 0x24
 8007a24:	2301      	movs	r3, #1
 8007a26:	f884 302d 	strb.w	r3, [r4, #45]	; 0x2d
 8007a2a:	bd38      	pop	{r3, r4, r5, pc}
 8007a2c:	4b02      	ldr	r3, [pc, #8]	; (8007a38 <HAL_RTC_Init+0x9c>)
 8007a2e:	22ff      	movs	r2, #255	; 0xff
 8007a30:	625a      	str	r2, [r3, #36]	; 0x24
 8007a32:	e7fa      	b.n	8007a2a <HAL_RTC_Init+0x8e>
 8007a34:	2001      	movs	r0, #1
 8007a36:	e7f8      	b.n	8007a2a <HAL_RTC_Init+0x8e>
 8007a38:	40002800 	.word	0x40002800

08007a3c <RTC_ByteToBcd2>:
 8007a3c:	2300      	movs	r3, #0
 8007a3e:	2809      	cmp	r0, #9
 8007a40:	d803      	bhi.n	8007a4a <RTC_ByteToBcd2+0xe>
 8007a42:	ea40 1003 	orr.w	r0, r0, r3, lsl #4
 8007a46:	b2c0      	uxtb	r0, r0
 8007a48:	4770      	bx	lr
 8007a4a:	380a      	subs	r0, #10
 8007a4c:	3301      	adds	r3, #1
 8007a4e:	b2c0      	uxtb	r0, r0
 8007a50:	e7f5      	b.n	8007a3e <RTC_ByteToBcd2+0x2>
	...

08007a54 <HAL_RTC_SetAlarm_IT>:
 8007a54:	e92d 47f0 	stmdb	sp!, {r4, r5, r6, r7, r8, r9, sl, lr}
 8007a58:	f890 302c 	ldrb.w	r3, [r0, #44]	; 0x2c
 8007a5c:	2b01      	cmp	r3, #1
 8007a5e:	4605      	mov	r5, r0
 8007a60:	f04f 0002 	mov.w	r0, #2
 8007a64:	d069      	beq.n	8007b3a <HAL_RTC_SetAlarm_IT+0xe6>
 8007a66:	2301      	movs	r3, #1
 8007a68:	f885 302c 	strb.w	r3, [r5, #44]	; 0x2c
 8007a6c:	4b4e      	ldr	r3, [pc, #312]	; (8007ba8 <HAL_RTC_SetAlarm_IT+0x154>)
 8007a6e:	f885 002d 	strb.w	r0, [r5, #45]	; 0x2d
 8007a72:	68de      	ldr	r6, [r3, #12]
 8007a74:	f406 7640 	and.w	r6, r6, #768	; 0x300
 8007a78:	f5b6 7f80 	cmp.w	r6, #256	; 0x100
 8007a7c:	d078      	beq.n	8007b70 <HAL_RTC_SetAlarm_IT+0x11c>
 8007a7e:	694c      	ldr	r4, [r1, #20]
 8007a80:	7808      	ldrb	r0, [r1, #0]
 8007a82:	f891 8001 	ldrb.w	r8, [r1, #1]
 8007a86:	f891 a002 	ldrb.w	sl, [r1, #2]
 8007a8a:	f891 7024 	ldrb.w	r7, [r1, #36]	; 0x24
 8007a8e:	2a00      	cmp	r2, #0
 8007a90:	d155      	bne.n	8007b3e <HAL_RTC_SetAlarm_IT+0xea>
 8007a92:	699a      	ldr	r2, [r3, #24]
 8007a94:	f012 0240 	ands.w	r2, r2, #64	; 0x40
 8007a98:	bf08      	it	eq
 8007a9a:	70ca      	strbeq	r2, [r1, #3]
 8007a9c:	f7ff ffce 	bl	8007a3c <RTC_ByteToBcd2>
 8007aa0:	4681      	mov	r9, r0
 8007aa2:	4640      	mov	r0, r8
 8007aa4:	f7ff ffca 	bl	8007a3c <RTC_ByteToBcd2>
 8007aa8:	4680      	mov	r8, r0
 8007aaa:	4650      	mov	r0, sl
 8007aac:	f7ff ffc6 	bl	8007a3c <RTC_ByteToBcd2>
 8007ab0:	4682      	mov	sl, r0
 8007ab2:	4638      	mov	r0, r7
 8007ab4:	f7ff ffc2 	bl	8007a3c <RTC_ByteToBcd2>
 8007ab8:	6a0a      	ldr	r2, [r1, #32]
 8007aba:	78cb      	ldrb	r3, [r1, #3]
 8007abc:	4322      	orrs	r2, r4
 8007abe:	ea42 5283 	orr.w	r2, r2, r3, lsl #22
 8007ac2:	ea42 030a 	orr.w	r3, r2, sl
 8007ac6:	ea43 4309 	orr.w	r3, r3, r9, lsl #16
 8007aca:	ea43 2308 	orr.w	r3, r3, r8, lsl #8
 8007ace:	ea43 6300 	orr.w	r3, r3, r0, lsl #24
 8007ad2:	4a35      	ldr	r2, [pc, #212]	; (8007ba8 <HAL_RTC_SetAlarm_IT+0x154>)
 8007ad4:	20ca      	movs	r0, #202	; 0xca
 8007ad6:	6250      	str	r0, [r2, #36]	; 0x24
 8007ad8:	2053      	movs	r0, #83	; 0x53
 8007ada:	6250      	str	r0, [r2, #36]	; 0x24
 8007adc:	6a8c      	ldr	r4, [r1, #40]	; 0x28
 8007ade:	6988      	ldr	r0, [r1, #24]
 8007ae0:	f5b4 7f80 	cmp.w	r4, #256	; 0x100
 8007ae4:	6994      	ldr	r4, [r2, #24]
 8007ae6:	d145      	bne.n	8007b74 <HAL_RTC_SetAlarm_IT+0x120>
 8007ae8:	f424 5488 	bic.w	r4, r4, #4352	; 0x1100
 8007aec:	6194      	str	r4, [r2, #24]
 8007aee:	2401      	movs	r4, #1
 8007af0:	65d4      	str	r4, [r2, #92]	; 0x5c
 8007af2:	f5b6 7f80 	cmp.w	r6, #256	; 0x100
 8007af6:	bf09      	itett	eq
 8007af8:	69cb      	ldreq	r3, [r1, #28]
 8007afa:	6413      	strne	r3, [r2, #64]	; 0x40
 8007afc:	4303      	orreq	r3, r0
 8007afe:	6453      	streq	r3, [r2, #68]	; 0x44
 8007b00:	bf18      	it	ne
 8007b02:	6450      	strne	r0, [r2, #68]	; 0x44
 8007b04:	4b28      	ldr	r3, [pc, #160]	; (8007ba8 <HAL_RTC_SetAlarm_IT+0x154>)
 8007b06:	684a      	ldr	r2, [r1, #4]
 8007b08:	671a      	str	r2, [r3, #112]	; 0x70
 8007b0a:	6b2a      	ldr	r2, [r5, #48]	; 0x30
 8007b0c:	f042 0201 	orr.w	r2, r2, #1
 8007b10:	632a      	str	r2, [r5, #48]	; 0x30
 8007b12:	699a      	ldr	r2, [r3, #24]
 8007b14:	f442 5288 	orr.w	r2, r2, #4352	; 0x1100
 8007b18:	619a      	str	r2, [r3, #24]
 8007b1a:	4a24      	ldr	r2, [pc, #144]	; (8007bac <HAL_RTC_SetAlarm_IT+0x158>)
 8007b1c:	f8d2 3080 	ldr.w	r3, [r2, #128]	; 0x80
 8007b20:	f443 3300 	orr.w	r3, r3, #131072	; 0x20000
 8007b24:	f8c2 3080 	str.w	r3, [r2, #128]	; 0x80
 8007b28:	4b1f      	ldr	r3, [pc, #124]	; (8007ba8 <HAL_RTC_SetAlarm_IT+0x154>)
 8007b2a:	22ff      	movs	r2, #255	; 0xff
 8007b2c:	625a      	str	r2, [r3, #36]	; 0x24
 8007b2e:	2000      	movs	r0, #0
 8007b30:	2301      	movs	r3, #1
 8007b32:	f885 302d 	strb.w	r3, [r5, #45]	; 0x2d
 8007b36:	f885 002c 	strb.w	r0, [r5, #44]	; 0x2c
 8007b3a:	e8bd 87f0 	ldmia.w	sp!, {r4, r5, r6, r7, r8, r9, sl, pc}
 8007b3e:	f1b4 3f80 	cmp.w	r4, #2155905152	; 0x80808080
 8007b42:	d007      	beq.n	8007b54 <HAL_RTC_SetAlarm_IT+0x100>
 8007b44:	f5b4 0f00 	cmp.w	r4, #8388608	; 0x800000
 8007b48:	d004      	beq.n	8007b54 <HAL_RTC_SetAlarm_IT+0x100>
 8007b4a:	699a      	ldr	r2, [r3, #24]
 8007b4c:	f012 0240 	ands.w	r2, r2, #64	; 0x40
 8007b50:	bf08      	it	eq
 8007b52:	70ca      	strbeq	r2, [r1, #3]
 8007b54:	6a0a      	ldr	r2, [r1, #32]
 8007b56:	4314      	orrs	r4, r2
 8007b58:	ea44 040a 	orr.w	r4, r4, sl
 8007b5c:	ea44 4300 	orr.w	r3, r4, r0, lsl #16
 8007b60:	78c8      	ldrb	r0, [r1, #3]
 8007b62:	ea43 2308 	orr.w	r3, r3, r8, lsl #8
 8007b66:	ea43 5380 	orr.w	r3, r3, r0, lsl #22
 8007b6a:	ea43 6307 	orr.w	r3, r3, r7, lsl #24
 8007b6e:	e7b0      	b.n	8007ad2 <HAL_RTC_SetAlarm_IT+0x7e>
 8007b70:	2300      	movs	r3, #0
 8007b72:	e7ae      	b.n	8007ad2 <HAL_RTC_SetAlarm_IT+0x7e>
 8007b74:	f424 5408 	bic.w	r4, r4, #8704	; 0x2200
 8007b78:	6194      	str	r4, [r2, #24]
 8007b7a:	2402      	movs	r4, #2
 8007b7c:	65d4      	str	r4, [r2, #92]	; 0x5c
 8007b7e:	f5b6 7f80 	cmp.w	r6, #256	; 0x100
 8007b82:	bf09      	itett	eq
 8007b84:	69cb      	ldreq	r3, [r1, #28]
 8007b86:	6493      	strne	r3, [r2, #72]	; 0x48
 8007b88:	4303      	orreq	r3, r0
 8007b8a:	64d3      	streq	r3, [r2, #76]	; 0x4c
 8007b8c:	bf18      	it	ne
 8007b8e:	64d0      	strne	r0, [r2, #76]	; 0x4c
 8007b90:	4b05      	ldr	r3, [pc, #20]	; (8007ba8 <HAL_RTC_SetAlarm_IT+0x154>)
 8007b92:	684a      	ldr	r2, [r1, #4]
 8007b94:	675a      	str	r2, [r3, #116]	; 0x74
 8007b96:	6b2a      	ldr	r2, [r5, #48]	; 0x30
 8007b98:	f042 0202 	orr.w	r2, r2, #2
 8007b9c:	632a      	str	r2, [r5, #48]	; 0x30
 8007b9e:	699a      	ldr	r2, [r3, #24]
 8007ba0:	f442 5208 	orr.w	r2, r2, #8704	; 0x2200
 8007ba4:	e7b8      	b.n	8007b18 <HAL_RTC_SetAlarm_IT+0xc4>
 8007ba6:	bf00      	nop
 8007ba8:	40002800 	.word	0x40002800
 8007bac:	58000800 	.word	0x58000800

08007bb0 <HAL_RTCEx_EnableBypassShadow>:
 8007bb0:	f890 202c 	ldrb.w	r2, [r0, #44]	; 0x2c
 8007bb4:	2a01      	cmp	r2, #1
 8007bb6:	4603      	mov	r3, r0
 8007bb8:	f04f 0002 	mov.w	r0, #2
 8007bbc:	d012      	beq.n	8007be4 <HAL_RTCEx_EnableBypassShadow+0x34>
 8007bbe:	4a0a      	ldr	r2, [pc, #40]	; (8007be8 <HAL_RTCEx_EnableBypassShadow+0x38>)
 8007bc0:	f883 002d 	strb.w	r0, [r3, #45]	; 0x2d
 8007bc4:	21ca      	movs	r1, #202	; 0xca
 8007bc6:	6251      	str	r1, [r2, #36]	; 0x24
 8007bc8:	2153      	movs	r1, #83	; 0x53
 8007bca:	6251      	str	r1, [r2, #36]	; 0x24
 8007bcc:	6991      	ldr	r1, [r2, #24]
 8007bce:	f041 0120 	orr.w	r1, r1, #32
 8007bd2:	6191      	str	r1, [r2, #24]
 8007bd4:	21ff      	movs	r1, #255	; 0xff
 8007bd6:	6251      	str	r1, [r2, #36]	; 0x24
 8007bd8:	2000      	movs	r0, #0
 8007bda:	2201      	movs	r2, #1
 8007bdc:	f883 202d 	strb.w	r2, [r3, #45]	; 0x2d
 8007be0:	f883 002c 	strb.w	r0, [r3, #44]	; 0x2c
 8007be4:	4770      	bx	lr
 8007be6:	bf00      	nop
 8007be8:	40002800 	.word	0x40002800

08007bec <HAL_RTCEx_SetSSRU_IT>:
 8007bec:	f890 202c 	ldrb.w	r2, [r0, #44]	; 0x2c
 8007bf0:	2a01      	cmp	r2, #1
 8007bf2:	4603      	mov	r3, r0
 8007bf4:	f04f 0002 	mov.w	r0, #2
 8007bf8:	d019      	beq.n	8007c2e <HAL_RTCEx_SetSSRU_IT+0x42>
 8007bfa:	4a0d      	ldr	r2, [pc, #52]	; (8007c30 <HAL_RTCEx_SetSSRU_IT+0x44>)
 8007bfc:	f883 002d 	strb.w	r0, [r3, #45]	; 0x2d
 8007c00:	21ca      	movs	r1, #202	; 0xca
 8007c02:	6251      	str	r1, [r2, #36]	; 0x24
 8007c04:	2153      	movs	r1, #83	; 0x53
 8007c06:	6251      	str	r1, [r2, #36]	; 0x24
 8007c08:	6991      	ldr	r1, [r2, #24]
 8007c0a:	480a      	ldr	r0, [pc, #40]	; (8007c34 <HAL_RTCEx_SetSSRU_IT+0x48>)
 8007c0c:	f041 0180 	orr.w	r1, r1, #128	; 0x80
 8007c10:	6191      	str	r1, [r2, #24]
 8007c12:	f8d0 1080 	ldr.w	r1, [r0, #128]	; 0x80
 8007c16:	f441 2180 	orr.w	r1, r1, #262144	; 0x40000
 8007c1a:	f8c0 1080 	str.w	r1, [r0, #128]	; 0x80
 8007c1e:	21ff      	movs	r1, #255	; 0xff
 8007c20:	6251      	str	r1, [r2, #36]	; 0x24
 8007c22:	2000      	movs	r0, #0
 8007c24:	2201      	movs	r2, #1
 8007c26:	f883 202d 	strb.w	r2, [r3, #45]	; 0x2d
 8007c2a:	f883 002c 	strb.w	r0, [r3, #44]	; 0x2c
 8007c2e:	4770      	bx	lr
 8007c30:	40002800 	.word	0x40002800
 8007c34:	58000800 	.word	0x58000800

08007c38 <HAL_RTCEx_SSRUIRQHandler>:
 8007c38:	4b06      	ldr	r3, [pc, #24]	; (8007c54 <HAL_RTCEx_SSRUIRQHandler+0x1c>)
 8007c3a:	6d5a      	ldr	r2, [r3, #84]	; 0x54
 8007c3c:	0652      	lsls	r2, r2, #25
 8007c3e:	b510      	push	{r4, lr}
 8007c40:	4604      	mov	r4, r0
 8007c42:	d503      	bpl.n	8007c4c <HAL_RTCEx_SSRUIRQHandler+0x14>
 8007c44:	2240      	movs	r2, #64	; 0x40
 8007c46:	65da      	str	r2, [r3, #92]	; 0x5c
 8007c48:	f7fe f940 	bl	8005ecc <HAL_RTCEx_SSRUEventCallback>
 8007c4c:	2301      	movs	r3, #1
 8007c4e:	f884 302d 	strb.w	r3, [r4, #45]	; 0x2d
 8007c52:	bd10      	pop	{r4, pc}
 8007c54:	40002800 	.word	0x40002800

08007c58 <HAL_RTCEx_AlarmBEventCallback>:
 8007c58:	4770      	bx	lr

08007c5a <HAL_RTCEx_BKUPWrite>:
 8007c5a:	0089      	lsls	r1, r1, #2
 8007c5c:	f101 4180 	add.w	r1, r1, #1073741824	; 0x40000000
 8007c60:	f501 4131 	add.w	r1, r1, #45312	; 0xb100
 8007c64:	600a      	str	r2, [r1, #0]
 8007c66:	4770      	bx	lr

08007c68 <HAL_RTCEx_BKUPRead>:
 8007c68:	0089      	lsls	r1, r1, #2
 8007c6a:	f101 4180 	add.w	r1, r1, #1073741824	; 0x40000000
 8007c6e:	f501 4131 	add.w	r1, r1, #45312	; 0xb100
 8007c72:	6808      	ldr	r0, [r1, #0]
 8007c74:	4770      	bx	lr
	...

08007c78 <SPI_WaitFlagStateUntilTimeout>:
 8007c78:	e92d 47f3 	stmdb	sp!, {r0, r1, r4, r5, r6, r7, r8, r9, sl, lr}
 8007c7c:	461f      	mov	r7, r3
 8007c7e:	4689      	mov	r9, r1
 8007c80:	4690      	mov	r8, r2
 8007c82:	4604      	mov	r4, r0
 8007c84:	f7fd ff58 	bl	8005b38 <HAL_GetTick>
 8007c88:	9d0a      	ldr	r5, [sp, #40]	; 0x28
 8007c8a:	443d      	add	r5, r7
 8007c8c:	1a2d      	subs	r5, r5, r0
 8007c8e:	f7fd ff53 	bl	8005b38 <HAL_GetTick>
 8007c92:	4b26      	ldr	r3, [pc, #152]	; (8007d2c <SPI_WaitFlagStateUntilTimeout+0xb4>)
 8007c94:	681e      	ldr	r6, [r3, #0]
 8007c96:	f3c6 36cb 	ubfx	r6, r6, #15, #12
 8007c9a:	436e      	muls	r6, r5
 8007c9c:	4682      	mov	sl, r0
 8007c9e:	9601      	str	r6, [sp, #4]
 8007ca0:	6822      	ldr	r2, [r4, #0]
 8007ca2:	6893      	ldr	r3, [r2, #8]
 8007ca4:	ea39 0303 	bics.w	r3, r9, r3
 8007ca8:	bf0c      	ite	eq
 8007caa:	2301      	moveq	r3, #1
 8007cac:	2300      	movne	r3, #0
 8007cae:	4543      	cmp	r3, r8
 8007cb0:	d101      	bne.n	8007cb6 <SPI_WaitFlagStateUntilTimeout+0x3e>
 8007cb2:	2000      	movs	r0, #0
 8007cb4:	e02e      	b.n	8007d14 <SPI_WaitFlagStateUntilTimeout+0x9c>
 8007cb6:	1c7b      	adds	r3, r7, #1
 8007cb8:	d0f3      	beq.n	8007ca2 <SPI_WaitFlagStateUntilTimeout+0x2a>
 8007cba:	f7fd ff3d 	bl	8005b38 <HAL_GetTick>
 8007cbe:	eba0 000a 	sub.w	r0, r0, sl
 8007cc2:	42a8      	cmp	r0, r5
 8007cc4:	d329      	bcc.n	8007d1a <SPI_WaitFlagStateUntilTimeout+0xa2>
 8007cc6:	6823      	ldr	r3, [r4, #0]
 8007cc8:	685a      	ldr	r2, [r3, #4]
 8007cca:	f022 02e0 	bic.w	r2, r2, #224	; 0xe0
 8007cce:	605a      	str	r2, [r3, #4]
 8007cd0:	6862      	ldr	r2, [r4, #4]
 8007cd2:	f5b2 7f82 	cmp.w	r2, #260	; 0x104
 8007cd6:	d10a      	bne.n	8007cee <SPI_WaitFlagStateUntilTimeout+0x76>
 8007cd8:	68a2      	ldr	r2, [r4, #8]
 8007cda:	f5b2 4f00 	cmp.w	r2, #32768	; 0x8000
 8007cde:	d002      	beq.n	8007ce6 <SPI_WaitFlagStateUntilTimeout+0x6e>
 8007ce0:	f5b2 6f80 	cmp.w	r2, #1024	; 0x400
 8007ce4:	d103      	bne.n	8007cee <SPI_WaitFlagStateUntilTimeout+0x76>
 8007ce6:	681a      	ldr	r2, [r3, #0]
 8007ce8:	f022 0240 	bic.w	r2, r2, #64	; 0x40
 8007cec:	601a      	str	r2, [r3, #0]
 8007cee:	6aa2      	ldr	r2, [r4, #40]	; 0x28
 8007cf0:	f5b2 5f00 	cmp.w	r2, #8192	; 0x2000
 8007cf4:	d107      	bne.n	8007d06 <SPI_WaitFlagStateUntilTimeout+0x8e>
 8007cf6:	681a      	ldr	r2, [r3, #0]
 8007cf8:	f422 5200 	bic.w	r2, r2, #8192	; 0x2000
 8007cfc:	601a      	str	r2, [r3, #0]
 8007cfe:	681a      	ldr	r2, [r3, #0]
 8007d00:	f442 5200 	orr.w	r2, r2, #8192	; 0x2000
 8007d04:	601a      	str	r2, [r3, #0]
 8007d06:	2301      	movs	r3, #1
 8007d08:	f884 305d 	strb.w	r3, [r4, #93]	; 0x5d
 8007d0c:	2300      	movs	r3, #0
 8007d0e:	f884 305c 	strb.w	r3, [r4, #92]	; 0x5c
 8007d12:	2003      	movs	r0, #3
 8007d14:	b002      	add	sp, #8
 8007d16:	e8bd 87f0 	ldmia.w	sp!, {r4, r5, r6, r7, r8, r9, sl, pc}
 8007d1a:	9b01      	ldr	r3, [sp, #4]
 8007d1c:	2b00      	cmp	r3, #0
 8007d1e:	9b01      	ldr	r3, [sp, #4]
 8007d20:	f103 33ff 	add.w	r3, r3, #4294967295	; 0xffffffff
 8007d24:	bf08      	it	eq
 8007d26:	2500      	moveq	r5, #0
 8007d28:	9301      	str	r3, [sp, #4]
 8007d2a:	e7b9      	b.n	8007ca0 <SPI_WaitFlagStateUntilTimeout+0x28>
 8007d2c:	20000064 	.word	0x20000064

08007d30 <SPI_WaitFifoStateUntilTimeout>:
 8007d30:	e92d 4ff7 	stmdb	sp!, {r0, r1, r2, r4, r5, r6, r7, r8, r9, sl, fp, lr}
 8007d34:	4699      	mov	r9, r3
 8007d36:	2300      	movs	r3, #0
 8007d38:	f88d 3003 	strb.w	r3, [sp, #3]
 8007d3c:	4604      	mov	r4, r0
 8007d3e:	4688      	mov	r8, r1
 8007d40:	4617      	mov	r7, r2
 8007d42:	f7fd fef9 	bl	8005b38 <HAL_GetTick>
 8007d46:	9d0c      	ldr	r5, [sp, #48]	; 0x30
 8007d48:	444d      	add	r5, r9
 8007d4a:	1a2d      	subs	r5, r5, r0
 8007d4c:	f7fd fef4 	bl	8005b38 <HAL_GetTick>
 8007d50:	4b2c      	ldr	r3, [pc, #176]	; (8007e04 <SPI_WaitFifoStateUntilTimeout+0xd4>)
 8007d52:	f8d4 b000 	ldr.w	fp, [r4]
 8007d56:	681e      	ldr	r6, [r3, #0]
 8007d58:	2323      	movs	r3, #35	; 0x23
 8007d5a:	435e      	muls	r6, r3
 8007d5c:	0d36      	lsrs	r6, r6, #20
 8007d5e:	436e      	muls	r6, r5
 8007d60:	4682      	mov	sl, r0
 8007d62:	9601      	str	r6, [sp, #4]
 8007d64:	6822      	ldr	r2, [r4, #0]
 8007d66:	6893      	ldr	r3, [r2, #8]
 8007d68:	ea03 0308 	and.w	r3, r3, r8
 8007d6c:	42bb      	cmp	r3, r7
 8007d6e:	d101      	bne.n	8007d74 <SPI_WaitFifoStateUntilTimeout+0x44>
 8007d70:	2000      	movs	r0, #0
 8007d72:	e03a      	b.n	8007dea <SPI_WaitFifoStateUntilTimeout+0xba>
 8007d74:	f5b8 6fc0 	cmp.w	r8, #1536	; 0x600
 8007d78:	d107      	bne.n	8007d8a <SPI_WaitFifoStateUntilTimeout+0x5a>
 8007d7a:	b937      	cbnz	r7, 8007d8a <SPI_WaitFifoStateUntilTimeout+0x5a>
 8007d7c:	f89b 300c 	ldrb.w	r3, [fp, #12]
 8007d80:	b2db      	uxtb	r3, r3
 8007d82:	f88d 3003 	strb.w	r3, [sp, #3]
 8007d86:	f89d 3003 	ldrb.w	r3, [sp, #3]
 8007d8a:	f1b9 3fff 	cmp.w	r9, #4294967295	; 0xffffffff
 8007d8e:	d0ea      	beq.n	8007d66 <SPI_WaitFifoStateUntilTimeout+0x36>
 8007d90:	f7fd fed2 	bl	8005b38 <HAL_GetTick>
 8007d94:	eba0 000a 	sub.w	r0, r0, sl
 8007d98:	42a8      	cmp	r0, r5
 8007d9a:	d329      	bcc.n	8007df0 <SPI_WaitFifoStateUntilTimeout+0xc0>
 8007d9c:	6823      	ldr	r3, [r4, #0]
 8007d9e:	685a      	ldr	r2, [r3, #4]
 8007da0:	f022 02e0 	bic.w	r2, r2, #224	; 0xe0
 8007da4:	605a      	str	r2, [r3, #4]
 8007da6:	6862      	ldr	r2, [r4, #4]
 8007da8:	f5b2 7f82 	cmp.w	r2, #260	; 0x104
 8007dac:	d10a      	bne.n	8007dc4 <SPI_WaitFifoStateUntilTimeout+0x94>
 8007dae:	68a2      	ldr	r2, [r4, #8]
 8007db0:	f5b2 4f00 	cmp.w	r2, #32768	; 0x8000
 8007db4:	d002      	beq.n	8007dbc <SPI_WaitFifoStateUntilTimeout+0x8c>
 8007db6:	f5b2 6f80 	cmp.w	r2, #1024	; 0x400
 8007dba:	d103      	bne.n	8007dc4 <SPI_WaitFifoStateUntilTimeout+0x94>
 8007dbc:	681a      	ldr	r2, [r3, #0]
 8007dbe:	f022 0240 	bic.w	r2, r2, #64	; 0x40
 8007dc2:	601a      	str	r2, [r3, #0]
 8007dc4:	6aa2      	ldr	r2, [r4, #40]	; 0x28
 8007dc6:	f5b2 5f00 	cmp.w	r2, #8192	; 0x2000
 8007dca:	d107      	bne.n	8007ddc <SPI_WaitFifoStateUntilTimeout+0xac>
 8007dcc:	681a      	ldr	r2, [r3, #0]
 8007dce:	f422 5200 	bic.w	r2, r2, #8192	; 0x2000
 8007dd2:	601a      	str	r2, [r3, #0]
 8007dd4:	681a      	ldr	r2, [r3, #0]
 8007dd6:	f442 5200 	orr.w	r2, r2, #8192	; 0x2000
 8007dda:	601a      	str	r2, [r3, #0]
 8007ddc:	2301      	movs	r3, #1
 8007dde:	f884 305d 	strb.w	r3, [r4, #93]	; 0x5d
 8007de2:	2300      	movs	r3, #0
 8007de4:	f884 305c 	strb.w	r3, [r4, #92]	; 0x5c
 8007de8:	2003      	movs	r0, #3
 8007dea:	b003      	add	sp, #12
 8007dec:	e8bd 8ff0 	ldmia.w	sp!, {r4, r5, r6, r7, r8, r9, sl, fp, pc}
 8007df0:	9b01      	ldr	r3, [sp, #4]
 8007df2:	2b00      	cmp	r3, #0
 8007df4:	9b01      	ldr	r3, [sp, #4]
 8007df6:	f103 33ff 	add.w	r3, r3, #4294967295	; 0xffffffff
 8007dfa:	bf08      	it	eq
 8007dfc:	2500      	moveq	r5, #0
 8007dfe:	9301      	str	r3, [sp, #4]
 8007e00:	e7b0      	b.n	8007d64 <SPI_WaitFifoStateUntilTimeout+0x34>
 8007e02:	bf00      	nop
 8007e04:	20000064 	.word	0x20000064

08007e08 <SPI_EndRxTxTransaction>:
 8007e08:	b573      	push	{r0, r1, r4, r5, r6, lr}
 8007e0a:	460b      	mov	r3, r1
 8007e0c:	9200      	str	r2, [sp, #0]
 8007e0e:	460d      	mov	r5, r1
 8007e10:	4616      	mov	r6, r2
 8007e12:	f44f 51c0 	mov.w	r1, #6144	; 0x1800
 8007e16:	2200      	movs	r2, #0
 8007e18:	4604      	mov	r4, r0
 8007e1a:	f7ff ff89 	bl	8007d30 <SPI_WaitFifoStateUntilTimeout>
 8007e1e:	4602      	mov	r2, r0
 8007e20:	b128      	cbz	r0, 8007e2e <SPI_EndRxTxTransaction+0x26>
 8007e22:	6e23      	ldr	r3, [r4, #96]	; 0x60
 8007e24:	f043 0320 	orr.w	r3, r3, #32
 8007e28:	6623      	str	r3, [r4, #96]	; 0x60
 8007e2a:	2003      	movs	r0, #3
 8007e2c:	e011      	b.n	8007e52 <SPI_EndRxTxTransaction+0x4a>
 8007e2e:	9600      	str	r6, [sp, #0]
 8007e30:	462b      	mov	r3, r5
 8007e32:	2180      	movs	r1, #128	; 0x80
 8007e34:	4620      	mov	r0, r4
 8007e36:	f7ff ff1f 	bl	8007c78 <SPI_WaitFlagStateUntilTimeout>
 8007e3a:	4602      	mov	r2, r0
 8007e3c:	2800      	cmp	r0, #0
 8007e3e:	d1f0      	bne.n	8007e22 <SPI_EndRxTxTransaction+0x1a>
 8007e40:	9600      	str	r6, [sp, #0]
 8007e42:	462b      	mov	r3, r5
 8007e44:	f44f 61c0 	mov.w	r1, #1536	; 0x600
 8007e48:	4620      	mov	r0, r4
 8007e4a:	f7ff ff71 	bl	8007d30 <SPI_WaitFifoStateUntilTimeout>
 8007e4e:	2800      	cmp	r0, #0
 8007e50:	d1e7      	bne.n	8007e22 <SPI_EndRxTxTransaction+0x1a>
 8007e52:	b002      	add	sp, #8
 8007e54:	bd70      	pop	{r4, r5, r6, pc}

08007e56 <HAL_SPI_Init>:
 8007e56:	b5f8      	push	{r3, r4, r5, r6, r7, lr}
 8007e58:	4604      	mov	r4, r0
 8007e5a:	2800      	cmp	r0, #0
 8007e5c:	d07c      	beq.n	8007f58 <HAL_SPI_Init+0x102>
 8007e5e:	6a43      	ldr	r3, [r0, #36]	; 0x24
 8007e60:	2b00      	cmp	r3, #0
 8007e62:	d14f      	bne.n	8007f04 <HAL_SPI_Init+0xae>
 8007e64:	6842      	ldr	r2, [r0, #4]
 8007e66:	f5b2 7f82 	cmp.w	r2, #260	; 0x104
 8007e6a:	d000      	beq.n	8007e6e <HAL_SPI_Init+0x18>
 8007e6c:	61c3      	str	r3, [r0, #28]
 8007e6e:	f894 305d 	ldrb.w	r3, [r4, #93]	; 0x5d
 8007e72:	f003 02ff 	and.w	r2, r3, #255	; 0xff
 8007e76:	b923      	cbnz	r3, 8007e82 <HAL_SPI_Init+0x2c>
 8007e78:	f884 205c 	strb.w	r2, [r4, #92]	; 0x5c
 8007e7c:	4620      	mov	r0, r4
 8007e7e:	f7fd fd9b 	bl	80059b8 <HAL_SPI_MspInit>
 8007e82:	6822      	ldr	r2, [r4, #0]
 8007e84:	68e1      	ldr	r1, [r4, #12]
 8007e86:	2302      	movs	r3, #2
 8007e88:	f884 305d 	strb.w	r3, [r4, #93]	; 0x5d
 8007e8c:	6813      	ldr	r3, [r2, #0]
 8007e8e:	f5b1 6fe0 	cmp.w	r1, #1792	; 0x700
 8007e92:	f023 0340 	bic.w	r3, r3, #64	; 0x40
 8007e96:	6013      	str	r3, [r2, #0]
 8007e98:	f04f 0300 	mov.w	r3, #0
 8007e9c:	d85e      	bhi.n	8007f5c <HAL_SPI_Init+0x106>
 8007e9e:	f44f 5580 	mov.w	r5, #4096	; 0x1000
 8007ea2:	d000      	beq.n	8007ea6 <HAL_SPI_Init+0x50>
 8007ea4:	62a3      	str	r3, [r4, #40]	; 0x28
 8007ea6:	6863      	ldr	r3, [r4, #4]
 8007ea8:	68a7      	ldr	r7, [r4, #8]
 8007eaa:	69a0      	ldr	r0, [r4, #24]
 8007eac:	6aa6      	ldr	r6, [r4, #40]	; 0x28
 8007eae:	f407 4704 	and.w	r7, r7, #33792	; 0x8400
 8007eb2:	f403 7382 	and.w	r3, r3, #260	; 0x104
 8007eb6:	433b      	orrs	r3, r7
 8007eb8:	6927      	ldr	r7, [r4, #16]
 8007eba:	f007 0702 	and.w	r7, r7, #2
 8007ebe:	433b      	orrs	r3, r7
 8007ec0:	6967      	ldr	r7, [r4, #20]
 8007ec2:	f007 0701 	and.w	r7, r7, #1
 8007ec6:	433b      	orrs	r3, r7
 8007ec8:	f400 7700 	and.w	r7, r0, #512	; 0x200
 8007ecc:	433b      	orrs	r3, r7
 8007ece:	69e7      	ldr	r7, [r4, #28]
 8007ed0:	f007 0738 	and.w	r7, r7, #56	; 0x38
 8007ed4:	433b      	orrs	r3, r7
 8007ed6:	6a27      	ldr	r7, [r4, #32]
 8007ed8:	f007 0780 	and.w	r7, r7, #128	; 0x80
 8007edc:	433b      	orrs	r3, r7
 8007ede:	f406 5700 	and.w	r7, r6, #8192	; 0x2000
 8007ee2:	433b      	orrs	r3, r7
 8007ee4:	f5b6 5f00 	cmp.w	r6, #8192	; 0x2000
 8007ee8:	6013      	str	r3, [r2, #0]
 8007eea:	d111      	bne.n	8007f10 <HAL_SPI_Init+0xba>
 8007eec:	6b23      	ldr	r3, [r4, #48]	; 0x30
 8007eee:	bb83      	cbnz	r3, 8007f52 <HAL_SPI_Init+0xfc>
 8007ef0:	f5b1 6fe0 	cmp.w	r1, #1792	; 0x700
 8007ef4:	d90a      	bls.n	8007f0c <HAL_SPI_Init+0xb6>
 8007ef6:	2302      	movs	r3, #2
 8007ef8:	6323      	str	r3, [r4, #48]	; 0x30
 8007efa:	6813      	ldr	r3, [r2, #0]
 8007efc:	f443 6300 	orr.w	r3, r3, #2048	; 0x800
 8007f00:	6013      	str	r3, [r2, #0]
 8007f02:	e005      	b.n	8007f10 <HAL_SPI_Init+0xba>
 8007f04:	2300      	movs	r3, #0
 8007f06:	e9c0 3304 	strd	r3, r3, [r0, #16]
 8007f0a:	e7b0      	b.n	8007e6e <HAL_SPI_Init+0x18>
 8007f0c:	2301      	movs	r3, #1
 8007f0e:	6323      	str	r3, [r4, #48]	; 0x30
 8007f10:	6a63      	ldr	r3, [r4, #36]	; 0x24
 8007f12:	6b67      	ldr	r7, [r4, #52]	; 0x34
 8007f14:	f003 0310 	and.w	r3, r3, #16
 8007f18:	f007 0708 	and.w	r7, r7, #8
 8007f1c:	433b      	orrs	r3, r7
 8007f1e:	f401 6170 	and.w	r1, r1, #3840	; 0xf00
 8007f22:	0c00      	lsrs	r0, r0, #16
 8007f24:	4319      	orrs	r1, r3
 8007f26:	f000 0004 	and.w	r0, r0, #4
 8007f2a:	4301      	orrs	r1, r0
 8007f2c:	f5b6 5f00 	cmp.w	r6, #8192	; 0x2000
 8007f30:	bf08      	it	eq
 8007f32:	8da3      	ldrheq	r3, [r4, #44]	; 0x2c
 8007f34:	ea45 0501 	orr.w	r5, r5, r1
 8007f38:	6055      	str	r5, [r2, #4]
 8007f3a:	bf08      	it	eq
 8007f3c:	6113      	streq	r3, [r2, #16]
 8007f3e:	69d3      	ldr	r3, [r2, #28]
 8007f40:	f423 6300 	bic.w	r3, r3, #2048	; 0x800
 8007f44:	61d3      	str	r3, [r2, #28]
 8007f46:	2000      	movs	r0, #0
 8007f48:	2301      	movs	r3, #1
 8007f4a:	6620      	str	r0, [r4, #96]	; 0x60
 8007f4c:	f884 305d 	strb.w	r3, [r4, #93]	; 0x5d
 8007f50:	bdf8      	pop	{r3, r4, r5, r6, r7, pc}
 8007f52:	2b02      	cmp	r3, #2
 8007f54:	d1dc      	bne.n	8007f10 <HAL_SPI_Init+0xba>
 8007f56:	e7d0      	b.n	8007efa <HAL_SPI_Init+0xa4>
 8007f58:	2001      	movs	r0, #1
 8007f5a:	e7f9      	b.n	8007f50 <HAL_SPI_Init+0xfa>
 8007f5c:	461d      	mov	r5, r3
 8007f5e:	f5b1 6f70 	cmp.w	r1, #3840	; 0xf00
 8007f62:	e79e      	b.n	8007ea2 <HAL_SPI_Init+0x4c>

08007f64 <HAL_SPI_Transmit>:
 8007f64:	e92d 43f7 	stmdb	sp!, {r0, r1, r2, r4, r5, r6, r7, r8, r9, lr}
 8007f68:	461f      	mov	r7, r3
 8007f6a:	f890 305c 	ldrb.w	r3, [r0, #92]	; 0x5c
 8007f6e:	2b01      	cmp	r3, #1
 8007f70:	4604      	mov	r4, r0
 8007f72:	460d      	mov	r5, r1
 8007f74:	4690      	mov	r8, r2
 8007f76:	f000 80cf 	beq.w	8008118 <HAL_SPI_Transmit+0x1b4>
 8007f7a:	2301      	movs	r3, #1
 8007f7c:	f880 305c 	strb.w	r3, [r0, #92]	; 0x5c
 8007f80:	f7fd fdda 	bl	8005b38 <HAL_GetTick>
 8007f84:	f894 305d 	ldrb.w	r3, [r4, #93]	; 0x5d
 8007f88:	2b01      	cmp	r3, #1
 8007f8a:	4681      	mov	r9, r0
 8007f8c:	b2d8      	uxtb	r0, r3
 8007f8e:	f040 80c1 	bne.w	8008114 <HAL_SPI_Transmit+0x1b0>
 8007f92:	2d00      	cmp	r5, #0
 8007f94:	d079      	beq.n	800808a <HAL_SPI_Transmit+0x126>
 8007f96:	f1b8 0f00 	cmp.w	r8, #0
 8007f9a:	d076      	beq.n	800808a <HAL_SPI_Transmit+0x126>
 8007f9c:	2303      	movs	r3, #3
 8007f9e:	f884 305d 	strb.w	r3, [r4, #93]	; 0x5d
 8007fa2:	2300      	movs	r3, #0
 8007fa4:	6623      	str	r3, [r4, #96]	; 0x60
 8007fa6:	e9c4 3313 	strd	r3, r3, [r4, #76]	; 0x4c
 8007faa:	f8a4 803e 	strh.w	r8, [r4, #62]	; 0x3e
 8007fae:	6423      	str	r3, [r4, #64]	; 0x40
 8007fb0:	f8a4 3044 	strh.w	r3, [r4, #68]	; 0x44
 8007fb4:	f8a4 3046 	strh.w	r3, [r4, #70]	; 0x46
 8007fb8:	68a3      	ldr	r3, [r4, #8]
 8007fba:	6826      	ldr	r6, [r4, #0]
 8007fbc:	63a5      	str	r5, [r4, #56]	; 0x38
 8007fbe:	f5b3 4f00 	cmp.w	r3, #32768	; 0x8000
 8007fc2:	f8a4 803c 	strh.w	r8, [r4, #60]	; 0x3c
 8007fc6:	d107      	bne.n	8007fd8 <HAL_SPI_Transmit+0x74>
 8007fc8:	6833      	ldr	r3, [r6, #0]
 8007fca:	f023 0340 	bic.w	r3, r3, #64	; 0x40
 8007fce:	6033      	str	r3, [r6, #0]
 8007fd0:	6833      	ldr	r3, [r6, #0]
 8007fd2:	f443 4380 	orr.w	r3, r3, #16384	; 0x4000
 8007fd6:	6033      	str	r3, [r6, #0]
 8007fd8:	6aa3      	ldr	r3, [r4, #40]	; 0x28
 8007fda:	f5b3 5f00 	cmp.w	r3, #8192	; 0x2000
 8007fde:	d107      	bne.n	8007ff0 <HAL_SPI_Transmit+0x8c>
 8007fe0:	6833      	ldr	r3, [r6, #0]
 8007fe2:	f423 5300 	bic.w	r3, r3, #8192	; 0x2000
 8007fe6:	6033      	str	r3, [r6, #0]
 8007fe8:	6833      	ldr	r3, [r6, #0]
 8007fea:	f443 5300 	orr.w	r3, r3, #8192	; 0x2000
 8007fee:	6033      	str	r3, [r6, #0]
 8007ff0:	6833      	ldr	r3, [r6, #0]
 8007ff2:	68e2      	ldr	r2, [r4, #12]
 8007ff4:	065b      	lsls	r3, r3, #25
 8007ff6:	bf5e      	ittt	pl
 8007ff8:	6833      	ldrpl	r3, [r6, #0]
 8007ffa:	f043 0340 	orrpl.w	r3, r3, #64	; 0x40
 8007ffe:	6033      	strpl	r3, [r6, #0]
 8008000:	f5b2 6fe0 	cmp.w	r2, #1792	; 0x700
 8008004:	6863      	ldr	r3, [r4, #4]
 8008006:	d94c      	bls.n	80080a2 <HAL_SPI_Transmit+0x13e>
 8008008:	b113      	cbz	r3, 8008010 <HAL_SPI_Transmit+0xac>
 800800a:	f1b8 0f01 	cmp.w	r8, #1
 800800e:	d107      	bne.n	8008020 <HAL_SPI_Transmit+0xbc>
 8008010:	f835 3b02 	ldrh.w	r3, [r5], #2
 8008014:	60f3      	str	r3, [r6, #12]
 8008016:	63a5      	str	r5, [r4, #56]	; 0x38
 8008018:	8fe3      	ldrh	r3, [r4, #62]	; 0x3e
 800801a:	3b01      	subs	r3, #1
 800801c:	b29b      	uxth	r3, r3
 800801e:	87e3      	strh	r3, [r4, #62]	; 0x3e
 8008020:	8fe3      	ldrh	r3, [r4, #62]	; 0x3e
 8008022:	b29b      	uxth	r3, r3
 8008024:	b9f3      	cbnz	r3, 8008064 <HAL_SPI_Transmit+0x100>
 8008026:	6aa3      	ldr	r3, [r4, #40]	; 0x28
 8008028:	f5b3 5f00 	cmp.w	r3, #8192	; 0x2000
 800802c:	d104      	bne.n	8008038 <HAL_SPI_Transmit+0xd4>
 800802e:	6822      	ldr	r2, [r4, #0]
 8008030:	6813      	ldr	r3, [r2, #0]
 8008032:	f443 5380 	orr.w	r3, r3, #4096	; 0x1000
 8008036:	6013      	str	r3, [r2, #0]
 8008038:	464a      	mov	r2, r9
 800803a:	4639      	mov	r1, r7
 800803c:	4620      	mov	r0, r4
 800803e:	f7ff fee3 	bl	8007e08 <SPI_EndRxTxTransaction>
 8008042:	b108      	cbz	r0, 8008048 <HAL_SPI_Transmit+0xe4>
 8008044:	2320      	movs	r3, #32
 8008046:	6623      	str	r3, [r4, #96]	; 0x60
 8008048:	68a3      	ldr	r3, [r4, #8]
 800804a:	b933      	cbnz	r3, 800805a <HAL_SPI_Transmit+0xf6>
 800804c:	9301      	str	r3, [sp, #4]
 800804e:	6823      	ldr	r3, [r4, #0]
 8008050:	68da      	ldr	r2, [r3, #12]
 8008052:	9201      	str	r2, [sp, #4]
 8008054:	689b      	ldr	r3, [r3, #8]
 8008056:	9301      	str	r3, [sp, #4]
 8008058:	9b01      	ldr	r3, [sp, #4]
 800805a:	6e20      	ldr	r0, [r4, #96]	; 0x60
 800805c:	3800      	subs	r0, #0
 800805e:	bf18      	it	ne
 8008060:	2001      	movne	r0, #1
 8008062:	e012      	b.n	800808a <HAL_SPI_Transmit+0x126>
 8008064:	6822      	ldr	r2, [r4, #0]
 8008066:	6893      	ldr	r3, [r2, #8]
 8008068:	079d      	lsls	r5, r3, #30
 800806a:	d505      	bpl.n	8008078 <HAL_SPI_Transmit+0x114>
 800806c:	6ba3      	ldr	r3, [r4, #56]	; 0x38
 800806e:	f833 1b02 	ldrh.w	r1, [r3], #2
 8008072:	60d1      	str	r1, [r2, #12]
 8008074:	63a3      	str	r3, [r4, #56]	; 0x38
 8008076:	e7cf      	b.n	8008018 <HAL_SPI_Transmit+0xb4>
 8008078:	f7fd fd5e 	bl	8005b38 <HAL_GetTick>
 800807c:	eba0 0009 	sub.w	r0, r0, r9
 8008080:	42b8      	cmp	r0, r7
 8008082:	d30b      	bcc.n	800809c <HAL_SPI_Transmit+0x138>
 8008084:	1c78      	adds	r0, r7, #1
 8008086:	d0cb      	beq.n	8008020 <HAL_SPI_Transmit+0xbc>
 8008088:	2003      	movs	r0, #3
 800808a:	2301      	movs	r3, #1
 800808c:	f884 305d 	strb.w	r3, [r4, #93]	; 0x5d
 8008090:	2300      	movs	r3, #0
 8008092:	f884 305c 	strb.w	r3, [r4, #92]	; 0x5c
 8008096:	b003      	add	sp, #12
 8008098:	e8bd 83f0 	ldmia.w	sp!, {r4, r5, r6, r7, r8, r9, pc}
 800809c:	2f00      	cmp	r7, #0
 800809e:	d1bf      	bne.n	8008020 <HAL_SPI_Transmit+0xbc>
 80080a0:	e7f2      	b.n	8008088 <HAL_SPI_Transmit+0x124>
 80080a2:	b113      	cbz	r3, 80080aa <HAL_SPI_Transmit+0x146>
 80080a4:	f1b8 0f01 	cmp.w	r8, #1
 80080a8:	d113      	bne.n	80080d2 <HAL_SPI_Transmit+0x16e>
 80080aa:	8fe3      	ldrh	r3, [r4, #62]	; 0x3e
 80080ac:	b29b      	uxth	r3, r3
 80080ae:	2b01      	cmp	r3, #1
 80080b0:	d906      	bls.n	80080c0 <HAL_SPI_Transmit+0x15c>
 80080b2:	f835 3b02 	ldrh.w	r3, [r5], #2
 80080b6:	60f3      	str	r3, [r6, #12]
 80080b8:	63a5      	str	r5, [r4, #56]	; 0x38
 80080ba:	8fe3      	ldrh	r3, [r4, #62]	; 0x3e
 80080bc:	3b02      	subs	r3, #2
 80080be:	e006      	b.n	80080ce <HAL_SPI_Transmit+0x16a>
 80080c0:	782b      	ldrb	r3, [r5, #0]
 80080c2:	7333      	strb	r3, [r6, #12]
 80080c4:	6ba3      	ldr	r3, [r4, #56]	; 0x38
 80080c6:	3301      	adds	r3, #1
 80080c8:	63a3      	str	r3, [r4, #56]	; 0x38
 80080ca:	8fe3      	ldrh	r3, [r4, #62]	; 0x3e
 80080cc:	3b01      	subs	r3, #1
 80080ce:	b29b      	uxth	r3, r3
 80080d0:	87e3      	strh	r3, [r4, #62]	; 0x3e
 80080d2:	8fe3      	ldrh	r3, [r4, #62]	; 0x3e
 80080d4:	b29b      	uxth	r3, r3
 80080d6:	2b00      	cmp	r3, #0
 80080d8:	d0a5      	beq.n	8008026 <HAL_SPI_Transmit+0xc2>
 80080da:	6822      	ldr	r2, [r4, #0]
 80080dc:	6893      	ldr	r3, [r2, #8]
 80080de:	0799      	lsls	r1, r3, #30
 80080e0:	d50c      	bpl.n	80080fc <HAL_SPI_Transmit+0x198>
 80080e2:	8fe1      	ldrh	r1, [r4, #62]	; 0x3e
 80080e4:	6ba3      	ldr	r3, [r4, #56]	; 0x38
 80080e6:	b289      	uxth	r1, r1
 80080e8:	2901      	cmp	r1, #1
 80080ea:	d904      	bls.n	80080f6 <HAL_SPI_Transmit+0x192>
 80080ec:	f833 1b02 	ldrh.w	r1, [r3], #2
 80080f0:	60d1      	str	r1, [r2, #12]
 80080f2:	63a3      	str	r3, [r4, #56]	; 0x38
 80080f4:	e7e1      	b.n	80080ba <HAL_SPI_Transmit+0x156>
 80080f6:	781b      	ldrb	r3, [r3, #0]
 80080f8:	7313      	strb	r3, [r2, #12]
 80080fa:	e7e3      	b.n	80080c4 <HAL_SPI_Transmit+0x160>
 80080fc:	f7fd fd1c 	bl	8005b38 <HAL_GetTick>
 8008100:	eba0 0009 	sub.w	r0, r0, r9
 8008104:	42b8      	cmp	r0, r7
 8008106:	d302      	bcc.n	800810e <HAL_SPI_Transmit+0x1aa>
 8008108:	1c7b      	adds	r3, r7, #1
 800810a:	d0e2      	beq.n	80080d2 <HAL_SPI_Transmit+0x16e>
 800810c:	e7bc      	b.n	8008088 <HAL_SPI_Transmit+0x124>
 800810e:	2f00      	cmp	r7, #0
 8008110:	d1df      	bne.n	80080d2 <HAL_SPI_Transmit+0x16e>
 8008112:	e7b9      	b.n	8008088 <HAL_SPI_Transmit+0x124>
 8008114:	2002      	movs	r0, #2
 8008116:	e7b8      	b.n	800808a <HAL_SPI_Transmit+0x126>
 8008118:	2002      	movs	r0, #2
 800811a:	e7bc      	b.n	8008096 <HAL_SPI_Transmit+0x132>

0800811c <LL_PWR_UnselectSUBGHZSPI_NSS>:
 800811c:	4a03      	ldr	r2, [pc, #12]	; (800812c <LL_PWR_UnselectSUBGHZSPI_NSS+0x10>)
 800811e:	f8d2 3090 	ldr.w	r3, [r2, #144]	; 0x90
 8008122:	f443 4300 	orr.w	r3, r3, #32768	; 0x8000
 8008126:	f8c2 3090 	str.w	r3, [r2, #144]	; 0x90
 800812a:	4770      	bx	lr
 800812c:	58000400 	.word	0x58000400

08008130 <LL_PWR_SelectSUBGHZSPI_NSS>:
 8008130:	4a03      	ldr	r2, [pc, #12]	; (8008140 <LL_PWR_SelectSUBGHZSPI_NSS+0x10>)
 8008132:	f8d2 3090 	ldr.w	r3, [r2, #144]	; 0x90
 8008136:	f423 4300 	bic.w	r3, r3, #32768	; 0x8000
 800813a:	f8c2 3090 	str.w	r3, [r2, #144]	; 0x90
 800813e:	4770      	bx	lr
 8008140:	58000400 	.word	0x58000400

08008144 <SUBGHZSPI_Init>:
 8008144:	4b07      	ldr	r3, [pc, #28]	; (8008164 <SUBGHZSPI_Init+0x20>)
 8008146:	681a      	ldr	r2, [r3, #0]
 8008148:	f022 0240 	bic.w	r2, r2, #64	; 0x40
 800814c:	601a      	str	r2, [r3, #0]
 800814e:	f440 7041 	orr.w	r0, r0, #772	; 0x304
 8008152:	f44f 52b8 	mov.w	r2, #5888	; 0x1700
 8008156:	6018      	str	r0, [r3, #0]
 8008158:	605a      	str	r2, [r3, #4]
 800815a:	681a      	ldr	r2, [r3, #0]
 800815c:	f042 0240 	orr.w	r2, r2, #64	; 0x40
 8008160:	601a      	str	r2, [r3, #0]
 8008162:	4770      	bx	lr
 8008164:	58010000 	.word	0x58010000

08008168 <HAL_SUBGHZ_Init>:
 8008168:	b513      	push	{r0, r1, r4, lr}
 800816a:	4604      	mov	r4, r0
 800816c:	2800      	cmp	r0, #0
 800816e:	d042      	beq.n	80081f6 <HAL_SUBGHZ_Init+0x8e>
 8008170:	7983      	ldrb	r3, [r0, #6]
 8008172:	f003 02ff 	and.w	r2, r3, #255	; 0xff
 8008176:	b913      	cbnz	r3, 800817e <HAL_SUBGHZ_Init+0x16>
 8008178:	7142      	strb	r2, [r0, #5]
 800817a:	f7fd fcb3 	bl	8005ae4 <HAL_SUBGHZ_MspInit>
 800817e:	2302      	movs	r3, #2
 8008180:	f04f 42b0 	mov.w	r2, #1476395008	; 0x58000000
 8008184:	71a3      	strb	r3, [r4, #6]
 8008186:	f8d2 3094 	ldr.w	r3, [r2, #148]	; 0x94
 800818a:	f423 4300 	bic.w	r3, r3, #32768	; 0x8000
 800818e:	f8c2 3094 	str.w	r3, [r2, #148]	; 0x94
 8008192:	4b1a      	ldr	r3, [pc, #104]	; (80081fc <HAL_SUBGHZ_Init+0x94>)
 8008194:	681b      	ldr	r3, [r3, #0]
 8008196:	211c      	movs	r1, #28
 8008198:	434b      	muls	r3, r1
 800819a:	0cdb      	lsrs	r3, r3, #19
 800819c:	2164      	movs	r1, #100	; 0x64
 800819e:	434b      	muls	r3, r1
 80081a0:	9301      	str	r3, [sp, #4]
 80081a2:	9b01      	ldr	r3, [sp, #4]
 80081a4:	b9f3      	cbnz	r3, 80081e4 <HAL_SUBGHZ_Init+0x7c>
 80081a6:	2101      	movs	r1, #1
 80081a8:	60a1      	str	r1, [r4, #8]
 80081aa:	f7ff ffb7 	bl	800811c <LL_PWR_UnselectSUBGHZSPI_NSS>
 80081ae:	4a14      	ldr	r2, [pc, #80]	; (8008200 <HAL_SUBGHZ_Init+0x98>)
 80081b0:	f8d2 3090 	ldr.w	r3, [r2, #144]	; 0x90
 80081b4:	f443 5380 	orr.w	r3, r3, #4096	; 0x1000
 80081b8:	f8c2 3090 	str.w	r3, [r2, #144]	; 0x90
 80081bc:	4b11      	ldr	r3, [pc, #68]	; (8008204 <HAL_SUBGHZ_Init+0x9c>)
 80081be:	689a      	ldr	r2, [r3, #8]
 80081c0:	f442 6200 	orr.w	r2, r2, #2048	; 0x800
 80081c4:	609a      	str	r2, [r3, #8]
 80081c6:	f44f 6200 	mov.w	r2, #2048	; 0x800
 80081ca:	619a      	str	r2, [r3, #24]
 80081cc:	b929      	cbnz	r1, 80081da <HAL_SUBGHZ_Init+0x72>
 80081ce:	6820      	ldr	r0, [r4, #0]
 80081d0:	f7ff ffb8 	bl	8008144 <SUBGHZSPI_Init>
 80081d4:	2301      	movs	r3, #1
 80081d6:	7123      	strb	r3, [r4, #4]
 80081d8:	60a1      	str	r1, [r4, #8]
 80081da:	2301      	movs	r3, #1
 80081dc:	71a3      	strb	r3, [r4, #6]
 80081de:	4608      	mov	r0, r1
 80081e0:	b002      	add	sp, #8
 80081e2:	bd10      	pop	{r4, pc}
 80081e4:	9b01      	ldr	r3, [sp, #4]
 80081e6:	3b01      	subs	r3, #1
 80081e8:	9301      	str	r3, [sp, #4]
 80081ea:	f8d2 1094 	ldr.w	r1, [r2, #148]	; 0x94
 80081ee:	f411 4180 	ands.w	r1, r1, #16384	; 0x4000
 80081f2:	d1d6      	bne.n	80081a2 <HAL_SUBGHZ_Init+0x3a>
 80081f4:	e7d9      	b.n	80081aa <HAL_SUBGHZ_Init+0x42>
 80081f6:	2101      	movs	r1, #1
 80081f8:	e7f1      	b.n	80081de <HAL_SUBGHZ_Init+0x76>
 80081fa:	bf00      	nop
 80081fc:	20000064 	.word	0x20000064
 8008200:	58000800 	.word	0x58000800
 8008204:	58000400 	.word	0x58000400

08008208 <SUBGHZSPI_Transmit>:
 8008208:	b537      	push	{r0, r1, r2, r4, r5, lr}
 800820a:	4d17      	ldr	r5, [pc, #92]	; (8008268 <SUBGHZSPI_Transmit+0x60>)
 800820c:	682b      	ldr	r3, [r5, #0]
 800820e:	4602      	mov	r2, r0
 8008210:	201c      	movs	r0, #28
 8008212:	4343      	muls	r3, r0
 8008214:	0cdb      	lsrs	r3, r3, #19
 8008216:	2064      	movs	r0, #100	; 0x64
 8008218:	4343      	muls	r3, r0
 800821a:	4814      	ldr	r0, [pc, #80]	; (800826c <SUBGHZSPI_Transmit+0x64>)
 800821c:	9301      	str	r3, [sp, #4]
 800821e:	9b01      	ldr	r3, [sp, #4]
 8008220:	b993      	cbnz	r3, 8008248 <SUBGHZSPI_Transmit+0x40>
 8008222:	2001      	movs	r0, #1
 8008224:	6090      	str	r0, [r2, #8]
 8008226:	4c11      	ldr	r4, [pc, #68]	; (800826c <SUBGHZSPI_Transmit+0x64>)
 8008228:	7321      	strb	r1, [r4, #12]
 800822a:	682b      	ldr	r3, [r5, #0]
 800822c:	211c      	movs	r1, #28
 800822e:	434b      	muls	r3, r1
 8008230:	0cdb      	lsrs	r3, r3, #19
 8008232:	2164      	movs	r1, #100	; 0x64
 8008234:	434b      	muls	r3, r1
 8008236:	9301      	str	r3, [sp, #4]
 8008238:	9b01      	ldr	r3, [sp, #4]
 800823a:	b96b      	cbnz	r3, 8008258 <SUBGHZSPI_Transmit+0x50>
 800823c:	2001      	movs	r0, #1
 800823e:	6090      	str	r0, [r2, #8]
 8008240:	4b0a      	ldr	r3, [pc, #40]	; (800826c <SUBGHZSPI_Transmit+0x64>)
 8008242:	68db      	ldr	r3, [r3, #12]
 8008244:	b003      	add	sp, #12
 8008246:	bd30      	pop	{r4, r5, pc}
 8008248:	9b01      	ldr	r3, [sp, #4]
 800824a:	3b01      	subs	r3, #1
 800824c:	9301      	str	r3, [sp, #4]
 800824e:	6883      	ldr	r3, [r0, #8]
 8008250:	079c      	lsls	r4, r3, #30
 8008252:	d5e4      	bpl.n	800821e <SUBGHZSPI_Transmit+0x16>
 8008254:	2000      	movs	r0, #0
 8008256:	e7e6      	b.n	8008226 <SUBGHZSPI_Transmit+0x1e>
 8008258:	9b01      	ldr	r3, [sp, #4]
 800825a:	3b01      	subs	r3, #1
 800825c:	9301      	str	r3, [sp, #4]
 800825e:	68a3      	ldr	r3, [r4, #8]
 8008260:	07db      	lsls	r3, r3, #31
 8008262:	d5e9      	bpl.n	8008238 <SUBGHZSPI_Transmit+0x30>
 8008264:	e7ec      	b.n	8008240 <SUBGHZSPI_Transmit+0x38>
 8008266:	bf00      	nop
 8008268:	20000064 	.word	0x20000064
 800826c:	58010000 	.word	0x58010000

08008270 <SUBGHZSPI_Receive>:
 8008270:	b537      	push	{r0, r1, r2, r4, r5, lr}
 8008272:	4d18      	ldr	r5, [pc, #96]	; (80082d4 <SUBGHZSPI_Receive+0x64>)
 8008274:	682b      	ldr	r3, [r5, #0]
 8008276:	4602      	mov	r2, r0
 8008278:	201c      	movs	r0, #28
 800827a:	4343      	muls	r3, r0
 800827c:	0cdb      	lsrs	r3, r3, #19
 800827e:	2064      	movs	r0, #100	; 0x64
 8008280:	4343      	muls	r3, r0
 8008282:	4815      	ldr	r0, [pc, #84]	; (80082d8 <SUBGHZSPI_Receive+0x68>)
 8008284:	9301      	str	r3, [sp, #4]
 8008286:	9b01      	ldr	r3, [sp, #4]
 8008288:	b9a3      	cbnz	r3, 80082b4 <SUBGHZSPI_Receive+0x44>
 800828a:	2001      	movs	r0, #1
 800828c:	6090      	str	r0, [r2, #8]
 800828e:	4c12      	ldr	r4, [pc, #72]	; (80082d8 <SUBGHZSPI_Receive+0x68>)
 8008290:	23ff      	movs	r3, #255	; 0xff
 8008292:	7323      	strb	r3, [r4, #12]
 8008294:	682b      	ldr	r3, [r5, #0]
 8008296:	251c      	movs	r5, #28
 8008298:	436b      	muls	r3, r5
 800829a:	0cdb      	lsrs	r3, r3, #19
 800829c:	2564      	movs	r5, #100	; 0x64
 800829e:	436b      	muls	r3, r5
 80082a0:	9301      	str	r3, [sp, #4]
 80082a2:	9b01      	ldr	r3, [sp, #4]
 80082a4:	b973      	cbnz	r3, 80082c4 <SUBGHZSPI_Receive+0x54>
 80082a6:	2001      	movs	r0, #1
 80082a8:	6090      	str	r0, [r2, #8]
 80082aa:	4b0b      	ldr	r3, [pc, #44]	; (80082d8 <SUBGHZSPI_Receive+0x68>)
 80082ac:	68db      	ldr	r3, [r3, #12]
 80082ae:	700b      	strb	r3, [r1, #0]
 80082b0:	b003      	add	sp, #12
 80082b2:	bd30      	pop	{r4, r5, pc}
 80082b4:	9b01      	ldr	r3, [sp, #4]
 80082b6:	3b01      	subs	r3, #1
 80082b8:	9301      	str	r3, [sp, #4]
 80082ba:	6883      	ldr	r3, [r0, #8]
 80082bc:	079c      	lsls	r4, r3, #30
 80082be:	d5e2      	bpl.n	8008286 <SUBGHZSPI_Receive+0x16>
 80082c0:	2000      	movs	r0, #0
 80082c2:	e7e4      	b.n	800828e <SUBGHZSPI_Receive+0x1e>
 80082c4:	9b01      	ldr	r3, [sp, #4]
 80082c6:	3b01      	subs	r3, #1
 80082c8:	9301      	str	r3, [sp, #4]
 80082ca:	68a3      	ldr	r3, [r4, #8]
 80082cc:	07db      	lsls	r3, r3, #31
 80082ce:	d5e8      	bpl.n	80082a2 <SUBGHZSPI_Receive+0x32>
 80082d0:	e7eb      	b.n	80082aa <SUBGHZSPI_Receive+0x3a>
 80082d2:	bf00      	nop
 80082d4:	20000064 	.word	0x20000064
 80082d8:	58010000 	.word	0x58010000

080082dc <SUBGHZ_WaitOnBusy>:
 80082dc:	4b0f      	ldr	r3, [pc, #60]	; (800831c <SUBGHZ_WaitOnBusy+0x40>)
 80082de:	b513      	push	{r0, r1, r4, lr}
 80082e0:	681b      	ldr	r3, [r3, #0]
 80082e2:	4c0f      	ldr	r4, [pc, #60]	; (8008320 <SUBGHZ_WaitOnBusy+0x44>)
 80082e4:	2218      	movs	r2, #24
 80082e6:	4353      	muls	r3, r2
 80082e8:	0d1b      	lsrs	r3, r3, #20
 80082ea:	2264      	movs	r2, #100	; 0x64
 80082ec:	4353      	muls	r3, r2
 80082ee:	4601      	mov	r1, r0
 80082f0:	9301      	str	r3, [sp, #4]
 80082f2:	6962      	ldr	r2, [r4, #20]
 80082f4:	9b01      	ldr	r3, [sp, #4]
 80082f6:	f002 0204 	and.w	r2, r2, #4
 80082fa:	b923      	cbnz	r3, 8008306 <SUBGHZ_WaitOnBusy+0x2a>
 80082fc:	2302      	movs	r3, #2
 80082fe:	608b      	str	r3, [r1, #8]
 8008300:	2001      	movs	r0, #1
 8008302:	b002      	add	sp, #8
 8008304:	bd10      	pop	{r4, pc}
 8008306:	9b01      	ldr	r3, [sp, #4]
 8008308:	3b01      	subs	r3, #1
 800830a:	9301      	str	r3, [sp, #4]
 800830c:	6960      	ldr	r0, [r4, #20]
 800830e:	f010 0002 	ands.w	r0, r0, #2
 8008312:	d0f6      	beq.n	8008302 <SUBGHZ_WaitOnBusy+0x26>
 8008314:	2a00      	cmp	r2, #0
 8008316:	d1ec      	bne.n	80082f2 <SUBGHZ_WaitOnBusy+0x16>
 8008318:	4610      	mov	r0, r2
 800831a:	e7f2      	b.n	8008302 <SUBGHZ_WaitOnBusy+0x26>
 800831c:	20000064 	.word	0x20000064
 8008320:	58000400 	.word	0x58000400

08008324 <SUBGHZ_CheckDeviceReady>:
 8008324:	b507      	push	{r0, r1, r2, lr}
 8008326:	7903      	ldrb	r3, [r0, #4]
 8008328:	2b01      	cmp	r3, #1
 800832a:	d10f      	bne.n	800834c <SUBGHZ_CheckDeviceReady+0x28>
 800832c:	4b0a      	ldr	r3, [pc, #40]	; (8008358 <SUBGHZ_CheckDeviceReady+0x34>)
 800832e:	681b      	ldr	r3, [r3, #0]
 8008330:	2218      	movs	r2, #24
 8008332:	4353      	muls	r3, r2
 8008334:	0c1b      	lsrs	r3, r3, #16
 8008336:	9301      	str	r3, [sp, #4]
 8008338:	f7ff fefa 	bl	8008130 <LL_PWR_SelectSUBGHZSPI_NSS>
 800833c:	9b01      	ldr	r3, [sp, #4]
 800833e:	3b01      	subs	r3, #1
 8008340:	9301      	str	r3, [sp, #4]
 8008342:	9b01      	ldr	r3, [sp, #4]
 8008344:	2b00      	cmp	r3, #0
 8008346:	d1f9      	bne.n	800833c <SUBGHZ_CheckDeviceReady+0x18>
 8008348:	f7ff fee8 	bl	800811c <LL_PWR_UnselectSUBGHZSPI_NSS>
 800834c:	b003      	add	sp, #12
 800834e:	f85d eb04 	ldr.w	lr, [sp], #4
 8008352:	f7ff bfc3 	b.w	80082dc <SUBGHZ_WaitOnBusy>
 8008356:	bf00      	nop
 8008358:	20000064 	.word	0x20000064

0800835c <HAL_SUBGHZ_WriteRegisters>:
 800835c:	b5f8      	push	{r3, r4, r5, r6, r7, lr}
 800835e:	461e      	mov	r6, r3
 8008360:	7983      	ldrb	r3, [r0, #6]
 8008362:	2b01      	cmp	r3, #1
 8008364:	4615      	mov	r5, r2
 8008366:	4604      	mov	r4, r0
 8008368:	460f      	mov	r7, r1
 800836a:	b2da      	uxtb	r2, r3
 800836c:	d12d      	bne.n	80083ca <HAL_SUBGHZ_WriteRegisters+0x6e>
 800836e:	7943      	ldrb	r3, [r0, #5]
 8008370:	2b01      	cmp	r3, #1
 8008372:	d02a      	beq.n	80083ca <HAL_SUBGHZ_WriteRegisters+0x6e>
 8008374:	2302      	movs	r3, #2
 8008376:	7142      	strb	r2, [r0, #5]
 8008378:	7183      	strb	r3, [r0, #6]
 800837a:	f7ff ffd3 	bl	8008324 <SUBGHZ_CheckDeviceReady>
 800837e:	210d      	movs	r1, #13
 8008380:	4620      	mov	r0, r4
 8008382:	f7ff fed5 	bl	8008130 <LL_PWR_SelectSUBGHZSPI_NSS>
 8008386:	f7ff ff3f 	bl	8008208 <SUBGHZSPI_Transmit>
 800838a:	0a39      	lsrs	r1, r7, #8
 800838c:	4620      	mov	r0, r4
 800838e:	f7ff ff3b 	bl	8008208 <SUBGHZSPI_Transmit>
 8008392:	b2f9      	uxtb	r1, r7
 8008394:	4620      	mov	r0, r4
 8008396:	f7ff ff37 	bl	8008208 <SUBGHZSPI_Transmit>
 800839a:	442e      	add	r6, r5
 800839c:	42b5      	cmp	r5, r6
 800839e:	d10e      	bne.n	80083be <HAL_SUBGHZ_WriteRegisters+0x62>
 80083a0:	4620      	mov	r0, r4
 80083a2:	f7ff febb 	bl	800811c <LL_PWR_UnselectSUBGHZSPI_NSS>
 80083a6:	f7ff ff99 	bl	80082dc <SUBGHZ_WaitOnBusy>
 80083aa:	68a0      	ldr	r0, [r4, #8]
 80083ac:	2301      	movs	r3, #1
 80083ae:	3800      	subs	r0, #0
 80083b0:	71a3      	strb	r3, [r4, #6]
 80083b2:	f04f 0300 	mov.w	r3, #0
 80083b6:	bf18      	it	ne
 80083b8:	2001      	movne	r0, #1
 80083ba:	7163      	strb	r3, [r4, #5]
 80083bc:	bdf8      	pop	{r3, r4, r5, r6, r7, pc}
 80083be:	f815 1b01 	ldrb.w	r1, [r5], #1
 80083c2:	4620      	mov	r0, r4
 80083c4:	f7ff ff20 	bl	8008208 <SUBGHZSPI_Transmit>
 80083c8:	e7e8      	b.n	800839c <HAL_SUBGHZ_WriteRegisters+0x40>
 80083ca:	2002      	movs	r0, #2
 80083cc:	e7f6      	b.n	80083bc <HAL_SUBGHZ_WriteRegisters+0x60>

080083ce <HAL_SUBGHZ_ReadRegisters>:
 80083ce:	b5f8      	push	{r3, r4, r5, r6, r7, lr}
 80083d0:	461e      	mov	r6, r3
 80083d2:	7983      	ldrb	r3, [r0, #6]
 80083d4:	2b01      	cmp	r3, #1
 80083d6:	4615      	mov	r5, r2
 80083d8:	4604      	mov	r4, r0
 80083da:	460f      	mov	r7, r1
 80083dc:	b2da      	uxtb	r2, r3
 80083de:	d12f      	bne.n	8008440 <HAL_SUBGHZ_ReadRegisters+0x72>
 80083e0:	7943      	ldrb	r3, [r0, #5]
 80083e2:	2b01      	cmp	r3, #1
 80083e4:	d02c      	beq.n	8008440 <HAL_SUBGHZ_ReadRegisters+0x72>
 80083e6:	7142      	strb	r2, [r0, #5]
 80083e8:	f7ff ff9c 	bl	8008324 <SUBGHZ_CheckDeviceReady>
 80083ec:	211d      	movs	r1, #29
 80083ee:	4620      	mov	r0, r4
 80083f0:	f7ff fe9e 	bl	8008130 <LL_PWR_SelectSUBGHZSPI_NSS>
 80083f4:	f7ff ff08 	bl	8008208 <SUBGHZSPI_Transmit>
 80083f8:	0a39      	lsrs	r1, r7, #8
 80083fa:	4620      	mov	r0, r4
 80083fc:	f7ff ff04 	bl	8008208 <SUBGHZSPI_Transmit>
 8008400:	b2f9      	uxtb	r1, r7
 8008402:	4620      	mov	r0, r4
 8008404:	f7ff ff00 	bl	8008208 <SUBGHZSPI_Transmit>
 8008408:	2100      	movs	r1, #0
 800840a:	4620      	mov	r0, r4
 800840c:	f7ff fefc 	bl	8008208 <SUBGHZSPI_Transmit>
 8008410:	442e      	add	r6, r5
 8008412:	42b5      	cmp	r5, r6
 8008414:	d10e      	bne.n	8008434 <HAL_SUBGHZ_ReadRegisters+0x66>
 8008416:	4620      	mov	r0, r4
 8008418:	f7ff fe80 	bl	800811c <LL_PWR_UnselectSUBGHZSPI_NSS>
 800841c:	f7ff ff5e 	bl	80082dc <SUBGHZ_WaitOnBusy>
 8008420:	68a0      	ldr	r0, [r4, #8]
 8008422:	2301      	movs	r3, #1
 8008424:	3800      	subs	r0, #0
 8008426:	71a3      	strb	r3, [r4, #6]
 8008428:	f04f 0300 	mov.w	r3, #0
 800842c:	bf18      	it	ne
 800842e:	2001      	movne	r0, #1
 8008430:	7163      	strb	r3, [r4, #5]
 8008432:	bdf8      	pop	{r3, r4, r5, r6, r7, pc}
 8008434:	4629      	mov	r1, r5
 8008436:	4620      	mov	r0, r4
 8008438:	f7ff ff1a 	bl	8008270 <SUBGHZSPI_Receive>
 800843c:	3501      	adds	r5, #1
 800843e:	e7e8      	b.n	8008412 <HAL_SUBGHZ_ReadRegisters+0x44>
 8008440:	2002      	movs	r0, #2
 8008442:	e7f6      	b.n	8008432 <HAL_SUBGHZ_ReadRegisters+0x64>

08008444 <HAL_SUBGHZ_ExecSetCmd>:
 8008444:	b5f8      	push	{r3, r4, r5, r6, r7, lr}
 8008446:	461f      	mov	r7, r3
 8008448:	7983      	ldrb	r3, [r0, #6]
 800844a:	2b01      	cmp	r3, #1
 800844c:	4615      	mov	r5, r2
 800844e:	4604      	mov	r4, r0
 8008450:	460e      	mov	r6, r1
 8008452:	b2da      	uxtb	r2, r3
 8008454:	d12c      	bne.n	80084b0 <HAL_SUBGHZ_ExecSetCmd+0x6c>
 8008456:	7943      	ldrb	r3, [r0, #5]
 8008458:	2b01      	cmp	r3, #1
 800845a:	d029      	beq.n	80084b0 <HAL_SUBGHZ_ExecSetCmd+0x6c>
 800845c:	7142      	strb	r2, [r0, #5]
 800845e:	f7ff ff61 	bl	8008324 <SUBGHZ_CheckDeviceReady>
 8008462:	f006 03ef 	and.w	r3, r6, #239	; 0xef
 8008466:	f1a3 0284 	sub.w	r2, r3, #132	; 0x84
 800846a:	4253      	negs	r3, r2
 800846c:	4153      	adcs	r3, r2
 800846e:	7123      	strb	r3, [r4, #4]
 8008470:	4631      	mov	r1, r6
 8008472:	4620      	mov	r0, r4
 8008474:	f7ff fe5c 	bl	8008130 <LL_PWR_SelectSUBGHZSPI_NSS>
 8008478:	f7ff fec6 	bl	8008208 <SUBGHZSPI_Transmit>
 800847c:	442f      	add	r7, r5
 800847e:	42af      	cmp	r7, r5
 8008480:	d110      	bne.n	80084a4 <HAL_SUBGHZ_ExecSetCmd+0x60>
 8008482:	f7ff fe4b 	bl	800811c <LL_PWR_UnselectSUBGHZSPI_NSS>
 8008486:	2e84      	cmp	r6, #132	; 0x84
 8008488:	d002      	beq.n	8008490 <HAL_SUBGHZ_ExecSetCmd+0x4c>
 800848a:	4620      	mov	r0, r4
 800848c:	f7ff ff26 	bl	80082dc <SUBGHZ_WaitOnBusy>
 8008490:	68a0      	ldr	r0, [r4, #8]
 8008492:	2301      	movs	r3, #1
 8008494:	3800      	subs	r0, #0
 8008496:	71a3      	strb	r3, [r4, #6]
 8008498:	f04f 0300 	mov.w	r3, #0
 800849c:	bf18      	it	ne
 800849e:	2001      	movne	r0, #1
 80084a0:	7163      	strb	r3, [r4, #5]
 80084a2:	bdf8      	pop	{r3, r4, r5, r6, r7, pc}
 80084a4:	f815 1b01 	ldrb.w	r1, [r5], #1
 80084a8:	4620      	mov	r0, r4
 80084aa:	f7ff fead 	bl	8008208 <SUBGHZSPI_Transmit>
 80084ae:	e7e6      	b.n	800847e <HAL_SUBGHZ_ExecSetCmd+0x3a>
 80084b0:	2002      	movs	r0, #2
 80084b2:	e7f6      	b.n	80084a2 <HAL_SUBGHZ_ExecSetCmd+0x5e>

080084b4 <HAL_SUBGHZ_ExecGetCmd>:
 80084b4:	b5f8      	push	{r3, r4, r5, r6, r7, lr}
 80084b6:	461e      	mov	r6, r3
 80084b8:	7983      	ldrb	r3, [r0, #6]
 80084ba:	2b01      	cmp	r3, #1
 80084bc:	4615      	mov	r5, r2
 80084be:	4604      	mov	r4, r0
 80084c0:	460f      	mov	r7, r1
 80084c2:	b2da      	uxtb	r2, r3
 80084c4:	d127      	bne.n	8008516 <HAL_SUBGHZ_ExecGetCmd+0x62>
 80084c6:	7943      	ldrb	r3, [r0, #5]
 80084c8:	2b01      	cmp	r3, #1
 80084ca:	d024      	beq.n	8008516 <HAL_SUBGHZ_ExecGetCmd+0x62>
 80084cc:	7142      	strb	r2, [r0, #5]
 80084ce:	f7ff ff29 	bl	8008324 <SUBGHZ_CheckDeviceReady>
 80084d2:	4639      	mov	r1, r7
 80084d4:	4620      	mov	r0, r4
 80084d6:	f7ff fe2b 	bl	8008130 <LL_PWR_SelectSUBGHZSPI_NSS>
 80084da:	f7ff fe95 	bl	8008208 <SUBGHZSPI_Transmit>
 80084de:	2100      	movs	r1, #0
 80084e0:	4620      	mov	r0, r4
 80084e2:	f7ff fe91 	bl	8008208 <SUBGHZSPI_Transmit>
 80084e6:	442e      	add	r6, r5
 80084e8:	42b5      	cmp	r5, r6
 80084ea:	d10e      	bne.n	800850a <HAL_SUBGHZ_ExecGetCmd+0x56>
 80084ec:	4620      	mov	r0, r4
 80084ee:	f7ff fe15 	bl	800811c <LL_PWR_UnselectSUBGHZSPI_NSS>
 80084f2:	f7ff fef3 	bl	80082dc <SUBGHZ_WaitOnBusy>
 80084f6:	68a0      	ldr	r0, [r4, #8]
 80084f8:	2301      	movs	r3, #1
 80084fa:	3800      	subs	r0, #0
 80084fc:	71a3      	strb	r3, [r4, #6]
 80084fe:	f04f 0300 	mov.w	r3, #0
 8008502:	bf18      	it	ne
 8008504:	2001      	movne	r0, #1
 8008506:	7163      	strb	r3, [r4, #5]
 8008508:	bdf8      	pop	{r3, r4, r5, r6, r7, pc}
 800850a:	4629      	mov	r1, r5
 800850c:	4620      	mov	r0, r4
 800850e:	f7ff feaf 	bl	8008270 <SUBGHZSPI_Receive>
 8008512:	3501      	adds	r5, #1
 8008514:	e7e8      	b.n	80084e8 <HAL_SUBGHZ_ExecGetCmd+0x34>
 8008516:	2002      	movs	r0, #2
 8008518:	e7f6      	b.n	8008508 <HAL_SUBGHZ_ExecGetCmd+0x54>

0800851a <HAL_SUBGHZ_IRQHandler>:
 800851a:	b537      	push	{r0, r1, r2, r4, r5, lr}
 800851c:	2300      	movs	r3, #0
 800851e:	f8ad 3004 	strh.w	r3, [sp, #4]
 8008522:	aa01      	add	r2, sp, #4
 8008524:	2302      	movs	r3, #2
 8008526:	2112      	movs	r1, #18
 8008528:	4604      	mov	r4, r0
 800852a:	f7ff ffc3 	bl	80084b4 <HAL_SUBGHZ_ExecGetCmd>
 800852e:	f8bd 3004 	ldrh.w	r3, [sp, #4]
 8008532:	ba5b      	rev16	r3, r3
 8008534:	07da      	lsls	r2, r3, #31
 8008536:	b29d      	uxth	r5, r3
 8008538:	d502      	bpl.n	8008540 <HAL_SUBGHZ_IRQHandler+0x26>
 800853a:	4620      	mov	r0, r4
 800853c:	f002 fbcc 	bl	800acd8 <HAL_SUBGHZ_TxCpltCallback>
 8008540:	07ab      	lsls	r3, r5, #30
 8008542:	d502      	bpl.n	800854a <HAL_SUBGHZ_IRQHandler+0x30>
 8008544:	4620      	mov	r0, r4
 8008546:	f002 fbcd 	bl	800ace4 <HAL_SUBGHZ_RxCpltCallback>
 800854a:	0768      	lsls	r0, r5, #29
 800854c:	d502      	bpl.n	8008554 <HAL_SUBGHZ_IRQHandler+0x3a>
 800854e:	4620      	mov	r0, r4
 8008550:	f002 fbf2 	bl	800ad38 <HAL_SUBGHZ_PreambleDetectedCallback>
 8008554:	0729      	lsls	r1, r5, #28
 8008556:	d502      	bpl.n	800855e <HAL_SUBGHZ_IRQHandler+0x44>
 8008558:	4620      	mov	r0, r4
 800855a:	f002 fbf3 	bl	800ad44 <HAL_SUBGHZ_SyncWordValidCallback>
 800855e:	06ea      	lsls	r2, r5, #27
 8008560:	d502      	bpl.n	8008568 <HAL_SUBGHZ_IRQHandler+0x4e>
 8008562:	4620      	mov	r0, r4
 8008564:	f002 fbf4 	bl	800ad50 <HAL_SUBGHZ_HeaderValidCallback>
 8008568:	06ab      	lsls	r3, r5, #26
 800856a:	d502      	bpl.n	8008572 <HAL_SUBGHZ_IRQHandler+0x58>
 800856c:	4620      	mov	r0, r4
 800856e:	f002 fbdd 	bl	800ad2c <HAL_SUBGHZ_HeaderErrorCallback>
 8008572:	0668      	lsls	r0, r5, #25
 8008574:	d502      	bpl.n	800857c <HAL_SUBGHZ_IRQHandler+0x62>
 8008576:	4620      	mov	r0, r4
 8008578:	f002 fbba 	bl	800acf0 <HAL_SUBGHZ_CRCErrorCallback>
 800857c:	0629      	lsls	r1, r5, #24
 800857e:	d507      	bpl.n	8008590 <HAL_SUBGHZ_IRQHandler+0x76>
 8008580:	05ea      	lsls	r2, r5, #23
 8008582:	f3c5 2100 	ubfx	r1, r5, #8, #1
 8008586:	4620      	mov	r0, r4
 8008588:	bf48      	it	mi
 800858a:	2101      	movmi	r1, #1
 800858c:	f002 fbb6 	bl	800acfc <HAL_SUBGHZ_CADStatusCallback>
 8008590:	05ab      	lsls	r3, r5, #22
 8008592:	d502      	bpl.n	800859a <HAL_SUBGHZ_IRQHandler+0x80>
 8008594:	4620      	mov	r0, r4
 8008596:	f002 fbc1 	bl	800ad1c <HAL_SUBGHZ_RxTxTimeoutCallback>
 800859a:	2302      	movs	r3, #2
 800859c:	aa01      	add	r2, sp, #4
 800859e:	4619      	mov	r1, r3
 80085a0:	4620      	mov	r0, r4
 80085a2:	f7ff ff4f 	bl	8008444 <HAL_SUBGHZ_ExecSetCmd>
 80085a6:	b003      	add	sp, #12
 80085a8:	bd30      	pop	{r4, r5, pc}

080085aa <HAL_SUBGHZ_WriteBuffer>:
 80085aa:	b5f8      	push	{r3, r4, r5, r6, r7, lr}
 80085ac:	461e      	mov	r6, r3
 80085ae:	7983      	ldrb	r3, [r0, #6]
 80085b0:	2b01      	cmp	r3, #1
 80085b2:	4615      	mov	r5, r2
 80085b4:	4604      	mov	r4, r0
 80085b6:	460f      	mov	r7, r1
 80085b8:	b2da      	uxtb	r2, r3
 80085ba:	d127      	bne.n	800860c <HAL_SUBGHZ_WriteBuffer+0x62>
 80085bc:	7943      	ldrb	r3, [r0, #5]
 80085be:	2b01      	cmp	r3, #1
 80085c0:	d024      	beq.n	800860c <HAL_SUBGHZ_WriteBuffer+0x62>
 80085c2:	7142      	strb	r2, [r0, #5]
 80085c4:	f7ff feae 	bl	8008324 <SUBGHZ_CheckDeviceReady>
 80085c8:	210e      	movs	r1, #14
 80085ca:	4620      	mov	r0, r4
 80085cc:	f7ff fdb0 	bl	8008130 <LL_PWR_SelectSUBGHZSPI_NSS>
 80085d0:	f7ff fe1a 	bl	8008208 <SUBGHZSPI_Transmit>
 80085d4:	4639      	mov	r1, r7
 80085d6:	4620      	mov	r0, r4
 80085d8:	f7ff fe16 	bl	8008208 <SUBGHZSPI_Transmit>
 80085dc:	442e      	add	r6, r5
 80085de:	42b5      	cmp	r5, r6
 80085e0:	d10e      	bne.n	8008600 <HAL_SUBGHZ_WriteBuffer+0x56>
 80085e2:	4620      	mov	r0, r4
 80085e4:	f7ff fd9a 	bl	800811c <LL_PWR_UnselectSUBGHZSPI_NSS>
 80085e8:	f7ff fe78 	bl	80082dc <SUBGHZ_WaitOnBusy>
 80085ec:	68a0      	ldr	r0, [r4, #8]
 80085ee:	2301      	movs	r3, #1
 80085f0:	3800      	subs	r0, #0
 80085f2:	71a3      	strb	r3, [r4, #6]
 80085f4:	f04f 0300 	mov.w	r3, #0
 80085f8:	bf18      	it	ne
 80085fa:	2001      	movne	r0, #1
 80085fc:	7163      	strb	r3, [r4, #5]
 80085fe:	bdf8      	pop	{r3, r4, r5, r6, r7, pc}
 8008600:	f815 1b01 	ldrb.w	r1, [r5], #1
 8008604:	4620      	mov	r0, r4
 8008606:	f7ff fdff 	bl	8008208 <SUBGHZSPI_Transmit>
 800860a:	e7e8      	b.n	80085de <HAL_SUBGHZ_WriteBuffer+0x34>
 800860c:	2002      	movs	r0, #2
 800860e:	e7f6      	b.n	80085fe <HAL_SUBGHZ_WriteBuffer+0x54>

08008610 <HAL_SUBGHZ_ReadBuffer>:
 8008610:	b5f8      	push	{r3, r4, r5, r6, r7, lr}
 8008612:	461e      	mov	r6, r3
 8008614:	7983      	ldrb	r3, [r0, #6]
 8008616:	2b01      	cmp	r3, #1
 8008618:	4615      	mov	r5, r2
 800861a:	4604      	mov	r4, r0
 800861c:	460f      	mov	r7, r1
 800861e:	b2da      	uxtb	r2, r3
 8008620:	d12b      	bne.n	800867a <HAL_SUBGHZ_ReadBuffer+0x6a>
 8008622:	7943      	ldrb	r3, [r0, #5]
 8008624:	2b01      	cmp	r3, #1
 8008626:	d028      	beq.n	800867a <HAL_SUBGHZ_ReadBuffer+0x6a>
 8008628:	7142      	strb	r2, [r0, #5]
 800862a:	f7ff fe7b 	bl	8008324 <SUBGHZ_CheckDeviceReady>
 800862e:	211e      	movs	r1, #30
 8008630:	4620      	mov	r0, r4
 8008632:	f7ff fd7d 	bl	8008130 <LL_PWR_SelectSUBGHZSPI_NSS>
 8008636:	f7ff fde7 	bl	8008208 <SUBGHZSPI_Transmit>
 800863a:	4639      	mov	r1, r7
 800863c:	4620      	mov	r0, r4
 800863e:	f7ff fde3 	bl	8008208 <SUBGHZSPI_Transmit>
 8008642:	2100      	movs	r1, #0
 8008644:	4620      	mov	r0, r4
 8008646:	f7ff fddf 	bl	8008208 <SUBGHZSPI_Transmit>
 800864a:	442e      	add	r6, r5
 800864c:	42b5      	cmp	r5, r6
 800864e:	d10e      	bne.n	800866e <HAL_SUBGHZ_ReadBuffer+0x5e>
 8008650:	4620      	mov	r0, r4
 8008652:	f7ff fd63 	bl	800811c <LL_PWR_UnselectSUBGHZSPI_NSS>
 8008656:	f7ff fe41 	bl	80082dc <SUBGHZ_WaitOnBusy>
 800865a:	68a0      	ldr	r0, [r4, #8]
 800865c:	2301      	movs	r3, #1
 800865e:	3800      	subs	r0, #0
 8008660:	71a3      	strb	r3, [r4, #6]
 8008662:	f04f 0300 	mov.w	r3, #0
 8008666:	bf18      	it	ne
 8008668:	2001      	movne	r0, #1
 800866a:	7163      	strb	r3, [r4, #5]
 800866c:	bdf8      	pop	{r3, r4, r5, r6, r7, pc}
 800866e:	4629      	mov	r1, r5
 8008670:	4620      	mov	r0, r4
 8008672:	f7ff fdfd 	bl	8008270 <SUBGHZSPI_Receive>
 8008676:	3501      	adds	r5, #1
 8008678:	e7e8      	b.n	800864c <HAL_SUBGHZ_ReadBuffer+0x3c>
 800867a:	2002      	movs	r0, #2
 800867c:	e7f6      	b.n	800866c <HAL_SUBGHZ_ReadBuffer+0x5c>
	...

08008680 <HAL_TIM_Base_Start>:
 8008680:	f890 303d 	ldrb.w	r3, [r0, #61]	; 0x3d
 8008684:	2b01      	cmp	r3, #1
 8008686:	d117      	bne.n	80086b8 <HAL_TIM_Base_Start+0x38>
 8008688:	2302      	movs	r3, #2
 800868a:	4a0c      	ldr	r2, [pc, #48]	; (80086bc <HAL_TIM_Base_Start+0x3c>)
 800868c:	f880 303d 	strb.w	r3, [r0, #61]	; 0x3d
 8008690:	6803      	ldr	r3, [r0, #0]
 8008692:	4293      	cmp	r3, r2
 8008694:	d002      	beq.n	800869c <HAL_TIM_Base_Start+0x1c>
 8008696:	f1b3 4f80 	cmp.w	r3, #1073741824	; 0x40000000
 800869a:	d107      	bne.n	80086ac <HAL_TIM_Base_Start+0x2c>
 800869c:	6899      	ldr	r1, [r3, #8]
 800869e:	4a08      	ldr	r2, [pc, #32]	; (80086c0 <HAL_TIM_Base_Start+0x40>)
 80086a0:	400a      	ands	r2, r1
 80086a2:	2a06      	cmp	r2, #6
 80086a4:	d006      	beq.n	80086b4 <HAL_TIM_Base_Start+0x34>
 80086a6:	f5b2 3f80 	cmp.w	r2, #65536	; 0x10000
 80086aa:	d003      	beq.n	80086b4 <HAL_TIM_Base_Start+0x34>
 80086ac:	681a      	ldr	r2, [r3, #0]
 80086ae:	f042 0201 	orr.w	r2, r2, #1
 80086b2:	601a      	str	r2, [r3, #0]
 80086b4:	2000      	movs	r0, #0
 80086b6:	4770      	bx	lr
 80086b8:	2001      	movs	r0, #1
 80086ba:	4770      	bx	lr
 80086bc:	40012c00 	.word	0x40012c00
 80086c0:	00010007 	.word	0x00010007

080086c4 <HAL_TIM_Base_Stop>:
 80086c4:	6803      	ldr	r3, [r0, #0]
 80086c6:	6a19      	ldr	r1, [r3, #32]
 80086c8:	f241 1211 	movw	r2, #4369	; 0x1111
 80086cc:	4211      	tst	r1, r2
 80086ce:	d108      	bne.n	80086e2 <HAL_TIM_Base_Stop+0x1e>
 80086d0:	6a19      	ldr	r1, [r3, #32]
 80086d2:	f240 4244 	movw	r2, #1092	; 0x444
 80086d6:	4211      	tst	r1, r2
 80086d8:	bf02      	ittt	eq
 80086da:	681a      	ldreq	r2, [r3, #0]
 80086dc:	f022 0201 	biceq.w	r2, r2, #1
 80086e0:	601a      	streq	r2, [r3, #0]
 80086e2:	2301      	movs	r3, #1
 80086e4:	f880 303d 	strb.w	r3, [r0, #61]	; 0x3d
 80086e8:	2000      	movs	r0, #0
 80086ea:	4770      	bx	lr

080086ec <HAL_TIM_Base_Start_IT>:
 80086ec:	f890 303d 	ldrb.w	r3, [r0, #61]	; 0x3d
 80086f0:	2b01      	cmp	r3, #1
 80086f2:	d11b      	bne.n	800872c <HAL_TIM_Base_Start_IT+0x40>
 80086f4:	2302      	movs	r3, #2
 80086f6:	f880 303d 	strb.w	r3, [r0, #61]	; 0x3d
 80086fa:	6803      	ldr	r3, [r0, #0]
 80086fc:	68da      	ldr	r2, [r3, #12]
 80086fe:	f042 0201 	orr.w	r2, r2, #1
 8008702:	60da      	str	r2, [r3, #12]
 8008704:	4a0a      	ldr	r2, [pc, #40]	; (8008730 <HAL_TIM_Base_Start_IT+0x44>)
 8008706:	4293      	cmp	r3, r2
 8008708:	d002      	beq.n	8008710 <HAL_TIM_Base_Start_IT+0x24>
 800870a:	f1b3 4f80 	cmp.w	r3, #1073741824	; 0x40000000
 800870e:	d107      	bne.n	8008720 <HAL_TIM_Base_Start_IT+0x34>
 8008710:	6899      	ldr	r1, [r3, #8]
 8008712:	4a08      	ldr	r2, [pc, #32]	; (8008734 <HAL_TIM_Base_Start_IT+0x48>)
 8008714:	400a      	ands	r2, r1
 8008716:	2a06      	cmp	r2, #6
 8008718:	d006      	beq.n	8008728 <HAL_TIM_Base_Start_IT+0x3c>
 800871a:	f5b2 3f80 	cmp.w	r2, #65536	; 0x10000
 800871e:	d003      	beq.n	8008728 <HAL_TIM_Base_Start_IT+0x3c>
 8008720:	681a      	ldr	r2, [r3, #0]
 8008722:	f042 0201 	orr.w	r2, r2, #1
 8008726:	601a      	str	r2, [r3, #0]
 8008728:	2000      	movs	r0, #0
 800872a:	4770      	bx	lr
 800872c:	2001      	movs	r0, #1
 800872e:	4770      	bx	lr
 8008730:	40012c00 	.word	0x40012c00
 8008734:	00010007 	.word	0x00010007

08008738 <HAL_TIM_Base_Stop_IT>:
 8008738:	6803      	ldr	r3, [r0, #0]
 800873a:	68da      	ldr	r2, [r3, #12]
 800873c:	f022 0201 	bic.w	r2, r2, #1
 8008740:	60da      	str	r2, [r3, #12]
 8008742:	6a19      	ldr	r1, [r3, #32]
 8008744:	f241 1211 	movw	r2, #4369	; 0x1111
 8008748:	4211      	tst	r1, r2
 800874a:	d108      	bne.n	800875e <HAL_TIM_Base_Stop_IT+0x26>
 800874c:	6a19      	ldr	r1, [r3, #32]
 800874e:	f240 4244 	movw	r2, #1092	; 0x444
 8008752:	4211      	tst	r1, r2
 8008754:	bf02      	ittt	eq
 8008756:	681a      	ldreq	r2, [r3, #0]
 8008758:	f022 0201 	biceq.w	r2, r2, #1
 800875c:	601a      	streq	r2, [r3, #0]
 800875e:	2301      	movs	r3, #1
 8008760:	f880 303d 	strb.w	r3, [r0, #61]	; 0x3d
 8008764:	2000      	movs	r0, #0
 8008766:	4770      	bx	lr

08008768 <HAL_TIM_OC_DelayElapsedCallback>:
 8008768:	4770      	bx	lr

0800876a <HAL_TIM_IC_CaptureCallback>:
 800876a:	4770      	bx	lr

0800876c <HAL_TIM_PWM_PulseFinishedCallback>:
 800876c:	4770      	bx	lr

0800876e <HAL_TIM_TriggerCallback>:
 800876e:	4770      	bx	lr

08008770 <HAL_TIM_IRQHandler>:
 8008770:	6803      	ldr	r3, [r0, #0]
 8008772:	691a      	ldr	r2, [r3, #16]
 8008774:	0791      	lsls	r1, r2, #30
 8008776:	b510      	push	{r4, lr}
 8008778:	4604      	mov	r4, r0
 800877a:	d50f      	bpl.n	800879c <HAL_TIM_IRQHandler+0x2c>
 800877c:	68da      	ldr	r2, [r3, #12]
 800877e:	0792      	lsls	r2, r2, #30
 8008780:	d50c      	bpl.n	800879c <HAL_TIM_IRQHandler+0x2c>
 8008782:	f06f 0202 	mvn.w	r2, #2
 8008786:	611a      	str	r2, [r3, #16]
 8008788:	2201      	movs	r2, #1
 800878a:	7702      	strb	r2, [r0, #28]
 800878c:	699b      	ldr	r3, [r3, #24]
 800878e:	0799      	lsls	r1, r3, #30
 8008790:	f000 8085 	beq.w	800889e <HAL_TIM_IRQHandler+0x12e>
 8008794:	f7ff ffe9 	bl	800876a <HAL_TIM_IC_CaptureCallback>
 8008798:	2300      	movs	r3, #0
 800879a:	7723      	strb	r3, [r4, #28]
 800879c:	6823      	ldr	r3, [r4, #0]
 800879e:	691a      	ldr	r2, [r3, #16]
 80087a0:	0752      	lsls	r2, r2, #29
 80087a2:	d510      	bpl.n	80087c6 <HAL_TIM_IRQHandler+0x56>
 80087a4:	68da      	ldr	r2, [r3, #12]
 80087a6:	0750      	lsls	r0, r2, #29
 80087a8:	d50d      	bpl.n	80087c6 <HAL_TIM_IRQHandler+0x56>
 80087aa:	f06f 0204 	mvn.w	r2, #4
 80087ae:	611a      	str	r2, [r3, #16]
 80087b0:	2202      	movs	r2, #2
 80087b2:	7722      	strb	r2, [r4, #28]
 80087b4:	699b      	ldr	r3, [r3, #24]
 80087b6:	f413 7f40 	tst.w	r3, #768	; 0x300
 80087ba:	4620      	mov	r0, r4
 80087bc:	d075      	beq.n	80088aa <HAL_TIM_IRQHandler+0x13a>
 80087be:	f7ff ffd4 	bl	800876a <HAL_TIM_IC_CaptureCallback>
 80087c2:	2300      	movs	r3, #0
 80087c4:	7723      	strb	r3, [r4, #28]
 80087c6:	6823      	ldr	r3, [r4, #0]
 80087c8:	691a      	ldr	r2, [r3, #16]
 80087ca:	0711      	lsls	r1, r2, #28
 80087cc:	d50f      	bpl.n	80087ee <HAL_TIM_IRQHandler+0x7e>
 80087ce:	68da      	ldr	r2, [r3, #12]
 80087d0:	0712      	lsls	r2, r2, #28
 80087d2:	d50c      	bpl.n	80087ee <HAL_TIM_IRQHandler+0x7e>
 80087d4:	f06f 0208 	mvn.w	r2, #8
 80087d8:	611a      	str	r2, [r3, #16]
 80087da:	2204      	movs	r2, #4
 80087dc:	7722      	strb	r2, [r4, #28]
 80087de:	69db      	ldr	r3, [r3, #28]
 80087e0:	079b      	lsls	r3, r3, #30
 80087e2:	4620      	mov	r0, r4
 80087e4:	d067      	beq.n	80088b6 <HAL_TIM_IRQHandler+0x146>
 80087e6:	f7ff ffc0 	bl	800876a <HAL_TIM_IC_CaptureCallback>
 80087ea:	2300      	movs	r3, #0
 80087ec:	7723      	strb	r3, [r4, #28]
 80087ee:	6823      	ldr	r3, [r4, #0]
 80087f0:	691a      	ldr	r2, [r3, #16]
 80087f2:	06d0      	lsls	r0, r2, #27
 80087f4:	d510      	bpl.n	8008818 <HAL_TIM_IRQHandler+0xa8>
 80087f6:	68da      	ldr	r2, [r3, #12]
 80087f8:	06d1      	lsls	r1, r2, #27
 80087fa:	d50d      	bpl.n	8008818 <HAL_TIM_IRQHandler+0xa8>
 80087fc:	f06f 0210 	mvn.w	r2, #16
 8008800:	611a      	str	r2, [r3, #16]
 8008802:	2208      	movs	r2, #8
 8008804:	7722      	strb	r2, [r4, #28]
 8008806:	69db      	ldr	r3, [r3, #28]
 8008808:	f413 7f40 	tst.w	r3, #768	; 0x300
 800880c:	4620      	mov	r0, r4
 800880e:	d058      	beq.n	80088c2 <HAL_TIM_IRQHandler+0x152>
 8008810:	f7ff ffab 	bl	800876a <HAL_TIM_IC_CaptureCallback>
 8008814:	2300      	movs	r3, #0
 8008816:	7723      	strb	r3, [r4, #28]
 8008818:	6823      	ldr	r3, [r4, #0]
 800881a:	691a      	ldr	r2, [r3, #16]
 800881c:	07d2      	lsls	r2, r2, #31
 800881e:	d508      	bpl.n	8008832 <HAL_TIM_IRQHandler+0xc2>
 8008820:	68da      	ldr	r2, [r3, #12]
 8008822:	07d0      	lsls	r0, r2, #31
 8008824:	d505      	bpl.n	8008832 <HAL_TIM_IRQHandler+0xc2>
 8008826:	f06f 0201 	mvn.w	r2, #1
 800882a:	611a      	str	r2, [r3, #16]
 800882c:	4620      	mov	r0, r4
 800882e:	f002 fd53 	bl	800b2d8 <HAL_TIM_PeriodElapsedCallback>
 8008832:	6823      	ldr	r3, [r4, #0]
 8008834:	691a      	ldr	r2, [r3, #16]
 8008836:	0611      	lsls	r1, r2, #24
 8008838:	d508      	bpl.n	800884c <HAL_TIM_IRQHandler+0xdc>
 800883a:	68da      	ldr	r2, [r3, #12]
 800883c:	0612      	lsls	r2, r2, #24
 800883e:	d505      	bpl.n	800884c <HAL_TIM_IRQHandler+0xdc>
 8008840:	f06f 0280 	mvn.w	r2, #128	; 0x80
 8008844:	611a      	str	r2, [r3, #16]
 8008846:	4620      	mov	r0, r4
 8008848:	f000 f989 	bl	8008b5e <HAL_TIMEx_BreakCallback>
 800884c:	6823      	ldr	r3, [r4, #0]
 800884e:	691a      	ldr	r2, [r3, #16]
 8008850:	05d0      	lsls	r0, r2, #23
 8008852:	d508      	bpl.n	8008866 <HAL_TIM_IRQHandler+0xf6>
 8008854:	68da      	ldr	r2, [r3, #12]
 8008856:	0611      	lsls	r1, r2, #24
 8008858:	d505      	bpl.n	8008866 <HAL_TIM_IRQHandler+0xf6>
 800885a:	f46f 7280 	mvn.w	r2, #256	; 0x100
 800885e:	611a      	str	r2, [r3, #16]
 8008860:	4620      	mov	r0, r4
 8008862:	f000 f97d 	bl	8008b60 <HAL_TIMEx_Break2Callback>
 8008866:	6823      	ldr	r3, [r4, #0]
 8008868:	691a      	ldr	r2, [r3, #16]
 800886a:	0652      	lsls	r2, r2, #25
 800886c:	d508      	bpl.n	8008880 <HAL_TIM_IRQHandler+0x110>
 800886e:	68da      	ldr	r2, [r3, #12]
 8008870:	0650      	lsls	r0, r2, #25
 8008872:	d505      	bpl.n	8008880 <HAL_TIM_IRQHandler+0x110>
 8008874:	f06f 0240 	mvn.w	r2, #64	; 0x40
 8008878:	611a      	str	r2, [r3, #16]
 800887a:	4620      	mov	r0, r4
 800887c:	f7ff ff77 	bl	800876e <HAL_TIM_TriggerCallback>
 8008880:	6823      	ldr	r3, [r4, #0]
 8008882:	691a      	ldr	r2, [r3, #16]
 8008884:	0691      	lsls	r1, r2, #26
 8008886:	d522      	bpl.n	80088ce <HAL_TIM_IRQHandler+0x15e>
 8008888:	68da      	ldr	r2, [r3, #12]
 800888a:	0692      	lsls	r2, r2, #26
 800888c:	d51f      	bpl.n	80088ce <HAL_TIM_IRQHandler+0x15e>
 800888e:	f06f 0220 	mvn.w	r2, #32
 8008892:	4620      	mov	r0, r4
 8008894:	611a      	str	r2, [r3, #16]
 8008896:	e8bd 4010 	ldmia.w	sp!, {r4, lr}
 800889a:	f000 b95f 	b.w	8008b5c <HAL_TIMEx_CommutCallback>
 800889e:	f7ff ff63 	bl	8008768 <HAL_TIM_OC_DelayElapsedCallback>
 80088a2:	4620      	mov	r0, r4
 80088a4:	f7ff ff62 	bl	800876c <HAL_TIM_PWM_PulseFinishedCallback>
 80088a8:	e776      	b.n	8008798 <HAL_TIM_IRQHandler+0x28>
 80088aa:	f7ff ff5d 	bl	8008768 <HAL_TIM_OC_DelayElapsedCallback>
 80088ae:	4620      	mov	r0, r4
 80088b0:	f7ff ff5c 	bl	800876c <HAL_TIM_PWM_PulseFinishedCallback>
 80088b4:	e785      	b.n	80087c2 <HAL_TIM_IRQHandler+0x52>
 80088b6:	f7ff ff57 	bl	8008768 <HAL_TIM_OC_DelayElapsedCallback>
 80088ba:	4620      	mov	r0, r4
 80088bc:	f7ff ff56 	bl	800876c <HAL_TIM_PWM_PulseFinishedCallback>
 80088c0:	e793      	b.n	80087ea <HAL_TIM_IRQHandler+0x7a>
 80088c2:	f7ff ff51 	bl	8008768 <HAL_TIM_OC_DelayElapsedCallback>
 80088c6:	4620      	mov	r0, r4
 80088c8:	f7ff ff50 	bl	800876c <HAL_TIM_PWM_PulseFinishedCallback>
 80088cc:	e7a2      	b.n	8008814 <HAL_TIM_IRQHandler+0xa4>
 80088ce:	bd10      	pop	{r4, pc}

080088d0 <TIM_Base_SetConfig>:
 80088d0:	4a1a      	ldr	r2, [pc, #104]	; (800893c <TIM_Base_SetConfig+0x6c>)
 80088d2:	6803      	ldr	r3, [r0, #0]
 80088d4:	4290      	cmp	r0, r2
 80088d6:	b510      	push	{r4, lr}
 80088d8:	d002      	beq.n	80088e0 <TIM_Base_SetConfig+0x10>
 80088da:	f1b0 4f80 	cmp.w	r0, #1073741824	; 0x40000000
 80088de:	d109      	bne.n	80088f4 <TIM_Base_SetConfig+0x24>
 80088e0:	684c      	ldr	r4, [r1, #4]
 80088e2:	f023 0370 	bic.w	r3, r3, #112	; 0x70
 80088e6:	4290      	cmp	r0, r2
 80088e8:	ea43 0304 	orr.w	r3, r3, r4
 80088ec:	d009      	beq.n	8008902 <TIM_Base_SetConfig+0x32>
 80088ee:	f1b0 4f80 	cmp.w	r0, #1073741824	; 0x40000000
 80088f2:	d006      	beq.n	8008902 <TIM_Base_SetConfig+0x32>
 80088f4:	4a12      	ldr	r2, [pc, #72]	; (8008940 <TIM_Base_SetConfig+0x70>)
 80088f6:	4290      	cmp	r0, r2
 80088f8:	d003      	beq.n	8008902 <TIM_Base_SetConfig+0x32>
 80088fa:	f502 6280 	add.w	r2, r2, #1024	; 0x400
 80088fe:	4290      	cmp	r0, r2
 8008900:	d103      	bne.n	800890a <TIM_Base_SetConfig+0x3a>
 8008902:	68ca      	ldr	r2, [r1, #12]
 8008904:	f423 7340 	bic.w	r3, r3, #768	; 0x300
 8008908:	4313      	orrs	r3, r2
 800890a:	694a      	ldr	r2, [r1, #20]
 800890c:	f023 0380 	bic.w	r3, r3, #128	; 0x80
 8008910:	4313      	orrs	r3, r2
 8008912:	6003      	str	r3, [r0, #0]
 8008914:	688b      	ldr	r3, [r1, #8]
 8008916:	62c3      	str	r3, [r0, #44]	; 0x2c
 8008918:	680b      	ldr	r3, [r1, #0]
 800891a:	6283      	str	r3, [r0, #40]	; 0x28
 800891c:	4b07      	ldr	r3, [pc, #28]	; (800893c <TIM_Base_SetConfig+0x6c>)
 800891e:	4298      	cmp	r0, r3
 8008920:	d007      	beq.n	8008932 <TIM_Base_SetConfig+0x62>
 8008922:	f503 53c0 	add.w	r3, r3, #6144	; 0x1800
 8008926:	4298      	cmp	r0, r3
 8008928:	d003      	beq.n	8008932 <TIM_Base_SetConfig+0x62>
 800892a:	f503 6380 	add.w	r3, r3, #1024	; 0x400
 800892e:	4298      	cmp	r0, r3
 8008930:	d101      	bne.n	8008936 <TIM_Base_SetConfig+0x66>
 8008932:	690b      	ldr	r3, [r1, #16]
 8008934:	6303      	str	r3, [r0, #48]	; 0x30
 8008936:	2301      	movs	r3, #1
 8008938:	6143      	str	r3, [r0, #20]
 800893a:	bd10      	pop	{r4, pc}
 800893c:	40012c00 	.word	0x40012c00
 8008940:	40014400 	.word	0x40014400

08008944 <HAL_TIM_Base_Init>:
 8008944:	b510      	push	{r4, lr}
 8008946:	4604      	mov	r4, r0
 8008948:	b350      	cbz	r0, 80089a0 <HAL_TIM_Base_Init+0x5c>
 800894a:	f890 303d 	ldrb.w	r3, [r0, #61]	; 0x3d
 800894e:	f003 02ff 	and.w	r2, r3, #255	; 0xff
 8008952:	b91b      	cbnz	r3, 800895c <HAL_TIM_Base_Init+0x18>
 8008954:	f880 203c 	strb.w	r2, [r0, #60]	; 0x3c
 8008958:	f7fd f9b4 	bl	8005cc4 <HAL_TIM_Base_MspInit>
 800895c:	2302      	movs	r3, #2
 800895e:	6820      	ldr	r0, [r4, #0]
 8008960:	f884 303d 	strb.w	r3, [r4, #61]	; 0x3d
 8008964:	1d21      	adds	r1, r4, #4
 8008966:	f7ff ffb3 	bl	80088d0 <TIM_Base_SetConfig>
 800896a:	2301      	movs	r3, #1
 800896c:	f884 3048 	strb.w	r3, [r4, #72]	; 0x48
 8008970:	2000      	movs	r0, #0
 8008972:	f884 303e 	strb.w	r3, [r4, #62]	; 0x3e
 8008976:	f884 303f 	strb.w	r3, [r4, #63]	; 0x3f
 800897a:	f884 3040 	strb.w	r3, [r4, #64]	; 0x40
 800897e:	f884 3041 	strb.w	r3, [r4, #65]	; 0x41
 8008982:	f884 3042 	strb.w	r3, [r4, #66]	; 0x42
 8008986:	f884 3043 	strb.w	r3, [r4, #67]	; 0x43
 800898a:	f884 3044 	strb.w	r3, [r4, #68]	; 0x44
 800898e:	f884 3045 	strb.w	r3, [r4, #69]	; 0x45
 8008992:	f884 3046 	strb.w	r3, [r4, #70]	; 0x46
 8008996:	f884 3047 	strb.w	r3, [r4, #71]	; 0x47
 800899a:	f884 303d 	strb.w	r3, [r4, #61]	; 0x3d
 800899e:	bd10      	pop	{r4, pc}
 80089a0:	2001      	movs	r0, #1
 80089a2:	e7fc      	b.n	800899e <HAL_TIM_Base_Init+0x5a>

080089a4 <TIM_ETR_SetConfig>:
 80089a4:	b510      	push	{r4, lr}
 80089a6:	6884      	ldr	r4, [r0, #8]
 80089a8:	430a      	orrs	r2, r1
 80089aa:	f424 447f 	bic.w	r4, r4, #65280	; 0xff00
 80089ae:	ea42 2203 	orr.w	r2, r2, r3, lsl #8
 80089b2:	4322      	orrs	r2, r4
 80089b4:	6082      	str	r2, [r0, #8]
 80089b6:	bd10      	pop	{r4, pc}

080089b8 <HAL_TIM_ConfigClockSource>:
 80089b8:	b570      	push	{r4, r5, r6, lr}
 80089ba:	f890 303c 	ldrb.w	r3, [r0, #60]	; 0x3c
 80089be:	2b01      	cmp	r3, #1
 80089c0:	4604      	mov	r4, r0
 80089c2:	f04f 0302 	mov.w	r3, #2
 80089c6:	f000 8098 	beq.w	8008afa <HAL_TIM_ConfigClockSource+0x142>
 80089ca:	2201      	movs	r2, #1
 80089cc:	f880 303d 	strb.w	r3, [r0, #61]	; 0x3d
 80089d0:	f880 203c 	strb.w	r2, [r0, #60]	; 0x3c
 80089d4:	6800      	ldr	r0, [r0, #0]
 80089d6:	4b4a      	ldr	r3, [pc, #296]	; (8008b00 <HAL_TIM_ConfigClockSource+0x148>)
 80089d8:	6885      	ldr	r5, [r0, #8]
 80089da:	402b      	ands	r3, r5
 80089dc:	6083      	str	r3, [r0, #8]
 80089de:	680b      	ldr	r3, [r1, #0]
 80089e0:	2b60      	cmp	r3, #96	; 0x60
 80089e2:	d057      	beq.n	8008a94 <HAL_TIM_ConfigClockSource+0xdc>
 80089e4:	d838      	bhi.n	8008a58 <HAL_TIM_ConfigClockSource+0xa0>
 80089e6:	2b40      	cmp	r3, #64	; 0x40
 80089e8:	d06e      	beq.n	8008ac8 <HAL_TIM_ConfigClockSource+0x110>
 80089ea:	d819      	bhi.n	8008a20 <HAL_TIM_ConfigClockSource+0x68>
 80089ec:	2b20      	cmp	r3, #32
 80089ee:	d00d      	beq.n	8008a0c <HAL_TIM_ConfigClockSource+0x54>
 80089f0:	d80a      	bhi.n	8008a08 <HAL_TIM_ConfigClockSource+0x50>
 80089f2:	f033 0110 	bics.w	r1, r3, #16
 80089f6:	d009      	beq.n	8008a0c <HAL_TIM_ConfigClockSource+0x54>
 80089f8:	2301      	movs	r3, #1
 80089fa:	f884 303d 	strb.w	r3, [r4, #61]	; 0x3d
 80089fe:	2300      	movs	r3, #0
 8008a00:	f884 303c 	strb.w	r3, [r4, #60]	; 0x3c
 8008a04:	4610      	mov	r0, r2
 8008a06:	bd70      	pop	{r4, r5, r6, pc}
 8008a08:	2b30      	cmp	r3, #48	; 0x30
 8008a0a:	d1f5      	bne.n	80089f8 <HAL_TIM_ConfigClockSource+0x40>
 8008a0c:	6882      	ldr	r2, [r0, #8]
 8008a0e:	f422 1240 	bic.w	r2, r2, #3145728	; 0x300000
 8008a12:	f022 0270 	bic.w	r2, r2, #112	; 0x70
 8008a16:	431a      	orrs	r2, r3
 8008a18:	f042 0207 	orr.w	r2, r2, #7
 8008a1c:	6082      	str	r2, [r0, #8]
 8008a1e:	e02d      	b.n	8008a7c <HAL_TIM_ConfigClockSource+0xc4>
 8008a20:	2b50      	cmp	r3, #80	; 0x50
 8008a22:	d1e9      	bne.n	80089f8 <HAL_TIM_ConfigClockSource+0x40>
 8008a24:	684a      	ldr	r2, [r1, #4]
 8008a26:	68ce      	ldr	r6, [r1, #12]
 8008a28:	6a01      	ldr	r1, [r0, #32]
 8008a2a:	6a05      	ldr	r5, [r0, #32]
 8008a2c:	f025 0501 	bic.w	r5, r5, #1
 8008a30:	6205      	str	r5, [r0, #32]
 8008a32:	6983      	ldr	r3, [r0, #24]
 8008a34:	f021 010a 	bic.w	r1, r1, #10
 8008a38:	f023 03f0 	bic.w	r3, r3, #240	; 0xf0
 8008a3c:	ea43 1306 	orr.w	r3, r3, r6, lsl #4
 8008a40:	430a      	orrs	r2, r1
 8008a42:	6183      	str	r3, [r0, #24]
 8008a44:	6202      	str	r2, [r0, #32]
 8008a46:	6883      	ldr	r3, [r0, #8]
 8008a48:	f423 1340 	bic.w	r3, r3, #3145728	; 0x300000
 8008a4c:	f023 0370 	bic.w	r3, r3, #112	; 0x70
 8008a50:	f043 0357 	orr.w	r3, r3, #87	; 0x57
 8008a54:	6083      	str	r3, [r0, #8]
 8008a56:	e011      	b.n	8008a7c <HAL_TIM_ConfigClockSource+0xc4>
 8008a58:	f5b3 5f80 	cmp.w	r3, #4096	; 0x1000
 8008a5c:	d00e      	beq.n	8008a7c <HAL_TIM_ConfigClockSource+0xc4>
 8008a5e:	f5b3 5f00 	cmp.w	r3, #8192	; 0x2000
 8008a62:	d00d      	beq.n	8008a80 <HAL_TIM_ConfigClockSource+0xc8>
 8008a64:	2b70      	cmp	r3, #112	; 0x70
 8008a66:	d1c7      	bne.n	80089f8 <HAL_TIM_ConfigClockSource+0x40>
 8008a68:	68cb      	ldr	r3, [r1, #12]
 8008a6a:	e9d1 2101 	ldrd	r2, r1, [r1, #4]
 8008a6e:	f7ff ff99 	bl	80089a4 <TIM_ETR_SetConfig>
 8008a72:	6822      	ldr	r2, [r4, #0]
 8008a74:	6893      	ldr	r3, [r2, #8]
 8008a76:	f043 0377 	orr.w	r3, r3, #119	; 0x77
 8008a7a:	6093      	str	r3, [r2, #8]
 8008a7c:	2200      	movs	r2, #0
 8008a7e:	e7bb      	b.n	80089f8 <HAL_TIM_ConfigClockSource+0x40>
 8008a80:	68cb      	ldr	r3, [r1, #12]
 8008a82:	e9d1 2101 	ldrd	r2, r1, [r1, #4]
 8008a86:	f7ff ff8d 	bl	80089a4 <TIM_ETR_SetConfig>
 8008a8a:	6822      	ldr	r2, [r4, #0]
 8008a8c:	6893      	ldr	r3, [r2, #8]
 8008a8e:	f443 4380 	orr.w	r3, r3, #16384	; 0x4000
 8008a92:	e7f2      	b.n	8008a7a <HAL_TIM_ConfigClockSource+0xc2>
 8008a94:	684d      	ldr	r5, [r1, #4]
 8008a96:	68ce      	ldr	r6, [r1, #12]
 8008a98:	6a01      	ldr	r1, [r0, #32]
 8008a9a:	f021 0110 	bic.w	r1, r1, #16
 8008a9e:	6201      	str	r1, [r0, #32]
 8008aa0:	6982      	ldr	r2, [r0, #24]
 8008aa2:	6a03      	ldr	r3, [r0, #32]
 8008aa4:	f422 4270 	bic.w	r2, r2, #61440	; 0xf000
 8008aa8:	f023 03a0 	bic.w	r3, r3, #160	; 0xa0
 8008aac:	ea43 1305 	orr.w	r3, r3, r5, lsl #4
 8008ab0:	ea42 3206 	orr.w	r2, r2, r6, lsl #12
 8008ab4:	6182      	str	r2, [r0, #24]
 8008ab6:	6203      	str	r3, [r0, #32]
 8008ab8:	6883      	ldr	r3, [r0, #8]
 8008aba:	f423 1340 	bic.w	r3, r3, #3145728	; 0x300000
 8008abe:	f023 0370 	bic.w	r3, r3, #112	; 0x70
 8008ac2:	f043 0367 	orr.w	r3, r3, #103	; 0x67
 8008ac6:	e7c5      	b.n	8008a54 <HAL_TIM_ConfigClockSource+0x9c>
 8008ac8:	684a      	ldr	r2, [r1, #4]
 8008aca:	68ce      	ldr	r6, [r1, #12]
 8008acc:	6a01      	ldr	r1, [r0, #32]
 8008ace:	6a05      	ldr	r5, [r0, #32]
 8008ad0:	f025 0501 	bic.w	r5, r5, #1
 8008ad4:	6205      	str	r5, [r0, #32]
 8008ad6:	6983      	ldr	r3, [r0, #24]
 8008ad8:	f021 010a 	bic.w	r1, r1, #10
 8008adc:	f023 03f0 	bic.w	r3, r3, #240	; 0xf0
 8008ae0:	ea43 1306 	orr.w	r3, r3, r6, lsl #4
 8008ae4:	430a      	orrs	r2, r1
 8008ae6:	6183      	str	r3, [r0, #24]
 8008ae8:	6202      	str	r2, [r0, #32]
 8008aea:	6883      	ldr	r3, [r0, #8]
 8008aec:	f423 1340 	bic.w	r3, r3, #3145728	; 0x300000
 8008af0:	f023 0370 	bic.w	r3, r3, #112	; 0x70
 8008af4:	f043 0347 	orr.w	r3, r3, #71	; 0x47
 8008af8:	e7ac      	b.n	8008a54 <HAL_TIM_ConfigClockSource+0x9c>
 8008afa:	461a      	mov	r2, r3
 8008afc:	e782      	b.n	8008a04 <HAL_TIM_ConfigClockSource+0x4c>
 8008afe:	bf00      	nop
 8008b00:	ffce0088 	.word	0xffce0088

08008b04 <HAL_TIMEx_MasterConfigSynchronization>:
 8008b04:	b570      	push	{r4, r5, r6, lr}
 8008b06:	f890 303c 	ldrb.w	r3, [r0, #60]	; 0x3c
 8008b0a:	2b01      	cmp	r3, #1
 8008b0c:	4602      	mov	r2, r0
 8008b0e:	f04f 0002 	mov.w	r0, #2
 8008b12:	d020      	beq.n	8008b56 <HAL_TIMEx_MasterConfigSynchronization+0x52>
 8008b14:	f882 003d 	strb.w	r0, [r2, #61]	; 0x3d
 8008b18:	4d0f      	ldr	r5, [pc, #60]	; (8008b58 <HAL_TIMEx_MasterConfigSynchronization+0x54>)
 8008b1a:	6810      	ldr	r0, [r2, #0]
 8008b1c:	6843      	ldr	r3, [r0, #4]
 8008b1e:	6884      	ldr	r4, [r0, #8]
 8008b20:	42a8      	cmp	r0, r5
 8008b22:	bf02      	ittt	eq
 8008b24:	684e      	ldreq	r6, [r1, #4]
 8008b26:	f423 0370 	biceq.w	r3, r3, #15728640	; 0xf00000
 8008b2a:	4333      	orreq	r3, r6
 8008b2c:	680e      	ldr	r6, [r1, #0]
 8008b2e:	f023 0370 	bic.w	r3, r3, #112	; 0x70
 8008b32:	4333      	orrs	r3, r6
 8008b34:	42a8      	cmp	r0, r5
 8008b36:	6043      	str	r3, [r0, #4]
 8008b38:	d002      	beq.n	8008b40 <HAL_TIMEx_MasterConfigSynchronization+0x3c>
 8008b3a:	f1b0 4f80 	cmp.w	r0, #1073741824	; 0x40000000
 8008b3e:	d104      	bne.n	8008b4a <HAL_TIMEx_MasterConfigSynchronization+0x46>
 8008b40:	6889      	ldr	r1, [r1, #8]
 8008b42:	f024 0380 	bic.w	r3, r4, #128	; 0x80
 8008b46:	430b      	orrs	r3, r1
 8008b48:	6083      	str	r3, [r0, #8]
 8008b4a:	2301      	movs	r3, #1
 8008b4c:	2000      	movs	r0, #0
 8008b4e:	f882 303d 	strb.w	r3, [r2, #61]	; 0x3d
 8008b52:	f882 003c 	strb.w	r0, [r2, #60]	; 0x3c
 8008b56:	bd70      	pop	{r4, r5, r6, pc}
 8008b58:	40012c00 	.word	0x40012c00

08008b5c <HAL_TIMEx_CommutCallback>:
 8008b5c:	4770      	bx	lr

08008b5e <HAL_TIMEx_BreakCallback>:
 8008b5e:	4770      	bx	lr

08008b60 <HAL_TIMEx_Break2Callback>:
 8008b60:	4770      	bx	lr

08008b62 <HAL_UART_GetState>:
 8008b62:	f8d0 2084 	ldr.w	r2, [r0, #132]	; 0x84
 8008b66:	f8d0 0088 	ldr.w	r0, [r0, #136]	; 0x88
 8008b6a:	4310      	orrs	r0, r2
 8008b6c:	4770      	bx	lr
	...

08008b70 <UART_SetConfig>:
 8008b70:	b538      	push	{r3, r4, r5, lr}
 8008b72:	4604      	mov	r4, r0
 8008b74:	6803      	ldr	r3, [r0, #0]
 8008b76:	6921      	ldr	r1, [r4, #16]
 8008b78:	68a2      	ldr	r2, [r4, #8]
 8008b7a:	681d      	ldr	r5, [r3, #0]
 8008b7c:	69c0      	ldr	r0, [r0, #28]
 8008b7e:	430a      	orrs	r2, r1
 8008b80:	6961      	ldr	r1, [r4, #20]
 8008b82:	430a      	orrs	r2, r1
 8008b84:	497e      	ldr	r1, [pc, #504]	; (8008d80 <UART_SetConfig+0x210>)
 8008b86:	4302      	orrs	r2, r0
 8008b88:	4029      	ands	r1, r5
 8008b8a:	430a      	orrs	r2, r1
 8008b8c:	601a      	str	r2, [r3, #0]
 8008b8e:	685a      	ldr	r2, [r3, #4]
 8008b90:	68e1      	ldr	r1, [r4, #12]
 8008b92:	f422 5240 	bic.w	r2, r2, #12288	; 0x3000
 8008b96:	430a      	orrs	r2, r1
 8008b98:	605a      	str	r2, [r3, #4]
 8008b9a:	4a7a      	ldr	r2, [pc, #488]	; (8008d84 <UART_SetConfig+0x214>)
 8008b9c:	69a1      	ldr	r1, [r4, #24]
 8008b9e:	4293      	cmp	r3, r2
 8008ba0:	bf1c      	itt	ne
 8008ba2:	6a22      	ldrne	r2, [r4, #32]
 8008ba4:	4311      	orrne	r1, r2
 8008ba6:	689a      	ldr	r2, [r3, #8]
 8008ba8:	f022 426e 	bic.w	r2, r2, #3992977408	; 0xee000000
 8008bac:	f422 6230 	bic.w	r2, r2, #2816	; 0xb00
 8008bb0:	430a      	orrs	r2, r1
 8008bb2:	609a      	str	r2, [r3, #8]
 8008bb4:	6ada      	ldr	r2, [r3, #44]	; 0x2c
 8008bb6:	6a61      	ldr	r1, [r4, #36]	; 0x24
 8008bb8:	f022 020f 	bic.w	r2, r2, #15
 8008bbc:	430a      	orrs	r2, r1
 8008bbe:	62da      	str	r2, [r3, #44]	; 0x2c
 8008bc0:	4a71      	ldr	r2, [pc, #452]	; (8008d88 <UART_SetConfig+0x218>)
 8008bc2:	4293      	cmp	r3, r2
 8008bc4:	d11c      	bne.n	8008c00 <UART_SetConfig+0x90>
 8008bc6:	f04f 43b0 	mov.w	r3, #1476395008	; 0x58000000
 8008bca:	f8d3 3088 	ldr.w	r3, [r3, #136]	; 0x88
 8008bce:	f003 0303 	and.w	r3, r3, #3
 8008bd2:	f443 3340 	orr.w	r3, r3, #196608	; 0x30000
 8008bd6:	f5a3 3340 	sub.w	r3, r3, #196608	; 0x30000
 8008bda:	3b01      	subs	r3, #1
 8008bdc:	2b02      	cmp	r3, #2
 8008bde:	f200 80c8 	bhi.w	8008d72 <UART_SetConfig+0x202>
 8008be2:	4a6a      	ldr	r2, [pc, #424]	; (8008d8c <UART_SetConfig+0x21c>)
 8008be4:	5c9b      	ldrb	r3, [r3, r2]
 8008be6:	f5b0 4f00 	cmp.w	r0, #32768	; 0x8000
 8008bea:	f040 808a 	bne.w	8008d02 <UART_SetConfig+0x192>
 8008bee:	2b08      	cmp	r3, #8
 8008bf0:	d824      	bhi.n	8008c3c <UART_SetConfig+0xcc>
 8008bf2:	e8df f003 	tbb	[pc, r3]
 8008bf6:	c161      	.short	0xc161
 8008bf8:	23812384 	.word	0x23812384
 8008bfc:	2323      	.short	0x2323
 8008bfe:	65          	.byte	0x65
 8008bff:	00          	.byte	0x00
 8008c00:	4a63      	ldr	r2, [pc, #396]	; (8008d90 <UART_SetConfig+0x220>)
 8008c02:	4293      	cmp	r3, r2
 8008c04:	d109      	bne.n	8008c1a <UART_SetConfig+0xaa>
 8008c06:	f04f 43b0 	mov.w	r3, #1476395008	; 0x58000000
 8008c0a:	4a62      	ldr	r2, [pc, #392]	; (8008d94 <UART_SetConfig+0x224>)
 8008c0c:	f8d3 3088 	ldr.w	r3, [r3, #136]	; 0x88
 8008c10:	f003 030c 	and.w	r3, r3, #12
 8008c14:	f443 2340 	orr.w	r3, r3, #786432	; 0xc0000
 8008c18:	e7e4      	b.n	8008be4 <UART_SetConfig+0x74>
 8008c1a:	4a5a      	ldr	r2, [pc, #360]	; (8008d84 <UART_SetConfig+0x214>)
 8008c1c:	4293      	cmp	r3, r2
 8008c1e:	d10d      	bne.n	8008c3c <UART_SetConfig+0xcc>
 8008c20:	f04f 43b0 	mov.w	r3, #1476395008	; 0x58000000
 8008c24:	f8d3 3088 	ldr.w	r3, [r3, #136]	; 0x88
 8008c28:	f403 6340 	and.w	r3, r3, #3072	; 0xc00
 8008c2c:	f5b3 6f00 	cmp.w	r3, #2048	; 0x800
 8008c30:	d01a      	beq.n	8008c68 <UART_SetConfig+0xf8>
 8008c32:	d805      	bhi.n	8008c40 <UART_SetConfig+0xd0>
 8008c34:	b153      	cbz	r3, 8008c4c <UART_SetConfig+0xdc>
 8008c36:	f5b3 6f80 	cmp.w	r3, #1024	; 0x400
 8008c3a:	d012      	beq.n	8008c62 <UART_SetConfig+0xf2>
 8008c3c:	2001      	movs	r0, #1
 8008c3e:	e009      	b.n	8008c54 <UART_SetConfig+0xe4>
 8008c40:	f5b3 6f40 	cmp.w	r3, #3072	; 0xc00
 8008c44:	d1fa      	bne.n	8008c3c <UART_SetConfig+0xcc>
 8008c46:	f44f 4000 	mov.w	r0, #32768	; 0x8000
 8008c4a:	e00e      	b.n	8008c6a <UART_SetConfig+0xfa>
 8008c4c:	f7fe fcd2 	bl	80075f4 <HAL_RCC_GetPCLK1Freq>
 8008c50:	b958      	cbnz	r0, 8008c6a <UART_SetConfig+0xfa>
 8008c52:	2000      	movs	r0, #0
 8008c54:	f04f 1301 	mov.w	r3, #65537	; 0x10001
 8008c58:	66a3      	str	r3, [r4, #104]	; 0x68
 8008c5a:	2300      	movs	r3, #0
 8008c5c:	e9c4 331c 	strd	r3, r3, [r4, #112]	; 0x70
 8008c60:	bd38      	pop	{r3, r4, r5, pc}
 8008c62:	f7fe f8cb 	bl	8006dfc <HAL_RCC_GetSysClockFreq>
 8008c66:	e7f3      	b.n	8008c50 <UART_SetConfig+0xe0>
 8008c68:	484b      	ldr	r0, [pc, #300]	; (8008d98 <UART_SetConfig+0x228>)
 8008c6a:	6865      	ldr	r5, [r4, #4]
 8008c6c:	4b4b      	ldr	r3, [pc, #300]	; (8008d9c <UART_SetConfig+0x22c>)
 8008c6e:	6a62      	ldr	r2, [r4, #36]	; 0x24
 8008c70:	eb05 0145 	add.w	r1, r5, r5, lsl #1
 8008c74:	f833 2012 	ldrh.w	r2, [r3, r2, lsl #1]
 8008c78:	fbb0 f3f2 	udiv	r3, r0, r2
 8008c7c:	4299      	cmp	r1, r3
 8008c7e:	d8dd      	bhi.n	8008c3c <UART_SetConfig+0xcc>
 8008c80:	ebb3 3f05 	cmp.w	r3, r5, lsl #12
 8008c84:	d8da      	bhi.n	8008c3c <UART_SetConfig+0xcc>
 8008c86:	2300      	movs	r3, #0
 8008c88:	4619      	mov	r1, r3
 8008c8a:	f7f7 ff7d 	bl	8000b88 <__aeabi_uldivmod>
 8008c8e:	0209      	lsls	r1, r1, #8
 8008c90:	ea41 6110 	orr.w	r1, r1, r0, lsr #24
 8008c94:	086b      	lsrs	r3, r5, #1
 8008c96:	0200      	lsls	r0, r0, #8
 8008c98:	18c0      	adds	r0, r0, r3
 8008c9a:	462a      	mov	r2, r5
 8008c9c:	f04f 0300 	mov.w	r3, #0
 8008ca0:	f141 0100 	adc.w	r1, r1, #0
 8008ca4:	f7f7 ff70 	bl	8000b88 <__aeabi_uldivmod>
 8008ca8:	4b3d      	ldr	r3, [pc, #244]	; (8008da0 <UART_SetConfig+0x230>)
 8008caa:	f5a0 7240 	sub.w	r2, r0, #768	; 0x300
 8008cae:	429a      	cmp	r2, r3
 8008cb0:	d8c4      	bhi.n	8008c3c <UART_SetConfig+0xcc>
 8008cb2:	6823      	ldr	r3, [r4, #0]
 8008cb4:	60d8      	str	r0, [r3, #12]
 8008cb6:	e7cc      	b.n	8008c52 <UART_SetConfig+0xe2>
 8008cb8:	f7fe fc9c 	bl	80075f4 <HAL_RCC_GetPCLK1Freq>
 8008cbc:	2800      	cmp	r0, #0
 8008cbe:	d0c8      	beq.n	8008c52 <UART_SetConfig+0xe2>
 8008cc0:	6862      	ldr	r2, [r4, #4]
 8008cc2:	6a61      	ldr	r1, [r4, #36]	; 0x24
 8008cc4:	4b35      	ldr	r3, [pc, #212]	; (8008d9c <UART_SetConfig+0x22c>)
 8008cc6:	f833 3011 	ldrh.w	r3, [r3, r1, lsl #1]
 8008cca:	fbb0 f3f3 	udiv	r3, r0, r3
 8008cce:	0850      	lsrs	r0, r2, #1
 8008cd0:	eb00 0043 	add.w	r0, r0, r3, lsl #1
 8008cd4:	fbb0 f0f2 	udiv	r0, r0, r2
 8008cd8:	b283      	uxth	r3, r0
 8008cda:	f1a3 0110 	sub.w	r1, r3, #16
 8008cde:	f64f 72ef 	movw	r2, #65519	; 0xffef
 8008ce2:	4291      	cmp	r1, r2
 8008ce4:	d8aa      	bhi.n	8008c3c <UART_SetConfig+0xcc>
 8008ce6:	f020 000f 	bic.w	r0, r0, #15
 8008cea:	6822      	ldr	r2, [r4, #0]
 8008cec:	b280      	uxth	r0, r0
 8008cee:	f3c3 0342 	ubfx	r3, r3, #1, #3
 8008cf2:	4318      	orrs	r0, r3
 8008cf4:	60d0      	str	r0, [r2, #12]
 8008cf6:	e7ac      	b.n	8008c52 <UART_SetConfig+0xe2>
 8008cf8:	f7fe f880 	bl	8006dfc <HAL_RCC_GetSysClockFreq>
 8008cfc:	e7de      	b.n	8008cbc <UART_SetConfig+0x14c>
 8008cfe:	4826      	ldr	r0, [pc, #152]	; (8008d98 <UART_SetConfig+0x228>)
 8008d00:	e7de      	b.n	8008cc0 <UART_SetConfig+0x150>
 8008d02:	2b08      	cmp	r3, #8
 8008d04:	d89a      	bhi.n	8008c3c <UART_SetConfig+0xcc>
 8008d06:	a201      	add	r2, pc, #4	; (adr r2, 8008d0c <UART_SetConfig+0x19c>)
 8008d08:	f852 f023 	ldr.w	pc, [r2, r3, lsl #2]
 8008d0c:	08008d57 	.word	0x08008d57
 8008d10:	08008d63 	.word	0x08008d63
 8008d14:	08008d6f 	.word	0x08008d6f
 8008d18:	08008c3d 	.word	0x08008c3d
 8008d1c:	08008d69 	.word	0x08008d69
 8008d20:	08008c3d 	.word	0x08008c3d
 8008d24:	08008c3d 	.word	0x08008c3d
 8008d28:	08008c3d 	.word	0x08008c3d
 8008d2c:	08008d31 	.word	0x08008d31
 8008d30:	f44f 4000 	mov.w	r0, #32768	; 0x8000
 8008d34:	6863      	ldr	r3, [r4, #4]
 8008d36:	6a61      	ldr	r1, [r4, #36]	; 0x24
 8008d38:	4a18      	ldr	r2, [pc, #96]	; (8008d9c <UART_SetConfig+0x22c>)
 8008d3a:	f832 2011 	ldrh.w	r2, [r2, r1, lsl #1]
 8008d3e:	fbb0 f0f2 	udiv	r0, r0, r2
 8008d42:	eb00 0053 	add.w	r0, r0, r3, lsr #1
 8008d46:	fbb0 f0f3 	udiv	r0, r0, r3
 8008d4a:	b280      	uxth	r0, r0
 8008d4c:	f1a0 0210 	sub.w	r2, r0, #16
 8008d50:	f64f 73ef 	movw	r3, #65519	; 0xffef
 8008d54:	e7ab      	b.n	8008cae <UART_SetConfig+0x13e>
 8008d56:	f7fe fc4d 	bl	80075f4 <HAL_RCC_GetPCLK1Freq>
 8008d5a:	2800      	cmp	r0, #0
 8008d5c:	f43f af79 	beq.w	8008c52 <UART_SetConfig+0xe2>
 8008d60:	e7e8      	b.n	8008d34 <UART_SetConfig+0x1c4>
 8008d62:	f7fe fc57 	bl	8007614 <HAL_RCC_GetPCLK2Freq>
 8008d66:	e7f8      	b.n	8008d5a <UART_SetConfig+0x1ea>
 8008d68:	f7fe f848 	bl	8006dfc <HAL_RCC_GetSysClockFreq>
 8008d6c:	e7f5      	b.n	8008d5a <UART_SetConfig+0x1ea>
 8008d6e:	480a      	ldr	r0, [pc, #40]	; (8008d98 <UART_SetConfig+0x228>)
 8008d70:	e7e0      	b.n	8008d34 <UART_SetConfig+0x1c4>
 8008d72:	f5b0 4f00 	cmp.w	r0, #32768	; 0x8000
 8008d76:	d1f4      	bne.n	8008d62 <UART_SetConfig+0x1f2>
 8008d78:	f7fe fc4c 	bl	8007614 <HAL_RCC_GetPCLK2Freq>
 8008d7c:	e79e      	b.n	8008cbc <UART_SetConfig+0x14c>
 8008d7e:	bf00      	nop
 8008d80:	cfff69f3 	.word	0xcfff69f3
 8008d84:	40008000 	.word	0x40008000
 8008d88:	40013800 	.word	0x40013800
 8008d8c:	08010dcc 	.word	0x08010dcc
 8008d90:	40004400 	.word	0x40004400
 8008d94:	07f50dcf 	.word	0x07f50dcf
 8008d98:	00f42400 	.word	0x00f42400
 8008d9c:	08010ddc 	.word	0x08010ddc
 8008da0:	000ffcff 	.word	0x000ffcff

08008da4 <UART_AdvFeatureConfig>:
 8008da4:	6a83      	ldr	r3, [r0, #40]	; 0x28
 8008da6:	07da      	lsls	r2, r3, #31
 8008da8:	b510      	push	{r4, lr}
 8008daa:	d506      	bpl.n	8008dba <UART_AdvFeatureConfig+0x16>
 8008dac:	6801      	ldr	r1, [r0, #0]
 8008dae:	6ac4      	ldr	r4, [r0, #44]	; 0x2c
 8008db0:	684a      	ldr	r2, [r1, #4]
 8008db2:	f422 3200 	bic.w	r2, r2, #131072	; 0x20000
 8008db6:	4322      	orrs	r2, r4
 8008db8:	604a      	str	r2, [r1, #4]
 8008dba:	079c      	lsls	r4, r3, #30
 8008dbc:	d506      	bpl.n	8008dcc <UART_AdvFeatureConfig+0x28>
 8008dbe:	6801      	ldr	r1, [r0, #0]
 8008dc0:	6b04      	ldr	r4, [r0, #48]	; 0x30
 8008dc2:	684a      	ldr	r2, [r1, #4]
 8008dc4:	f422 3280 	bic.w	r2, r2, #65536	; 0x10000
 8008dc8:	4322      	orrs	r2, r4
 8008dca:	604a      	str	r2, [r1, #4]
 8008dcc:	0759      	lsls	r1, r3, #29
 8008dce:	d506      	bpl.n	8008dde <UART_AdvFeatureConfig+0x3a>
 8008dd0:	6801      	ldr	r1, [r0, #0]
 8008dd2:	6b44      	ldr	r4, [r0, #52]	; 0x34
 8008dd4:	684a      	ldr	r2, [r1, #4]
 8008dd6:	f422 2280 	bic.w	r2, r2, #262144	; 0x40000
 8008dda:	4322      	orrs	r2, r4
 8008ddc:	604a      	str	r2, [r1, #4]
 8008dde:	071a      	lsls	r2, r3, #28
 8008de0:	d506      	bpl.n	8008df0 <UART_AdvFeatureConfig+0x4c>
 8008de2:	6801      	ldr	r1, [r0, #0]
 8008de4:	6b84      	ldr	r4, [r0, #56]	; 0x38
 8008de6:	684a      	ldr	r2, [r1, #4]
 8008de8:	f422 4200 	bic.w	r2, r2, #32768	; 0x8000
 8008dec:	4322      	orrs	r2, r4
 8008dee:	604a      	str	r2, [r1, #4]
 8008df0:	06dc      	lsls	r4, r3, #27
 8008df2:	d506      	bpl.n	8008e02 <UART_AdvFeatureConfig+0x5e>
 8008df4:	6801      	ldr	r1, [r0, #0]
 8008df6:	6bc4      	ldr	r4, [r0, #60]	; 0x3c
 8008df8:	688a      	ldr	r2, [r1, #8]
 8008dfa:	f422 5280 	bic.w	r2, r2, #4096	; 0x1000
 8008dfe:	4322      	orrs	r2, r4
 8008e00:	608a      	str	r2, [r1, #8]
 8008e02:	0699      	lsls	r1, r3, #26
 8008e04:	d506      	bpl.n	8008e14 <UART_AdvFeatureConfig+0x70>
 8008e06:	6801      	ldr	r1, [r0, #0]
 8008e08:	6c04      	ldr	r4, [r0, #64]	; 0x40
 8008e0a:	688a      	ldr	r2, [r1, #8]
 8008e0c:	f422 5200 	bic.w	r2, r2, #8192	; 0x2000
 8008e10:	4322      	orrs	r2, r4
 8008e12:	608a      	str	r2, [r1, #8]
 8008e14:	065a      	lsls	r2, r3, #25
 8008e16:	d50f      	bpl.n	8008e38 <UART_AdvFeatureConfig+0x94>
 8008e18:	6801      	ldr	r1, [r0, #0]
 8008e1a:	6c44      	ldr	r4, [r0, #68]	; 0x44
 8008e1c:	684a      	ldr	r2, [r1, #4]
 8008e1e:	f422 1280 	bic.w	r2, r2, #1048576	; 0x100000
 8008e22:	4322      	orrs	r2, r4
 8008e24:	f5b4 1f80 	cmp.w	r4, #1048576	; 0x100000
 8008e28:	604a      	str	r2, [r1, #4]
 8008e2a:	d105      	bne.n	8008e38 <UART_AdvFeatureConfig+0x94>
 8008e2c:	684a      	ldr	r2, [r1, #4]
 8008e2e:	6c84      	ldr	r4, [r0, #72]	; 0x48
 8008e30:	f422 02c0 	bic.w	r2, r2, #6291456	; 0x600000
 8008e34:	4322      	orrs	r2, r4
 8008e36:	604a      	str	r2, [r1, #4]
 8008e38:	061b      	lsls	r3, r3, #24
 8008e3a:	d506      	bpl.n	8008e4a <UART_AdvFeatureConfig+0xa6>
 8008e3c:	6802      	ldr	r2, [r0, #0]
 8008e3e:	6cc1      	ldr	r1, [r0, #76]	; 0x4c
 8008e40:	6853      	ldr	r3, [r2, #4]
 8008e42:	f423 2300 	bic.w	r3, r3, #524288	; 0x80000
 8008e46:	430b      	orrs	r3, r1
 8008e48:	6053      	str	r3, [r2, #4]
 8008e4a:	bd10      	pop	{r4, pc}

08008e4c <UART_WaitOnFlagUntilTimeout>:
 8008e4c:	e92d 41f0 	stmdb	sp!, {r4, r5, r6, r7, r8, lr}
 8008e50:	f8dd 8018 	ldr.w	r8, [sp, #24]
 8008e54:	4604      	mov	r4, r0
 8008e56:	460e      	mov	r6, r1
 8008e58:	4615      	mov	r5, r2
 8008e5a:	461f      	mov	r7, r3
 8008e5c:	6822      	ldr	r2, [r4, #0]
 8008e5e:	69d3      	ldr	r3, [r2, #28]
 8008e60:	ea36 0303 	bics.w	r3, r6, r3
 8008e64:	bf0c      	ite	eq
 8008e66:	2301      	moveq	r3, #1
 8008e68:	2300      	movne	r3, #0
 8008e6a:	42ab      	cmp	r3, r5
 8008e6c:	d001      	beq.n	8008e72 <UART_WaitOnFlagUntilTimeout+0x26>
 8008e6e:	2000      	movs	r0, #0
 8008e70:	e027      	b.n	8008ec2 <UART_WaitOnFlagUntilTimeout+0x76>
 8008e72:	f1b8 3fff 	cmp.w	r8, #4294967295	; 0xffffffff
 8008e76:	d0f2      	beq.n	8008e5e <UART_WaitOnFlagUntilTimeout+0x12>
 8008e78:	f7fc fe5e 	bl	8005b38 <HAL_GetTick>
 8008e7c:	1bc0      	subs	r0, r0, r7
 8008e7e:	4540      	cmp	r0, r8
 8008e80:	6820      	ldr	r0, [r4, #0]
 8008e82:	d802      	bhi.n	8008e8a <UART_WaitOnFlagUntilTimeout+0x3e>
 8008e84:	f1b8 0f00 	cmp.w	r8, #0
 8008e88:	d11d      	bne.n	8008ec6 <UART_WaitOnFlagUntilTimeout+0x7a>
 8008e8a:	e850 3f00 	ldrex	r3, [r0]
 8008e8e:	f423 73d0 	bic.w	r3, r3, #416	; 0x1a0
 8008e92:	e840 3200 	strex	r2, r3, [r0]
 8008e96:	2a00      	cmp	r2, #0
 8008e98:	d1f7      	bne.n	8008e8a <UART_WaitOnFlagUntilTimeout+0x3e>
 8008e9a:	f100 0308 	add.w	r3, r0, #8
 8008e9e:	e853 3f00 	ldrex	r3, [r3]
 8008ea2:	f023 0301 	bic.w	r3, r3, #1
 8008ea6:	f100 0108 	add.w	r1, r0, #8
 8008eaa:	e841 3200 	strex	r2, r3, [r1]
 8008eae:	2a00      	cmp	r2, #0
 8008eb0:	d1f3      	bne.n	8008e9a <UART_WaitOnFlagUntilTimeout+0x4e>
 8008eb2:	2320      	movs	r3, #32
 8008eb4:	f8c4 3084 	str.w	r3, [r4, #132]	; 0x84
 8008eb8:	f8c4 3088 	str.w	r3, [r4, #136]	; 0x88
 8008ebc:	f884 2080 	strb.w	r2, [r4, #128]	; 0x80
 8008ec0:	2003      	movs	r0, #3
 8008ec2:	e8bd 81f0 	ldmia.w	sp!, {r4, r5, r6, r7, r8, pc}
 8008ec6:	6803      	ldr	r3, [r0, #0]
 8008ec8:	075a      	lsls	r2, r3, #29
 8008eca:	d5c7      	bpl.n	8008e5c <UART_WaitOnFlagUntilTimeout+0x10>
 8008ecc:	69c3      	ldr	r3, [r0, #28]
 8008ece:	051b      	lsls	r3, r3, #20
 8008ed0:	d5c4      	bpl.n	8008e5c <UART_WaitOnFlagUntilTimeout+0x10>
 8008ed2:	f44f 6300 	mov.w	r3, #2048	; 0x800
 8008ed6:	6203      	str	r3, [r0, #32]
 8008ed8:	e850 3f00 	ldrex	r3, [r0]
 8008edc:	f423 73d0 	bic.w	r3, r3, #416	; 0x1a0
 8008ee0:	e840 3200 	strex	r2, r3, [r0]
 8008ee4:	2a00      	cmp	r2, #0
 8008ee6:	d1f7      	bne.n	8008ed8 <UART_WaitOnFlagUntilTimeout+0x8c>
 8008ee8:	f100 0308 	add.w	r3, r0, #8
 8008eec:	e853 3f00 	ldrex	r3, [r3]
 8008ef0:	f023 0301 	bic.w	r3, r3, #1
 8008ef4:	f100 0108 	add.w	r1, r0, #8
 8008ef8:	e841 3200 	strex	r2, r3, [r1]
 8008efc:	2a00      	cmp	r2, #0
 8008efe:	d1f3      	bne.n	8008ee8 <UART_WaitOnFlagUntilTimeout+0x9c>
 8008f00:	2320      	movs	r3, #32
 8008f02:	f8c4 3084 	str.w	r3, [r4, #132]	; 0x84
 8008f06:	f8c4 3088 	str.w	r3, [r4, #136]	; 0x88
 8008f0a:	f8c4 308c 	str.w	r3, [r4, #140]	; 0x8c
 8008f0e:	e7d5      	b.n	8008ebc <UART_WaitOnFlagUntilTimeout+0x70>

08008f10 <UART_CheckIdleState>:
 8008f10:	b573      	push	{r0, r1, r4, r5, r6, lr}
 8008f12:	4604      	mov	r4, r0
 8008f14:	2600      	movs	r6, #0
 8008f16:	f8c0 608c 	str.w	r6, [r0, #140]	; 0x8c
 8008f1a:	f7fc fe0d 	bl	8005b38 <HAL_GetTick>
 8008f1e:	6823      	ldr	r3, [r4, #0]
 8008f20:	681b      	ldr	r3, [r3, #0]
 8008f22:	071a      	lsls	r2, r3, #28
 8008f24:	4605      	mov	r5, r0
 8008f26:	d418      	bmi.n	8008f5a <UART_CheckIdleState+0x4a>
 8008f28:	6823      	ldr	r3, [r4, #0]
 8008f2a:	681b      	ldr	r3, [r3, #0]
 8008f2c:	075b      	lsls	r3, r3, #29
 8008f2e:	d50a      	bpl.n	8008f46 <UART_CheckIdleState+0x36>
 8008f30:	f06f 437e 	mvn.w	r3, #4261412864	; 0xfe000000
 8008f34:	9300      	str	r3, [sp, #0]
 8008f36:	2200      	movs	r2, #0
 8008f38:	462b      	mov	r3, r5
 8008f3a:	f44f 0180 	mov.w	r1, #4194304	; 0x400000
 8008f3e:	4620      	mov	r0, r4
 8008f40:	f7ff ff84 	bl	8008e4c <UART_WaitOnFlagUntilTimeout>
 8008f44:	b9a8      	cbnz	r0, 8008f72 <UART_CheckIdleState+0x62>
 8008f46:	2320      	movs	r3, #32
 8008f48:	2000      	movs	r0, #0
 8008f4a:	f8c4 3084 	str.w	r3, [r4, #132]	; 0x84
 8008f4e:	f884 0080 	strb.w	r0, [r4, #128]	; 0x80
 8008f52:	f8c4 3088 	str.w	r3, [r4, #136]	; 0x88
 8008f56:	66e0      	str	r0, [r4, #108]	; 0x6c
 8008f58:	e00c      	b.n	8008f74 <UART_CheckIdleState+0x64>
 8008f5a:	f06f 437e 	mvn.w	r3, #4261412864	; 0xfe000000
 8008f5e:	9300      	str	r3, [sp, #0]
 8008f60:	4632      	mov	r2, r6
 8008f62:	4603      	mov	r3, r0
 8008f64:	f44f 1100 	mov.w	r1, #2097152	; 0x200000
 8008f68:	4620      	mov	r0, r4
 8008f6a:	f7ff ff6f 	bl	8008e4c <UART_WaitOnFlagUntilTimeout>
 8008f6e:	2800      	cmp	r0, #0
 8008f70:	d0da      	beq.n	8008f28 <UART_CheckIdleState+0x18>
 8008f72:	2003      	movs	r0, #3
 8008f74:	b002      	add	sp, #8
 8008f76:	bd70      	pop	{r4, r5, r6, pc}

08008f78 <HAL_UART_Init>:
 8008f78:	b510      	push	{r4, lr}
 8008f7a:	4604      	mov	r4, r0
 8008f7c:	b350      	cbz	r0, 8008fd4 <HAL_UART_Init+0x5c>
 8008f7e:	f8d0 3084 	ldr.w	r3, [r0, #132]	; 0x84
 8008f82:	b91b      	cbnz	r3, 8008f8c <HAL_UART_Init+0x14>
 8008f84:	f880 3080 	strb.w	r3, [r0, #128]	; 0x80
 8008f88:	f7fc ffe2 	bl	8005f50 <HAL_UART_MspInit>
 8008f8c:	6822      	ldr	r2, [r4, #0]
 8008f8e:	2324      	movs	r3, #36	; 0x24
 8008f90:	f8c4 3084 	str.w	r3, [r4, #132]	; 0x84
 8008f94:	6813      	ldr	r3, [r2, #0]
 8008f96:	f023 0301 	bic.w	r3, r3, #1
 8008f9a:	6013      	str	r3, [r2, #0]
 8008f9c:	4620      	mov	r0, r4
 8008f9e:	f7ff fde7 	bl	8008b70 <UART_SetConfig>
 8008fa2:	2801      	cmp	r0, #1
 8008fa4:	d016      	beq.n	8008fd4 <HAL_UART_Init+0x5c>
 8008fa6:	6aa3      	ldr	r3, [r4, #40]	; 0x28
 8008fa8:	b113      	cbz	r3, 8008fb0 <HAL_UART_Init+0x38>
 8008faa:	4620      	mov	r0, r4
 8008fac:	f7ff fefa 	bl	8008da4 <UART_AdvFeatureConfig>
 8008fb0:	6823      	ldr	r3, [r4, #0]
 8008fb2:	685a      	ldr	r2, [r3, #4]
 8008fb4:	f422 4290 	bic.w	r2, r2, #18432	; 0x4800
 8008fb8:	605a      	str	r2, [r3, #4]
 8008fba:	689a      	ldr	r2, [r3, #8]
 8008fbc:	f022 022a 	bic.w	r2, r2, #42	; 0x2a
 8008fc0:	609a      	str	r2, [r3, #8]
 8008fc2:	681a      	ldr	r2, [r3, #0]
 8008fc4:	f042 0201 	orr.w	r2, r2, #1
 8008fc8:	4620      	mov	r0, r4
 8008fca:	601a      	str	r2, [r3, #0]
 8008fcc:	e8bd 4010 	ldmia.w	sp!, {r4, lr}
 8008fd0:	f7ff bf9e 	b.w	8008f10 <UART_CheckIdleState>
 8008fd4:	2001      	movs	r0, #1
 8008fd6:	bd10      	pop	{r4, pc}

08008fd8 <UARTEx_SetNbDataToProcess>:
 8008fd8:	6e43      	ldr	r3, [r0, #100]	; 0x64
 8008fda:	b530      	push	{r4, r5, lr}
 8008fdc:	b91b      	cbnz	r3, 8008fe6 <UARTEx_SetNbDataToProcess+0xe>
 8008fde:	f04f 1301 	mov.w	r3, #65537	; 0x10001
 8008fe2:	6683      	str	r3, [r0, #104]	; 0x68
 8008fe4:	bd30      	pop	{r4, r5, pc}
 8008fe6:	6803      	ldr	r3, [r0, #0]
 8008fe8:	4d0a      	ldr	r5, [pc, #40]	; (8009014 <UARTEx_SetNbDataToProcess+0x3c>)
 8008fea:	689a      	ldr	r2, [r3, #8]
 8008fec:	6899      	ldr	r1, [r3, #8]
 8008fee:	4c0a      	ldr	r4, [pc, #40]	; (8009018 <UARTEx_SetNbDataToProcess+0x40>)
 8008ff0:	0f49      	lsrs	r1, r1, #29
 8008ff2:	f3c2 6242 	ubfx	r2, r2, #25, #3
 8008ff6:	5c6b      	ldrb	r3, [r5, r1]
 8008ff8:	5c61      	ldrb	r1, [r4, r1]
 8008ffa:	00db      	lsls	r3, r3, #3
 8008ffc:	fbb3 f3f1 	udiv	r3, r3, r1
 8009000:	f8a0 306a 	strh.w	r3, [r0, #106]	; 0x6a
 8009004:	5cab      	ldrb	r3, [r5, r2]
 8009006:	5ca2      	ldrb	r2, [r4, r2]
 8009008:	00db      	lsls	r3, r3, #3
 800900a:	fbb3 f3f2 	udiv	r3, r3, r2
 800900e:	f8a0 3068 	strh.w	r3, [r0, #104]	; 0x68
 8009012:	e7e7      	b.n	8008fe4 <UARTEx_SetNbDataToProcess+0xc>
 8009014:	08010dfc 	.word	0x08010dfc
 8009018:	08010df4 	.word	0x08010df4

0800901c <HAL_UARTEx_DisableFifoMode>:
 800901c:	f890 3080 	ldrb.w	r3, [r0, #128]	; 0x80
 8009020:	2b01      	cmp	r3, #1
 8009022:	d014      	beq.n	800904e <HAL_UARTEx_DisableFifoMode+0x32>
 8009024:	6802      	ldr	r2, [r0, #0]
 8009026:	2324      	movs	r3, #36	; 0x24
 8009028:	f8c0 3084 	str.w	r3, [r0, #132]	; 0x84
 800902c:	6811      	ldr	r1, [r2, #0]
 800902e:	6813      	ldr	r3, [r2, #0]
 8009030:	f023 0301 	bic.w	r3, r3, #1
 8009034:	6013      	str	r3, [r2, #0]
 8009036:	f021 5100 	bic.w	r1, r1, #536870912	; 0x20000000
 800903a:	2300      	movs	r3, #0
 800903c:	6643      	str	r3, [r0, #100]	; 0x64
 800903e:	6011      	str	r1, [r2, #0]
 8009040:	2220      	movs	r2, #32
 8009042:	f8c0 2084 	str.w	r2, [r0, #132]	; 0x84
 8009046:	f880 3080 	strb.w	r3, [r0, #128]	; 0x80
 800904a:	4618      	mov	r0, r3
 800904c:	4770      	bx	lr
 800904e:	2002      	movs	r0, #2
 8009050:	4770      	bx	lr

08009052 <HAL_UARTEx_SetTxFifoThreshold>:
 8009052:	b538      	push	{r3, r4, r5, lr}
 8009054:	f890 3080 	ldrb.w	r3, [r0, #128]	; 0x80
 8009058:	2b01      	cmp	r3, #1
 800905a:	4604      	mov	r4, r0
 800905c:	d01b      	beq.n	8009096 <HAL_UARTEx_SetTxFifoThreshold+0x44>
 800905e:	2301      	movs	r3, #1
 8009060:	f880 3080 	strb.w	r3, [r0, #128]	; 0x80
 8009064:	2324      	movs	r3, #36	; 0x24
 8009066:	f8c0 3084 	str.w	r3, [r0, #132]	; 0x84
 800906a:	6803      	ldr	r3, [r0, #0]
 800906c:	681d      	ldr	r5, [r3, #0]
 800906e:	681a      	ldr	r2, [r3, #0]
 8009070:	f022 0201 	bic.w	r2, r2, #1
 8009074:	601a      	str	r2, [r3, #0]
 8009076:	689a      	ldr	r2, [r3, #8]
 8009078:	f022 4260 	bic.w	r2, r2, #3758096384	; 0xe0000000
 800907c:	4311      	orrs	r1, r2
 800907e:	6099      	str	r1, [r3, #8]
 8009080:	f7ff ffaa 	bl	8008fd8 <UARTEx_SetNbDataToProcess>
 8009084:	6803      	ldr	r3, [r0, #0]
 8009086:	601d      	str	r5, [r3, #0]
 8009088:	2320      	movs	r3, #32
 800908a:	f8c0 3084 	str.w	r3, [r0, #132]	; 0x84
 800908e:	2000      	movs	r0, #0
 8009090:	f884 0080 	strb.w	r0, [r4, #128]	; 0x80
 8009094:	bd38      	pop	{r3, r4, r5, pc}
 8009096:	2002      	movs	r0, #2
 8009098:	e7fc      	b.n	8009094 <HAL_UARTEx_SetTxFifoThreshold+0x42>

0800909a <HAL_UARTEx_SetRxFifoThreshold>:
 800909a:	b538      	push	{r3, r4, r5, lr}
 800909c:	f890 3080 	ldrb.w	r3, [r0, #128]	; 0x80
 80090a0:	2b01      	cmp	r3, #1
 80090a2:	4604      	mov	r4, r0
 80090a4:	d01b      	beq.n	80090de <HAL_UARTEx_SetRxFifoThreshold+0x44>
 80090a6:	2301      	movs	r3, #1
 80090a8:	f880 3080 	strb.w	r3, [r0, #128]	; 0x80
 80090ac:	2324      	movs	r3, #36	; 0x24
 80090ae:	f8c0 3084 	str.w	r3, [r0, #132]	; 0x84
 80090b2:	6803      	ldr	r3, [r0, #0]
 80090b4:	681d      	ldr	r5, [r3, #0]
 80090b6:	681a      	ldr	r2, [r3, #0]
 80090b8:	f022 0201 	bic.w	r2, r2, #1
 80090bc:	601a      	str	r2, [r3, #0]
 80090be:	689a      	ldr	r2, [r3, #8]
 80090c0:	f022 6260 	bic.w	r2, r2, #234881024	; 0xe000000
 80090c4:	4311      	orrs	r1, r2
 80090c6:	6099      	str	r1, [r3, #8]
 80090c8:	f7ff ff86 	bl	8008fd8 <UARTEx_SetNbDataToProcess>
 80090cc:	6803      	ldr	r3, [r0, #0]
 80090ce:	601d      	str	r5, [r3, #0]
 80090d0:	2320      	movs	r3, #32
 80090d2:	f8c0 3084 	str.w	r3, [r0, #132]	; 0x84
 80090d6:	2000      	movs	r0, #0
 80090d8:	f884 0080 	strb.w	r0, [r4, #128]	; 0x80
 80090dc:	bd38      	pop	{r3, r4, r5, pc}
 80090de:	2002      	movs	r0, #2
 80090e0:	e7fc      	b.n	80090dc <HAL_UARTEx_SetRxFifoThreshold+0x42>

080090e2 <RadioCheckRfFrequency>:
 80090e2:	2001      	movs	r0, #1
 80090e4:	4770      	bx	lr
	...

080090e8 <RadioOnTxTimeoutIrq>:
 80090e8:	4b03      	ldr	r3, [pc, #12]	; (80090f8 <RadioOnTxTimeoutIrq+0x10>)
 80090ea:	681b      	ldr	r3, [r3, #0]
 80090ec:	b113      	cbz	r3, 80090f4 <RadioOnTxTimeoutIrq+0xc>
 80090ee:	685b      	ldr	r3, [r3, #4]
 80090f0:	b103      	cbz	r3, 80090f4 <RadioOnTxTimeoutIrq+0xc>
 80090f2:	4718      	bx	r3
 80090f4:	4770      	bx	lr
 80090f6:	bf00      	nop
 80090f8:	20000cfc 	.word	0x20000cfc

080090fc <RadioOnRxTimeoutIrq>:
 80090fc:	4b03      	ldr	r3, [pc, #12]	; (800910c <RadioOnRxTimeoutIrq+0x10>)
 80090fe:	681b      	ldr	r3, [r3, #0]
 8009100:	b113      	cbz	r3, 8009108 <RadioOnRxTimeoutIrq+0xc>
 8009102:	68db      	ldr	r3, [r3, #12]
 8009104:	b103      	cbz	r3, 8009108 <RadioOnRxTimeoutIrq+0xc>
 8009106:	4718      	bx	r3
 8009108:	4770      	bx	lr
 800910a:	bf00      	nop
 800910c:	20000cfc 	.word	0x20000cfc

08009110 <RadioRead>:
 8009110:	f001 bb4a 	b.w	800a7a8 <SUBGRF_ReadRegister>

08009114 <RadioWrite>:
 8009114:	f001 ba78 	b.w	800a608 <SUBGRF_WriteRegister>

08009118 <RadioTxCw>:
 8009118:	b508      	push	{r3, lr}
 800911a:	f001 fdc6 	bl	800acaa <SUBGRF_SetRfTxPower>
 800911e:	2101      	movs	r1, #1
 8009120:	f001 fdad 	bl	800ac7e <SUBGRF_SetSwitch>
 8009124:	e8bd 4008 	ldmia.w	sp!, {r3, lr}
 8009128:	f001 b93c 	b.w	800a3a4 <SUBGRF_SetTxContinuousWave>

0800912c <RadioSetRxDutyCycle>:
 800912c:	b570      	push	{r4, r5, r6, lr}
 800912e:	4e0c      	ldr	r6, [pc, #48]	; (8009160 <RadioSetRxDutyCycle+0x34>)
 8009130:	eb01 0340 	add.w	r3, r1, r0, lsl #1
 8009134:	460d      	mov	r5, r1
 8009136:	65b3      	str	r3, [r6, #88]	; 0x58
 8009138:	f64f 71ff 	movw	r1, #65535	; 0xffff
 800913c:	2300      	movs	r3, #0
 800913e:	4604      	mov	r4, r0
 8009140:	461a      	mov	r2, r3
 8009142:	4608      	mov	r0, r1
 8009144:	f001 f9b2 	bl	800a4ac <SUBGRF_SetDioIrqParams>
 8009148:	f896 0056 	ldrb.w	r0, [r6, #86]	; 0x56
 800914c:	2100      	movs	r1, #0
 800914e:	f001 fd96 	bl	800ac7e <SUBGRF_SetSwitch>
 8009152:	4629      	mov	r1, r5
 8009154:	4620      	mov	r0, r4
 8009156:	e8bd 4070 	ldmia.w	sp!, {r4, r5, r6, lr}
 800915a:	f001 b8f9 	b.w	800a350 <SUBGRF_SetRxDutyCycle>
 800915e:	bf00      	nop
 8009160:	20000d18 	.word	0x20000d18

08009164 <RadioRxBoosted>:
 8009164:	b510      	push	{r4, lr}
 8009166:	4604      	mov	r4, r0
 8009168:	f001 fe56 	bl	800ae18 <RFW_Is_Init>
 800916c:	2801      	cmp	r0, #1
 800916e:	d118      	bne.n	80091a2 <RadioRxBoosted+0x3e>
 8009170:	f001 fe5a 	bl	800ae28 <RFW_ReceiveInit>
 8009174:	b134      	cbz	r4, 8009184 <RadioRxBoosted+0x20>
 8009176:	4810      	ldr	r0, [pc, #64]	; (80091b8 <RadioRxBoosted+0x54>)
 8009178:	4621      	mov	r1, r4
 800917a:	f002 fcf9 	bl	800bb70 <UTIL_TIMER_SetPeriod>
 800917e:	480e      	ldr	r0, [pc, #56]	; (80091b8 <RadioRxBoosted+0x54>)
 8009180:	f002 fcbc 	bl	800bafc <UTIL_TIMER_Start>
 8009184:	4c0d      	ldr	r4, [pc, #52]	; (80091bc <RadioRxBoosted+0x58>)
 8009186:	2100      	movs	r1, #0
 8009188:	f894 0056 	ldrb.w	r0, [r4, #86]	; 0x56
 800918c:	65a1      	str	r1, [r4, #88]	; 0x58
 800918e:	f001 fd76 	bl	800ac7e <SUBGRF_SetSwitch>
 8009192:	7863      	ldrb	r3, [r4, #1]
 8009194:	b16b      	cbz	r3, 80091b2 <RadioRxBoosted+0x4e>
 8009196:	f06f 407f 	mvn.w	r0, #4278190080	; 0xff000000
 800919a:	e8bd 4010 	ldmia.w	sp!, {r4, lr}
 800919e:	f001 ba43 	b.w	800a628 <SUBGRF_SetRxBoosted>
 80091a2:	2300      	movs	r3, #0
 80091a4:	f240 2162 	movw	r1, #610	; 0x262
 80091a8:	461a      	mov	r2, r3
 80091aa:	4608      	mov	r0, r1
 80091ac:	f001 f97e 	bl	800a4ac <SUBGRF_SetDioIrqParams>
 80091b0:	e7e0      	b.n	8009174 <RadioRxBoosted+0x10>
 80091b2:	68a0      	ldr	r0, [r4, #8]
 80091b4:	0180      	lsls	r0, r0, #6
 80091b6:	e7f0      	b.n	800919a <RadioRxBoosted+0x36>
 80091b8:	20000d00 	.word	0x20000d00
 80091bc:	20000d18 	.word	0x20000d18

080091c0 <RadioStandby>:
 80091c0:	2000      	movs	r0, #0
 80091c2:	f001 b883 	b.w	800a2cc <SUBGRF_SetStandby>
	...

080091c8 <RadioGetStatus>:
 80091c8:	b508      	push	{r3, lr}
 80091ca:	f001 f879 	bl	800a2c0 <SUBGRF_GetOperatingMode>
 80091ce:	3804      	subs	r0, #4
 80091d0:	b2c0      	uxtb	r0, r0
 80091d2:	2803      	cmp	r0, #3
 80091d4:	bf96      	itet	ls
 80091d6:	4b02      	ldrls	r3, [pc, #8]	; (80091e0 <RadioGetStatus+0x18>)
 80091d8:	2000      	movhi	r0, #0
 80091da:	5c18      	ldrbls	r0, [r3, r0]
 80091dc:	bd08      	pop	{r3, pc}
 80091de:	bf00      	nop
 80091e0:	08010e34 	.word	0x08010e34

080091e4 <RadioGetWakeupTime>:
 80091e4:	b508      	push	{r3, lr}
 80091e6:	f001 fd75 	bl	800acd4 <SUBGRF_GetRadioWakeUpTime>
 80091ea:	3003      	adds	r0, #3
 80091ec:	bd08      	pop	{r3, pc}

080091ee <RadioReadRegisters>:
 80091ee:	f001 bcbb 	b.w	800ab68 <SUBGRF_ReadRegisters>

080091f2 <RadioWriteRegisters>:
 80091f2:	f001 bc05 	b.w	800aa00 <SUBGRF_WriteRegisters>

080091f6 <RadioRssi>:
 80091f6:	b508      	push	{r3, lr}
 80091f8:	f001 f9bd 	bl	800a576 <SUBGRF_GetRssiInst>
 80091fc:	b200      	sxth	r0, r0
 80091fe:	bd08      	pop	{r3, pc}

08009200 <RadioSetTxContinuousWave>:
 8009200:	b538      	push	{r3, r4, r5, lr}
 8009202:	460d      	mov	r5, r1
 8009204:	4614      	mov	r4, r2
 8009206:	f001 f983 	bl	800a510 <SUBGRF_SetRfFrequency>
 800920a:	4628      	mov	r0, r5
 800920c:	f001 fd4d 	bl	800acaa <SUBGRF_SetRfTxPower>
 8009210:	4d08      	ldr	r5, [pc, #32]	; (8009234 <RadioSetTxContinuousWave+0x34>)
 8009212:	2101      	movs	r1, #1
 8009214:	f001 fd33 	bl	800ac7e <SUBGRF_SetSwitch>
 8009218:	f001 f8c4 	bl	800a3a4 <SUBGRF_SetTxContinuousWave>
 800921c:	f44f 717a 	mov.w	r1, #1000	; 0x3e8
 8009220:	4361      	muls	r1, r4
 8009222:	4628      	mov	r0, r5
 8009224:	f002 fca4 	bl	800bb70 <UTIL_TIMER_SetPeriod>
 8009228:	4628      	mov	r0, r5
 800922a:	e8bd 4038 	ldmia.w	sp!, {r3, r4, r5, lr}
 800922e:	f002 bc65 	b.w	800bafc <UTIL_TIMER_Start>
 8009232:	bf00      	nop
 8009234:	20000d74 	.word	0x20000d74

08009238 <RadioSetChannel>:
 8009238:	f001 b96a 	b.w	800a510 <SUBGRF_SetRfFrequency>

0800923c <RadioStartCad>:
 800923c:	b508      	push	{r3, lr}
 800923e:	4b08      	ldr	r3, [pc, #32]	; (8009260 <RadioStartCad+0x24>)
 8009240:	2100      	movs	r1, #0
 8009242:	f893 0056 	ldrb.w	r0, [r3, #86]	; 0x56
 8009246:	f001 fd1a 	bl	800ac7e <SUBGRF_SetSwitch>
 800924a:	2300      	movs	r3, #0
 800924c:	f44f 71c0 	mov.w	r1, #384	; 0x180
 8009250:	461a      	mov	r2, r3
 8009252:	4608      	mov	r0, r1
 8009254:	f001 f92a 	bl	800a4ac <SUBGRF_SetDioIrqParams>
 8009258:	e8bd 4008 	ldmia.w	sp!, {r3, lr}
 800925c:	f001 b896 	b.w	800a38c <SUBGRF_SetCad>
 8009260:	20000d18 	.word	0x20000d18

08009264 <RadioRx>:
 8009264:	b510      	push	{r4, lr}
 8009266:	4604      	mov	r4, r0
 8009268:	f001 fdd6 	bl	800ae18 <RFW_Is_Init>
 800926c:	2801      	cmp	r0, #1
 800926e:	d118      	bne.n	80092a2 <RadioRx+0x3e>
 8009270:	f001 fdda 	bl	800ae28 <RFW_ReceiveInit>
 8009274:	b134      	cbz	r4, 8009284 <RadioRx+0x20>
 8009276:	4810      	ldr	r0, [pc, #64]	; (80092b8 <RadioRx+0x54>)
 8009278:	4621      	mov	r1, r4
 800927a:	f002 fc79 	bl	800bb70 <UTIL_TIMER_SetPeriod>
 800927e:	480e      	ldr	r0, [pc, #56]	; (80092b8 <RadioRx+0x54>)
 8009280:	f002 fc3c 	bl	800bafc <UTIL_TIMER_Start>
 8009284:	4c0d      	ldr	r4, [pc, #52]	; (80092bc <RadioRx+0x58>)
 8009286:	2100      	movs	r1, #0
 8009288:	f894 0056 	ldrb.w	r0, [r4, #86]	; 0x56
 800928c:	65a1      	str	r1, [r4, #88]	; 0x58
 800928e:	f001 fcf6 	bl	800ac7e <SUBGRF_SetSwitch>
 8009292:	7863      	ldrb	r3, [r4, #1]
 8009294:	b16b      	cbz	r3, 80092b2 <RadioRx+0x4e>
 8009296:	f06f 407f 	mvn.w	r0, #4278190080	; 0xff000000
 800929a:	e8bd 4010 	ldmia.w	sp!, {r4, lr}
 800929e:	f001 b841 	b.w	800a324 <SUBGRF_SetRx>
 80092a2:	2300      	movs	r3, #0
 80092a4:	f240 2162 	movw	r1, #610	; 0x262
 80092a8:	461a      	mov	r2, r3
 80092aa:	4608      	mov	r0, r1
 80092ac:	f001 f8fe 	bl	800a4ac <SUBGRF_SetDioIrqParams>
 80092b0:	e7e0      	b.n	8009274 <RadioRx+0x10>
 80092b2:	68a0      	ldr	r0, [r4, #8]
 80092b4:	0180      	lsls	r0, r0, #6
 80092b6:	e7f0      	b.n	800929a <RadioRx+0x36>
 80092b8:	20000d00 	.word	0x20000d00
 80092bc:	20000d18 	.word	0x20000d18

080092c0 <RadioSleep>:
 80092c0:	b508      	push	{r3, lr}
 80092c2:	f04f 0004 	mov.w	r0, #4
 80092c6:	f001 fac9 	bl	800a85c <SUBGRF_SetSleep>
 80092ca:	e8bd 4008 	ldmia.w	sp!, {r3, lr}
 80092ce:	2002      	movs	r0, #2
 80092d0:	f7fc bc3a 	b.w	8005b48 <HAL_Delay>

080092d4 <RadioRandom>:
 80092d4:	b508      	push	{r3, lr}
 80092d6:	2300      	movs	r3, #0
 80092d8:	461a      	mov	r2, r3
 80092da:	4619      	mov	r1, r3
 80092dc:	4618      	mov	r0, r3
 80092de:	f001 f8e5 	bl	800a4ac <SUBGRF_SetDioIrqParams>
 80092e2:	e8bd 4008 	ldmia.w	sp!, {r3, lr}
 80092e6:	f001 bc4f 	b.w	800ab88 <SUBGRF_GetRandom>
	...

080092ec <RadioInit>:
 80092ec:	4b1d      	ldr	r3, [pc, #116]	; (8009364 <RadioInit+0x78>)
 80092ee:	b573      	push	{r0, r1, r4, r5, r6, lr}
 80092f0:	4d1d      	ldr	r5, [pc, #116]	; (8009368 <RadioInit+0x7c>)
 80092f2:	6018      	str	r0, [r3, #0]
 80092f4:	2400      	movs	r4, #0
 80092f6:	481d      	ldr	r0, [pc, #116]	; (800936c <RadioInit+0x80>)
 80092f8:	706c      	strb	r4, [r5, #1]
 80092fa:	e9c5 4401 	strd	r4, r4, [r5, #4]
 80092fe:	65ac      	str	r4, [r5, #88]	; 0x58
 8009300:	f001 fa76 	bl	800a7f0 <SUBGRF_Init>
 8009304:	81ac      	strh	r4, [r5, #12]
 8009306:	f001 f863 	bl	800a3d0 <SUBGRF_SetRegulatorMode>
 800930a:	4621      	mov	r1, r4
 800930c:	4620      	mov	r0, r4
 800930e:	f001 f925 	bl	800a55c <SUBGRF_SetBufferBaseAddress>
 8009312:	4621      	mov	r1, r4
 8009314:	2204      	movs	r2, #4
 8009316:	2001      	movs	r0, #1
 8009318:	f001 fad6 	bl	800a8c8 <SUBGRF_SetTxParams>
 800931c:	4e14      	ldr	r6, [pc, #80]	; (8009370 <RadioInit+0x84>)
 800931e:	4d15      	ldr	r5, [pc, #84]	; (8009374 <RadioInit+0x88>)
 8009320:	f64f 71ff 	movw	r1, #65535	; 0xffff
 8009324:	4623      	mov	r3, r4
 8009326:	4622      	mov	r2, r4
 8009328:	4608      	mov	r0, r1
 800932a:	f001 f8bf 	bl	800a4ac <SUBGRF_SetDioIrqParams>
 800932e:	f7ff ffc7 	bl	80092c0 <RadioSleep>
 8009332:	4622      	mov	r2, r4
 8009334:	4b10      	ldr	r3, [pc, #64]	; (8009378 <RadioInit+0x8c>)
 8009336:	9400      	str	r4, [sp, #0]
 8009338:	f04f 31ff 	mov.w	r1, #4294967295	; 0xffffffff
 800933c:	4630      	mov	r0, r6
 800933e:	f002 fb2f 	bl	800b9a0 <UTIL_TIMER_Create>
 8009342:	4b0e      	ldr	r3, [pc, #56]	; (800937c <RadioInit+0x90>)
 8009344:	9400      	str	r4, [sp, #0]
 8009346:	4622      	mov	r2, r4
 8009348:	f04f 31ff 	mov.w	r1, #4294967295	; 0xffffffff
 800934c:	4628      	mov	r0, r5
 800934e:	f002 fb27 	bl	800b9a0 <UTIL_TIMER_Create>
 8009352:	4630      	mov	r0, r6
 8009354:	f002 fb82 	bl	800ba5c <UTIL_TIMER_Stop>
 8009358:	4628      	mov	r0, r5
 800935a:	b002      	add	sp, #8
 800935c:	e8bd 4070 	ldmia.w	sp!, {r4, r5, r6, lr}
 8009360:	f002 bb7c 	b.w	800ba5c <UTIL_TIMER_Stop>
 8009364:	20000cfc 	.word	0x20000cfc
 8009368:	20000d18 	.word	0x20000d18
 800936c:	0800a271 	.word	0x0800a271
 8009370:	20000d74 	.word	0x20000d74
 8009374:	20000d00 	.word	0x20000d00
 8009378:	080090e9 	.word	0x080090e9
 800937c:	080090fd 	.word	0x080090fd

08009380 <RadioSetMaxPayloadLength>:
 8009380:	2801      	cmp	r0, #1
 8009382:	4808      	ldr	r0, [pc, #32]	; (80093a4 <RadioSetMaxPayloadLength+0x24>)
 8009384:	d105      	bne.n	8009392 <RadioSetMaxPayloadLength+0x12>
 8009386:	4b08      	ldr	r3, [pc, #32]	; (80093a8 <RadioSetMaxPayloadLength+0x28>)
 8009388:	77c1      	strb	r1, [r0, #31]
 800938a:	7019      	strb	r1, [r3, #0]
 800938c:	300e      	adds	r0, #14
 800938e:	f001 bb79 	b.w	800aa84 <SUBGRF_SetPacketParams>
 8009392:	7d43      	ldrb	r3, [r0, #21]
 8009394:	2b01      	cmp	r3, #1
 8009396:	d103      	bne.n	80093a0 <RadioSetMaxPayloadLength+0x20>
 8009398:	4b03      	ldr	r3, [pc, #12]	; (80093a8 <RadioSetMaxPayloadLength+0x28>)
 800939a:	7581      	strb	r1, [r0, #22]
 800939c:	7019      	strb	r1, [r3, #0]
 800939e:	e7f5      	b.n	800938c <RadioSetMaxPayloadLength+0xc>
 80093a0:	4770      	bx	lr
 80093a2:	bf00      	nop
 80093a4:	20000d18 	.word	0x20000d18
 80093a8:	2000006c 	.word	0x2000006c

080093ac <RadioSetPublicNetwork>:
 80093ac:	4b0d      	ldr	r3, [pc, #52]	; (80093e4 <RadioSetPublicNetwork+0x38>)
 80093ae:	b510      	push	{r4, lr}
 80093b0:	4604      	mov	r4, r0
 80093b2:	7318      	strb	r0, [r3, #12]
 80093b4:	7358      	strb	r0, [r3, #13]
 80093b6:	2001      	movs	r0, #1
 80093b8:	f000 f816 	bl	80093e8 <RadioSetModem>
 80093bc:	b15c      	cbz	r4, 80093d6 <RadioSetPublicNetwork+0x2a>
 80093be:	2134      	movs	r1, #52	; 0x34
 80093c0:	f44f 60e8 	mov.w	r0, #1856	; 0x740
 80093c4:	f001 f920 	bl	800a608 <SUBGRF_WriteRegister>
 80093c8:	2144      	movs	r1, #68	; 0x44
 80093ca:	e8bd 4010 	ldmia.w	sp!, {r4, lr}
 80093ce:	f240 7041 	movw	r0, #1857	; 0x741
 80093d2:	f001 b919 	b.w	800a608 <SUBGRF_WriteRegister>
 80093d6:	2114      	movs	r1, #20
 80093d8:	f44f 60e8 	mov.w	r0, #1856	; 0x740
 80093dc:	f001 f914 	bl	800a608 <SUBGRF_WriteRegister>
 80093e0:	2124      	movs	r1, #36	; 0x24
 80093e2:	e7f2      	b.n	80093ca <RadioSetPublicNetwork+0x1e>
 80093e4:	20000d18 	.word	0x20000d18

080093e8 <RadioSetModem>:
 80093e8:	b538      	push	{r3, r4, r5, lr}
 80093ea:	4c11      	ldr	r4, [pc, #68]	; (8009430 <RadioSetModem+0x48>)
 80093ec:	4605      	mov	r5, r0
 80093ee:	7020      	strb	r0, [r4, #0]
 80093f0:	f001 fd1f 	bl	800ae32 <RFW_SetRadioModem>
 80093f4:	2d05      	cmp	r5, #5
 80093f6:	d804      	bhi.n	8009402 <RadioSetModem+0x1a>
 80093f8:	e8df f005 	tbb	[pc, r5]
 80093fc:	17030b09 	.word	0x17030b09
 8009400:	0917      	.short	0x0917
 8009402:	2003      	movs	r0, #3
 8009404:	f001 f944 	bl	800a690 <SUBGRF_SetPacketType>
 8009408:	2300      	movs	r3, #0
 800940a:	7363      	strb	r3, [r4, #13]
 800940c:	bd38      	pop	{r3, r4, r5, pc}
 800940e:	2000      	movs	r0, #0
 8009410:	e7f8      	b.n	8009404 <RadioSetModem+0x1c>
 8009412:	2001      	movs	r0, #1
 8009414:	f001 f93c 	bl	800a690 <SUBGRF_SetPacketType>
 8009418:	7b20      	ldrb	r0, [r4, #12]
 800941a:	7b63      	ldrb	r3, [r4, #13]
 800941c:	4283      	cmp	r3, r0
 800941e:	d0f5      	beq.n	800940c <RadioSetModem+0x24>
 8009420:	7360      	strb	r0, [r4, #13]
 8009422:	e8bd 4038 	ldmia.w	sp!, {r3, r4, r5, lr}
 8009426:	f7ff bfc1 	b.w	80093ac <RadioSetPublicNetwork>
 800942a:	2002      	movs	r0, #2
 800942c:	e7ea      	b.n	8009404 <RadioSetModem+0x1c>
 800942e:	bf00      	nop
 8009430:	20000d18 	.word	0x20000d18

08009434 <RadioSetTxGenericConfig>:
 8009434:	e92d 43f0 	stmdb	sp!, {r4, r5, r6, r7, r8, r9, lr}
 8009438:	461e      	mov	r6, r3
 800943a:	b087      	sub	sp, #28
 800943c:	2300      	movs	r3, #0
 800943e:	4605      	mov	r5, r0
 8009440:	e9cd 3301 	strd	r3, r3, [sp, #4]
 8009444:	460c      	mov	r4, r1
 8009446:	4617      	mov	r7, r2
 8009448:	f001 fce5 	bl	800ae16 <RFW_DeInit>
 800944c:	2d03      	cmp	r5, #3
 800944e:	d861      	bhi.n	8009514 <RadioSetTxGenericConfig+0xe0>
 8009450:	e8df f015 	tbh	[pc, r5, lsl #1]
 8009454:	00c3007b 	.word	0x00c3007b
 8009458:	0004010e 	.word	0x0004010e
 800945c:	7ca2      	ldrb	r2, [r4, #18]
 800945e:	2a08      	cmp	r2, #8
 8009460:	d904      	bls.n	800946c <RadioSetTxGenericConfig+0x38>
 8009462:	f04f 30ff 	mov.w	r0, #4294967295	; 0xffffffff
 8009466:	b007      	add	sp, #28
 8009468:	e8bd 83f0 	ldmia.w	sp!, {r4, r5, r6, r7, r8, r9, pc}
 800946c:	68a1      	ldr	r1, [r4, #8]
 800946e:	a801      	add	r0, sp, #4
 8009470:	f002 fa80 	bl	800b974 <UTIL_MEM_cpy_8>
 8009474:	6821      	ldr	r1, [r4, #0]
 8009476:	2900      	cmp	r1, #0
 8009478:	d0f3      	beq.n	8009462 <RadioSetTxGenericConfig+0x2e>
 800947a:	f242 7210 	movw	r2, #10000	; 0x2710
 800947e:	4291      	cmp	r1, r2
 8009480:	7ce3      	ldrb	r3, [r4, #19]
 8009482:	4d86      	ldr	r5, [pc, #536]	; (800969c <RadioSetTxGenericConfig+0x268>)
 8009484:	d851      	bhi.n	800952a <RadioSetTxGenericConfig+0xf6>
 8009486:	2203      	movs	r2, #3
 8009488:	73aa      	strb	r2, [r5, #14]
 800948a:	f885 2038 	strb.w	r2, [r5, #56]	; 0x38
 800948e:	63e9      	str	r1, [r5, #60]	; 0x3c
 8009490:	f885 3044 	strb.w	r3, [r5, #68]	; 0x44
 8009494:	f04f 0802 	mov.w	r8, #2
 8009498:	6863      	ldr	r3, [r4, #4]
 800949a:	7da1      	ldrb	r1, [r4, #22]
 800949c:	00db      	lsls	r3, r3, #3
 800949e:	822b      	strh	r3, [r5, #16]
 80094a0:	2304      	movs	r3, #4
 80094a2:	74ab      	strb	r3, [r5, #18]
 80094a4:	7ca3      	ldrb	r3, [r4, #18]
 80094a6:	00db      	lsls	r3, r3, #3
 80094a8:	74eb      	strb	r3, [r5, #19]
 80094aa:	2902      	cmp	r1, #2
 80094ac:	f04f 0300 	mov.w	r3, #0
 80094b0:	752b      	strb	r3, [r5, #20]
 80094b2:	7d63      	ldrb	r3, [r4, #21]
 80094b4:	d002      	beq.n	80094bc <RadioSetTxGenericConfig+0x88>
 80094b6:	7d22      	ldrb	r2, [r4, #20]
 80094b8:	2a02      	cmp	r2, #2
 80094ba:	d142      	bne.n	8009542 <RadioSetTxGenericConfig+0x10e>
 80094bc:	f103 020f 	add.w	r2, r3, #15
 80094c0:	b2d2      	uxtb	r2, r2
 80094c2:	2a01      	cmp	r2, #1
 80094c4:	d901      	bls.n	80094ca <RadioSetTxGenericConfig+0x96>
 80094c6:	2b01      	cmp	r3, #1
 80094c8:	d1cb      	bne.n	8009462 <RadioSetTxGenericConfig+0x2e>
 80094ca:	4b75      	ldr	r3, [pc, #468]	; (80096a0 <RadioSetTxGenericConfig+0x26c>)
 80094cc:	4a75      	ldr	r2, [pc, #468]	; (80096a4 <RadioSetTxGenericConfig+0x270>)
 80094ce:	6819      	ldr	r1, [r3, #0]
 80094d0:	9403      	str	r4, [sp, #12]
 80094d2:	f04f 0901 	mov.w	r9, #1
 80094d6:	a803      	add	r0, sp, #12
 80094d8:	f88d 9014 	strb.w	r9, [sp, #20]
 80094dc:	f001 fc98 	bl	800ae10 <RFW_Init>
 80094e0:	2800      	cmp	r0, #0
 80094e2:	d1be      	bne.n	8009462 <RadioSetTxGenericConfig+0x2e>
 80094e4:	7628      	strb	r0, [r5, #24]
 80094e6:	f885 9017 	strb.w	r9, [r5, #23]
 80094ea:	7568      	strb	r0, [r5, #21]
 80094ec:	f7ff fe68 	bl	80091c0 <RadioStandby>
 80094f0:	4640      	mov	r0, r8
 80094f2:	f7ff ff79 	bl	80093e8 <RadioSetModem>
 80094f6:	486c      	ldr	r0, [pc, #432]	; (80096a8 <RadioSetTxGenericConfig+0x274>)
 80094f8:	f001 f8e0 	bl	800a6bc <SUBGRF_SetModulationParams>
 80094fc:	486b      	ldr	r0, [pc, #428]	; (80096ac <RadioSetTxGenericConfig+0x278>)
 80094fe:	f001 fac1 	bl	800aa84 <SUBGRF_SetPacketParams>
 8009502:	a801      	add	r0, sp, #4
 8009504:	f001 fa8c 	bl	800aa20 <SUBGRF_SetSyncWord>
 8009508:	8a20      	ldrh	r0, [r4, #16]
 800950a:	f001 f9c1 	bl	800a890 <SUBGRF_SetWhiteningSeed>
 800950e:	89a0      	ldrh	r0, [r4, #12]
 8009510:	f001 faa4 	bl	800aa5c <SUBGRF_SetCrcPolynomial>
 8009514:	4638      	mov	r0, r7
 8009516:	f001 fbc8 	bl	800acaa <SUBGRF_SetRfTxPower>
 800951a:	4c60      	ldr	r4, [pc, #384]	; (800969c <RadioSetTxGenericConfig+0x268>)
 800951c:	f884 0056 	strb.w	r0, [r4, #86]	; 0x56
 8009520:	f001 fc7e 	bl	800ae20 <RFW_SetAntSwitch>
 8009524:	6066      	str	r6, [r4, #4]
 8009526:	2000      	movs	r0, #0
 8009528:	e79d      	b.n	8009466 <RadioSetTxGenericConfig+0x32>
 800952a:	f04f 0800 	mov.w	r8, #0
 800952e:	63e9      	str	r1, [r5, #60]	; 0x3c
 8009530:	0889      	lsrs	r1, r1, #2
 8009532:	f885 800e 	strb.w	r8, [r5, #14]
 8009536:	f885 8038 	strb.w	r8, [r5, #56]	; 0x38
 800953a:	f885 3044 	strb.w	r3, [r5, #68]	; 0x44
 800953e:	6429      	str	r1, [r5, #64]	; 0x40
 8009540:	e7aa      	b.n	8009498 <RadioSetTxGenericConfig+0x64>
 8009542:	75eb      	strb	r3, [r5, #23]
 8009544:	7629      	strb	r1, [r5, #24]
 8009546:	756a      	strb	r2, [r5, #21]
 8009548:	e7d0      	b.n	80094ec <RadioSetTxGenericConfig+0xb8>
 800954a:	6823      	ldr	r3, [r4, #0]
 800954c:	2b00      	cmp	r3, #0
 800954e:	d088      	beq.n	8009462 <RadioSetTxGenericConfig+0x2e>
 8009550:	7ca2      	ldrb	r2, [r4, #18]
 8009552:	2a08      	cmp	r2, #8
 8009554:	d885      	bhi.n	8009462 <RadioSetTxGenericConfig+0x2e>
 8009556:	4d51      	ldr	r5, [pc, #324]	; (800969c <RadioSetTxGenericConfig+0x268>)
 8009558:	68a1      	ldr	r1, [r4, #8]
 800955a:	a801      	add	r0, sp, #4
 800955c:	f002 fa0a 	bl	800b974 <UTIL_MEM_cpy_8>
 8009560:	2300      	movs	r3, #0
 8009562:	f885 3038 	strb.w	r3, [r5, #56]	; 0x38
 8009566:	6822      	ldr	r2, [r4, #0]
 8009568:	63ea      	str	r2, [r5, #60]	; 0x3c
 800956a:	7ce2      	ldrb	r2, [r4, #19]
 800956c:	f885 2044 	strb.w	r2, [r5, #68]	; 0x44
 8009570:	69a2      	ldr	r2, [r4, #24]
 8009572:	73ab      	strb	r3, [r5, #14]
 8009574:	642a      	str	r2, [r5, #64]	; 0x40
 8009576:	6862      	ldr	r2, [r4, #4]
 8009578:	7da1      	ldrb	r1, [r4, #22]
 800957a:	00d2      	lsls	r2, r2, #3
 800957c:	822a      	strh	r2, [r5, #16]
 800957e:	2204      	movs	r2, #4
 8009580:	74aa      	strb	r2, [r5, #18]
 8009582:	7ca2      	ldrb	r2, [r4, #18]
 8009584:	752b      	strb	r3, [r5, #20]
 8009586:	00d2      	lsls	r2, r2, #3
 8009588:	2902      	cmp	r1, #2
 800958a:	7d63      	ldrb	r3, [r4, #21]
 800958c:	74ea      	strb	r2, [r5, #19]
 800958e:	d002      	beq.n	8009596 <RadioSetTxGenericConfig+0x162>
 8009590:	7d22      	ldrb	r2, [r4, #20]
 8009592:	2a02      	cmp	r2, #2
 8009594:	d11d      	bne.n	80095d2 <RadioSetTxGenericConfig+0x19e>
 8009596:	f103 020f 	add.w	r2, r3, #15
 800959a:	b2d2      	uxtb	r2, r2
 800959c:	2a01      	cmp	r2, #1
 800959e:	d902      	bls.n	80095a6 <RadioSetTxGenericConfig+0x172>
 80095a0:	2b01      	cmp	r3, #1
 80095a2:	f47f af5e 	bne.w	8009462 <RadioSetTxGenericConfig+0x2e>
 80095a6:	4b3e      	ldr	r3, [pc, #248]	; (80096a0 <RadioSetTxGenericConfig+0x26c>)
 80095a8:	4a3e      	ldr	r2, [pc, #248]	; (80096a4 <RadioSetTxGenericConfig+0x270>)
 80095aa:	6819      	ldr	r1, [r3, #0]
 80095ac:	9403      	str	r4, [sp, #12]
 80095ae:	f04f 0801 	mov.w	r8, #1
 80095b2:	a803      	add	r0, sp, #12
 80095b4:	f88d 8014 	strb.w	r8, [sp, #20]
 80095b8:	f001 fc2a 	bl	800ae10 <RFW_Init>
 80095bc:	2800      	cmp	r0, #0
 80095be:	f47f af50 	bne.w	8009462 <RadioSetTxGenericConfig+0x2e>
 80095c2:	7628      	strb	r0, [r5, #24]
 80095c4:	f885 8017 	strb.w	r8, [r5, #23]
 80095c8:	7568      	strb	r0, [r5, #21]
 80095ca:	f7ff fdf9 	bl	80091c0 <RadioStandby>
 80095ce:	2000      	movs	r0, #0
 80095d0:	e78f      	b.n	80094f2 <RadioSetTxGenericConfig+0xbe>
 80095d2:	75eb      	strb	r3, [r5, #23]
 80095d4:	7629      	strb	r1, [r5, #24]
 80095d6:	756a      	strb	r2, [r5, #21]
 80095d8:	e7f7      	b.n	80095ca <RadioSetTxGenericConfig+0x196>
 80095da:	4d30      	ldr	r5, [pc, #192]	; (800969c <RadioSetTxGenericConfig+0x268>)
 80095dc:	2101      	movs	r1, #1
 80095de:	f885 1038 	strb.w	r1, [r5, #56]	; 0x38
 80095e2:	7822      	ldrb	r2, [r4, #0]
 80095e4:	f885 2050 	strb.w	r2, [r5, #80]	; 0x50
 80095e8:	7863      	ldrb	r3, [r4, #1]
 80095ea:	f885 3051 	strb.w	r3, [r5, #81]	; 0x51
 80095ee:	78a3      	ldrb	r3, [r4, #2]
 80095f0:	f885 3052 	strb.w	r3, [r5, #82]	; 0x52
 80095f4:	78e3      	ldrb	r3, [r4, #3]
 80095f6:	428b      	cmp	r3, r1
 80095f8:	d002      	beq.n	8009600 <RadioSetTxGenericConfig+0x1cc>
 80095fa:	2b02      	cmp	r3, #2
 80095fc:	d003      	beq.n	8009606 <RadioSetTxGenericConfig+0x1d2>
 80095fe:	b93b      	cbnz	r3, 8009610 <RadioSetTxGenericConfig+0x1dc>
 8009600:	f885 3053 	strb.w	r3, [r5, #83]	; 0x53
 8009604:	e004      	b.n	8009610 <RadioSetTxGenericConfig+0x1dc>
 8009606:	3a0b      	subs	r2, #11
 8009608:	2a01      	cmp	r2, #1
 800960a:	d829      	bhi.n	8009660 <RadioSetTxGenericConfig+0x22c>
 800960c:	f885 1053 	strb.w	r1, [r5, #83]	; 0x53
 8009610:	f04f 0801 	mov.w	r8, #1
 8009614:	f885 800e 	strb.w	r8, [r5, #14]
 8009618:	88a3      	ldrh	r3, [r4, #4]
 800961a:	83ab      	strh	r3, [r5, #28]
 800961c:	79a3      	ldrb	r3, [r4, #6]
 800961e:	77ab      	strb	r3, [r5, #30]
 8009620:	79e3      	ldrb	r3, [r4, #7]
 8009622:	f885 3020 	strb.w	r3, [r5, #32]
 8009626:	7a23      	ldrb	r3, [r4, #8]
 8009628:	f885 3021 	strb.w	r3, [r5, #33]	; 0x21
 800962c:	f7ff fdc8 	bl	80091c0 <RadioStandby>
 8009630:	4640      	mov	r0, r8
 8009632:	f7ff fed9 	bl	80093e8 <RadioSetModem>
 8009636:	481c      	ldr	r0, [pc, #112]	; (80096a8 <RadioSetTxGenericConfig+0x274>)
 8009638:	f001 f840 	bl	800a6bc <SUBGRF_SetModulationParams>
 800963c:	481b      	ldr	r0, [pc, #108]	; (80096ac <RadioSetTxGenericConfig+0x278>)
 800963e:	f001 fa21 	bl	800aa84 <SUBGRF_SetPacketParams>
 8009642:	f895 3051 	ldrb.w	r3, [r5, #81]	; 0x51
 8009646:	2b06      	cmp	r3, #6
 8009648:	f640 0089 	movw	r0, #2185	; 0x889
 800964c:	d10a      	bne.n	8009664 <RadioSetTxGenericConfig+0x230>
 800964e:	f001 f8ab 	bl	800a7a8 <SUBGRF_ReadRegister>
 8009652:	f000 01fb 	and.w	r1, r0, #251	; 0xfb
 8009656:	f640 0089 	movw	r0, #2185	; 0x889
 800965a:	f000 ffd5 	bl	800a608 <SUBGRF_WriteRegister>
 800965e:	e759      	b.n	8009514 <RadioSetTxGenericConfig+0xe0>
 8009660:	2300      	movs	r3, #0
 8009662:	e7cd      	b.n	8009600 <RadioSetTxGenericConfig+0x1cc>
 8009664:	f001 f8a0 	bl	800a7a8 <SUBGRF_ReadRegister>
 8009668:	f040 0104 	orr.w	r1, r0, #4
 800966c:	b2c9      	uxtb	r1, r1
 800966e:	e7f2      	b.n	8009656 <RadioSetTxGenericConfig+0x222>
 8009670:	6823      	ldr	r3, [r4, #0]
 8009672:	3b01      	subs	r3, #1
 8009674:	f5b3 7f7a 	cmp.w	r3, #1000	; 0x3e8
 8009678:	f4bf aef3 	bcs.w	8009462 <RadioSetTxGenericConfig+0x2e>
 800967c:	2003      	movs	r0, #3
 800967e:	f7ff feb3 	bl	80093e8 <RadioSetModem>
 8009682:	4806      	ldr	r0, [pc, #24]	; (800969c <RadioSetTxGenericConfig+0x268>)
 8009684:	2302      	movs	r3, #2
 8009686:	f880 3038 	strb.w	r3, [r0, #56]	; 0x38
 800968a:	6823      	ldr	r3, [r4, #0]
 800968c:	6483      	str	r3, [r0, #72]	; 0x48
 800968e:	2316      	movs	r3, #22
 8009690:	f880 304c 	strb.w	r3, [r0, #76]	; 0x4c
 8009694:	3038      	adds	r0, #56	; 0x38
 8009696:	f001 f811 	bl	800a6bc <SUBGRF_SetModulationParams>
 800969a:	e73b      	b.n	8009514 <RadioSetTxGenericConfig+0xe0>
 800969c:	20000d18 	.word	0x20000d18
 80096a0:	20000cfc 	.word	0x20000cfc
 80096a4:	20000d74 	.word	0x20000d74
 80096a8:	20000d50 	.word	0x20000d50
 80096ac:	20000d26 	.word	0x20000d26

080096b0 <RadioSetRxGenericConfig>:
 80096b0:	e92d 41f0 	stmdb	sp!, {r4, r5, r6, r7, r8, lr}
 80096b4:	2600      	movs	r6, #0
 80096b6:	b086      	sub	sp, #24
 80096b8:	461f      	mov	r7, r3
 80096ba:	4614      	mov	r4, r2
 80096bc:	e9cd 6601 	strd	r6, r6, [sp, #4]
 80096c0:	4680      	mov	r8, r0
 80096c2:	460d      	mov	r5, r1
 80096c4:	f001 fba7 	bl	800ae16 <RFW_DeInit>
 80096c8:	42b4      	cmp	r4, r6
 80096ca:	4c77      	ldr	r4, [pc, #476]	; (80098a8 <RadioSetRxGenericConfig+0x1f8>)
 80096cc:	bf16      	itet	ne
 80096ce:	2301      	movne	r3, #1
 80096d0:	4633      	moveq	r3, r6
 80096d2:	4637      	movne	r7, r6
 80096d4:	7063      	strb	r3, [r4, #1]
 80096d6:	f1b8 0f00 	cmp.w	r8, #0
 80096da:	d006      	beq.n	80096ea <RadioSetRxGenericConfig+0x3a>
 80096dc:	f1b8 0f01 	cmp.w	r8, #1
 80096e0:	d07c      	beq.n	80097dc <RadioSetRxGenericConfig+0x12c>
 80096e2:	2000      	movs	r0, #0
 80096e4:	b006      	add	sp, #24
 80096e6:	e8bd 81f0 	ldmia.w	sp!, {r4, r5, r6, r7, r8, pc}
 80096ea:	68ab      	ldr	r3, [r5, #8]
 80096ec:	2b00      	cmp	r3, #0
 80096ee:	f000 80d7 	beq.w	80098a0 <RadioSetRxGenericConfig+0x1f0>
 80096f2:	68eb      	ldr	r3, [r5, #12]
 80096f4:	2b00      	cmp	r3, #0
 80096f6:	f000 80d3 	beq.w	80098a0 <RadioSetRxGenericConfig+0x1f0>
 80096fa:	7faa      	ldrb	r2, [r5, #30]
 80096fc:	2a08      	cmp	r2, #8
 80096fe:	f200 80cf 	bhi.w	80098a0 <RadioSetRxGenericConfig+0x1f0>
 8009702:	6929      	ldr	r1, [r5, #16]
 8009704:	a801      	add	r0, sp, #4
 8009706:	f002 f935 	bl	800b974 <UTIL_MEM_cpy_8>
 800970a:	6828      	ldr	r0, [r5, #0]
 800970c:	3800      	subs	r0, #0
 800970e:	bf18      	it	ne
 8009710:	2001      	movne	r0, #1
 8009712:	f000 fe51 	bl	800a3b8 <SUBGRF_SetStopRxTimerOnPreambleDetect>
 8009716:	f884 8038 	strb.w	r8, [r4, #56]	; 0x38
 800971a:	68ab      	ldr	r3, [r5, #8]
 800971c:	63e3      	str	r3, [r4, #60]	; 0x3c
 800971e:	f895 3020 	ldrb.w	r3, [r5, #32]
 8009722:	f884 3044 	strb.w	r3, [r4, #68]	; 0x44
 8009726:	6868      	ldr	r0, [r5, #4]
 8009728:	f001 fb18 	bl	800ad5c <SUBGRF_GetFskBandwidthRegValue>
 800972c:	f884 800e 	strb.w	r8, [r4, #14]
 8009730:	f884 0045 	strb.w	r0, [r4, #69]	; 0x45
 8009734:	68eb      	ldr	r3, [r5, #12]
 8009736:	00db      	lsls	r3, r3, #3
 8009738:	8223      	strh	r3, [r4, #16]
 800973a:	7feb      	ldrb	r3, [r5, #31]
 800973c:	74a3      	strb	r3, [r4, #18]
 800973e:	7fab      	ldrb	r3, [r5, #30]
 8009740:	00db      	lsls	r3, r3, #3
 8009742:	74e3      	strb	r3, [r4, #19]
 8009744:	f895 3021 	ldrb.w	r3, [r5, #33]	; 0x21
 8009748:	7523      	strb	r3, [r4, #20]
 800974a:	f895 3022 	ldrb.w	r3, [r5, #34]	; 0x22
 800974e:	2b00      	cmp	r3, #0
 8009750:	d13e      	bne.n	80097d0 <RadioSetRxGenericConfig+0x120>
 8009752:	696a      	ldr	r2, [r5, #20]
 8009754:	f895 1024 	ldrb.w	r1, [r5, #36]	; 0x24
 8009758:	75a2      	strb	r2, [r4, #22]
 800975a:	2902      	cmp	r1, #2
 800975c:	f895 2023 	ldrb.w	r2, [r5, #35]	; 0x23
 8009760:	d001      	beq.n	8009766 <RadioSetRxGenericConfig+0xb6>
 8009762:	2b02      	cmp	r3, #2
 8009764:	d136      	bne.n	80097d4 <RadioSetRxGenericConfig+0x124>
 8009766:	f102 030f 	add.w	r3, r2, #15
 800976a:	b2db      	uxtb	r3, r3
 800976c:	2b01      	cmp	r3, #1
 800976e:	d902      	bls.n	8009776 <RadioSetRxGenericConfig+0xc6>
 8009770:	2a01      	cmp	r2, #1
 8009772:	f040 8095 	bne.w	80098a0 <RadioSetRxGenericConfig+0x1f0>
 8009776:	2300      	movs	r3, #0
 8009778:	f88d 3014 	strb.w	r3, [sp, #20]
 800977c:	4b4b      	ldr	r3, [pc, #300]	; (80098ac <RadioSetRxGenericConfig+0x1fc>)
 800977e:	4a4c      	ldr	r2, [pc, #304]	; (80098b0 <RadioSetRxGenericConfig+0x200>)
 8009780:	6819      	ldr	r1, [r3, #0]
 8009782:	9504      	str	r5, [sp, #16]
 8009784:	a803      	add	r0, sp, #12
 8009786:	f001 fb43 	bl	800ae10 <RFW_Init>
 800978a:	2800      	cmp	r0, #0
 800978c:	f040 8088 	bne.w	80098a0 <RadioSetRxGenericConfig+0x1f0>
 8009790:	2301      	movs	r3, #1
 8009792:	7620      	strb	r0, [r4, #24]
 8009794:	75e3      	strb	r3, [r4, #23]
 8009796:	7560      	strb	r0, [r4, #21]
 8009798:	f7ff fd12 	bl	80091c0 <RadioStandby>
 800979c:	2000      	movs	r0, #0
 800979e:	f7ff fe23 	bl	80093e8 <RadioSetModem>
 80097a2:	4844      	ldr	r0, [pc, #272]	; (80098b4 <RadioSetRxGenericConfig+0x204>)
 80097a4:	f000 ff8a 	bl	800a6bc <SUBGRF_SetModulationParams>
 80097a8:	4843      	ldr	r0, [pc, #268]	; (80098b8 <RadioSetRxGenericConfig+0x208>)
 80097aa:	f001 f96b 	bl	800aa84 <SUBGRF_SetPacketParams>
 80097ae:	a801      	add	r0, sp, #4
 80097b0:	f001 f936 	bl	800aa20 <SUBGRF_SetSyncWord>
 80097b4:	8ba8      	ldrh	r0, [r5, #28]
 80097b6:	f001 f86b 	bl	800a890 <SUBGRF_SetWhiteningSeed>
 80097ba:	8b28      	ldrh	r0, [r5, #24]
 80097bc:	f001 f94e 	bl	800aa5c <SUBGRF_SetCrcPolynomial>
 80097c0:	f44f 53fa 	mov.w	r3, #8000	; 0x1f40
 80097c4:	435f      	muls	r7, r3
 80097c6:	68ab      	ldr	r3, [r5, #8]
 80097c8:	fbb7 f7f3 	udiv	r7, r7, r3
 80097cc:	60a7      	str	r7, [r4, #8]
 80097ce:	e788      	b.n	80096e2 <RadioSetRxGenericConfig+0x32>
 80097d0:	22ff      	movs	r2, #255	; 0xff
 80097d2:	e7bf      	b.n	8009754 <RadioSetRxGenericConfig+0xa4>
 80097d4:	75e2      	strb	r2, [r4, #23]
 80097d6:	7621      	strb	r1, [r4, #24]
 80097d8:	7563      	strb	r3, [r4, #21]
 80097da:	e7dd      	b.n	8009798 <RadioSetRxGenericConfig+0xe8>
 80097dc:	8e2b      	ldrh	r3, [r5, #48]	; 0x30
 80097de:	2b00      	cmp	r3, #0
 80097e0:	d05e      	beq.n	80098a0 <RadioSetRxGenericConfig+0x1f0>
 80097e2:	f895 3032 	ldrb.w	r3, [r5, #50]	; 0x32
 80097e6:	6aa8      	ldr	r0, [r5, #40]	; 0x28
 80097e8:	2b01      	cmp	r3, #1
 80097ea:	bf0c      	ite	eq
 80097ec:	f895 8014 	ldrbeq.w	r8, [r5, #20]
 80097f0:	f04f 08ff 	movne.w	r8, #255	; 0xff
 80097f4:	3800      	subs	r0, #0
 80097f6:	bf18      	it	ne
 80097f8:	2001      	movne	r0, #1
 80097fa:	f000 fddd 	bl	800a3b8 <SUBGRF_SetStopRxTimerOnPreambleDetect>
 80097fe:	b2f8      	uxtb	r0, r7
 8009800:	f000 ff2e 	bl	800a660 <SUBGRF_SetLoRaSymbNumTimeout>
 8009804:	2101      	movs	r1, #1
 8009806:	f884 1038 	strb.w	r1, [r4, #56]	; 0x38
 800980a:	f895 202c 	ldrb.w	r2, [r5, #44]	; 0x2c
 800980e:	f884 2050 	strb.w	r2, [r4, #80]	; 0x50
 8009812:	f895 302d 	ldrb.w	r3, [r5, #45]	; 0x2d
 8009816:	f884 3051 	strb.w	r3, [r4, #81]	; 0x51
 800981a:	f895 302e 	ldrb.w	r3, [r5, #46]	; 0x2e
 800981e:	f884 3052 	strb.w	r3, [r4, #82]	; 0x52
 8009822:	f895 302f 	ldrb.w	r3, [r5, #47]	; 0x2f
 8009826:	428b      	cmp	r3, r1
 8009828:	d002      	beq.n	8009830 <RadioSetRxGenericConfig+0x180>
 800982a:	2b02      	cmp	r3, #2
 800982c:	d003      	beq.n	8009836 <RadioSetRxGenericConfig+0x186>
 800982e:	b93b      	cbnz	r3, 8009840 <RadioSetRxGenericConfig+0x190>
 8009830:	f884 3053 	strb.w	r3, [r4, #83]	; 0x53
 8009834:	e004      	b.n	8009840 <RadioSetRxGenericConfig+0x190>
 8009836:	3a0b      	subs	r2, #11
 8009838:	2a01      	cmp	r2, #1
 800983a:	d829      	bhi.n	8009890 <RadioSetRxGenericConfig+0x1e0>
 800983c:	f884 1053 	strb.w	r1, [r4, #83]	; 0x53
 8009840:	8e2b      	ldrh	r3, [r5, #48]	; 0x30
 8009842:	83a3      	strh	r3, [r4, #28]
 8009844:	f895 3032 	ldrb.w	r3, [r5, #50]	; 0x32
 8009848:	77a3      	strb	r3, [r4, #30]
 800984a:	8eab      	ldrh	r3, [r5, #52]	; 0x34
 800984c:	8423      	strh	r3, [r4, #32]
 800984e:	2601      	movs	r6, #1
 8009850:	73a6      	strb	r6, [r4, #14]
 8009852:	f884 801f 	strb.w	r8, [r4, #31]
 8009856:	f7ff fcb3 	bl	80091c0 <RadioStandby>
 800985a:	4630      	mov	r0, r6
 800985c:	f7ff fdc4 	bl	80093e8 <RadioSetModem>
 8009860:	4814      	ldr	r0, [pc, #80]	; (80098b4 <RadioSetRxGenericConfig+0x204>)
 8009862:	f000 ff2b 	bl	800a6bc <SUBGRF_SetModulationParams>
 8009866:	4814      	ldr	r0, [pc, #80]	; (80098b8 <RadioSetRxGenericConfig+0x208>)
 8009868:	f001 f90c 	bl	800aa84 <SUBGRF_SetPacketParams>
 800986c:	f894 3021 	ldrb.w	r3, [r4, #33]	; 0x21
 8009870:	42b3      	cmp	r3, r6
 8009872:	f240 7036 	movw	r0, #1846	; 0x736
 8009876:	d10d      	bne.n	8009894 <RadioSetRxGenericConfig+0x1e4>
 8009878:	f000 ff96 	bl	800a7a8 <SUBGRF_ReadRegister>
 800987c:	f000 01fb 	and.w	r1, r0, #251	; 0xfb
 8009880:	f240 7036 	movw	r0, #1846	; 0x736
 8009884:	f000 fec0 	bl	800a608 <SUBGRF_WriteRegister>
 8009888:	f64f 73ff 	movw	r3, #65535	; 0xffff
 800988c:	60a3      	str	r3, [r4, #8]
 800988e:	e728      	b.n	80096e2 <RadioSetRxGenericConfig+0x32>
 8009890:	2300      	movs	r3, #0
 8009892:	e7cd      	b.n	8009830 <RadioSetRxGenericConfig+0x180>
 8009894:	f000 ff88 	bl	800a7a8 <SUBGRF_ReadRegister>
 8009898:	f040 0104 	orr.w	r1, r0, #4
 800989c:	b2c9      	uxtb	r1, r1
 800989e:	e7ef      	b.n	8009880 <RadioSetRxGenericConfig+0x1d0>
 80098a0:	f04f 30ff 	mov.w	r0, #4294967295	; 0xffffffff
 80098a4:	e71e      	b.n	80096e4 <RadioSetRxGenericConfig+0x34>
 80098a6:	bf00      	nop
 80098a8:	20000d18 	.word	0x20000d18
 80098ac:	20000cfc 	.word	0x20000cfc
 80098b0:	20000d00 	.word	0x20000d00
 80098b4:	20000d50 	.word	0x20000d50
 80098b8:	20000d26 	.word	0x20000d26

080098bc <RadioSetTxConfig>:
 80098bc:	e92d 4ff0 	stmdb	sp!, {r4, r5, r6, r7, r8, r9, sl, fp, lr}
 80098c0:	b085      	sub	sp, #20
 80098c2:	4682      	mov	sl, r0
 80098c4:	9d0e      	ldr	r5, [sp, #56]	; 0x38
 80098c6:	f8bd b040 	ldrh.w	fp, [sp, #64]	; 0x40
 80098ca:	f89d 7044 	ldrb.w	r7, [sp, #68]	; 0x44
 80098ce:	f89d 9048 	ldrb.w	r9, [sp, #72]	; 0x48
 80098d2:	9201      	str	r2, [sp, #4]
 80098d4:	4688      	mov	r8, r1
 80098d6:	461e      	mov	r6, r3
 80098d8:	f001 fa9d 	bl	800ae16 <RFW_DeInit>
 80098dc:	f1ba 0f01 	cmp.w	sl, #1
 80098e0:	4c4f      	ldr	r4, [pc, #316]	; (8009a20 <RadioSetTxConfig+0x164>)
 80098e2:	d04d      	beq.n	8009980 <RadioSetTxConfig+0xc4>
 80098e4:	f1ba 0f04 	cmp.w	sl, #4
 80098e8:	f000 808b 	beq.w	8009a02 <RadioSetTxConfig+0x146>
 80098ec:	f1ba 0f00 	cmp.w	sl, #0
 80098f0:	d13a      	bne.n	8009968 <RadioSetTxConfig+0xac>
 80098f2:	220b      	movs	r2, #11
 80098f4:	4630      	mov	r0, r6
 80098f6:	f884 2044 	strb.w	r2, [r4, #68]	; 0x44
 80098fa:	f884 a038 	strb.w	sl, [r4, #56]	; 0x38
 80098fe:	63e5      	str	r5, [r4, #60]	; 0x3c
 8009900:	f001 fa2c 	bl	800ad5c <SUBGRF_GetFskBandwidthRegValue>
 8009904:	9b01      	ldr	r3, [sp, #4]
 8009906:	6423      	str	r3, [r4, #64]	; 0x40
 8009908:	ea4f 03cb 	mov.w	r3, fp, lsl #3
 800990c:	f1b9 0f00 	cmp.w	r9, #0
 8009910:	8223      	strh	r3, [r4, #16]
 8009912:	f641 0304 	movw	r3, #6148	; 0x1804
 8009916:	8263      	strh	r3, [r4, #18]
 8009918:	bf14      	ite	ne
 800991a:	23f2      	movne	r3, #242	; 0xf2
 800991c:	2301      	moveq	r3, #1
 800991e:	75e3      	strb	r3, [r4, #23]
 8009920:	f087 0701 	eor.w	r7, r7, #1
 8009924:	2301      	movs	r3, #1
 8009926:	7623      	strb	r3, [r4, #24]
 8009928:	f884 0045 	strb.w	r0, [r4, #69]	; 0x45
 800992c:	f884 a00e 	strb.w	sl, [r4, #14]
 8009930:	f884 a014 	strb.w	sl, [r4, #20]
 8009934:	7567      	strb	r7, [r4, #21]
 8009936:	f7ff fc43 	bl	80091c0 <RadioStandby>
 800993a:	4650      	mov	r0, sl
 800993c:	f7ff fd54 	bl	80093e8 <RadioSetModem>
 8009940:	f104 0038 	add.w	r0, r4, #56	; 0x38
 8009944:	f000 feba 	bl	800a6bc <SUBGRF_SetModulationParams>
 8009948:	f104 000e 	add.w	r0, r4, #14
 800994c:	f001 f89a 	bl	800aa84 <SUBGRF_SetPacketParams>
 8009950:	4a34      	ldr	r2, [pc, #208]	; (8009a24 <RadioSetTxConfig+0x168>)
 8009952:	6810      	ldr	r0, [r2, #0]
 8009954:	6851      	ldr	r1, [r2, #4]
 8009956:	ab02      	add	r3, sp, #8
 8009958:	c303      	stmia	r3!, {r0, r1}
 800995a:	a802      	add	r0, sp, #8
 800995c:	f001 f860 	bl	800aa20 <SUBGRF_SetSyncWord>
 8009960:	f240 10ff 	movw	r0, #511	; 0x1ff
 8009964:	f000 ff94 	bl	800a890 <SUBGRF_SetWhiteningSeed>
 8009968:	4640      	mov	r0, r8
 800996a:	f001 f99e 	bl	800acaa <SUBGRF_SetRfTxPower>
 800996e:	f884 0056 	strb.w	r0, [r4, #86]	; 0x56
 8009972:	f001 fa55 	bl	800ae20 <RFW_SetAntSwitch>
 8009976:	9b16      	ldr	r3, [sp, #88]	; 0x58
 8009978:	6063      	str	r3, [r4, #4]
 800997a:	b005      	add	sp, #20
 800997c:	e8bd 8ff0 	ldmia.w	sp!, {r4, r5, r6, r7, r8, r9, sl, fp, pc}
 8009980:	4929      	ldr	r1, [pc, #164]	; (8009a28 <RadioSetTxConfig+0x16c>)
 8009982:	f884 a038 	strb.w	sl, [r4, #56]	; 0x38
 8009986:	5d89      	ldrb	r1, [r1, r6]
 8009988:	f884 1051 	strb.w	r1, [r4, #81]	; 0x51
 800998c:	b2ea      	uxtb	r2, r5
 800998e:	f89d 103c 	ldrb.w	r1, [sp, #60]	; 0x3c
 8009992:	f884 2050 	strb.w	r2, [r4, #80]	; 0x50
 8009996:	f884 1052 	strb.w	r1, [r4, #82]	; 0x52
 800999a:	bb36      	cbnz	r6, 80099ea <RadioSetTxConfig+0x12e>
 800999c:	3d0b      	subs	r5, #11
 800999e:	2d01      	cmp	r5, #1
 80099a0:	bf8c      	ite	hi
 80099a2:	2500      	movhi	r5, #0
 80099a4:	2501      	movls	r5, #1
 80099a6:	2101      	movs	r1, #1
 80099a8:	3a05      	subs	r2, #5
 80099aa:	428a      	cmp	r2, r1
 80099ac:	f884 5053 	strb.w	r5, [r4, #83]	; 0x53
 80099b0:	73a1      	strb	r1, [r4, #14]
 80099b2:	d823      	bhi.n	80099fc <RadioSetTxConfig+0x140>
 80099b4:	f1bb 0f0b 	cmp.w	fp, #11
 80099b8:	d820      	bhi.n	80099fc <RadioSetTxConfig+0x140>
 80099ba:	230c      	movs	r3, #12
 80099bc:	83a3      	strh	r3, [r4, #28]
 80099be:	4b1b      	ldr	r3, [pc, #108]	; (8009a2c <RadioSetTxConfig+0x170>)
 80099c0:	77a7      	strb	r7, [r4, #30]
 80099c2:	781b      	ldrb	r3, [r3, #0]
 80099c4:	77e3      	strb	r3, [r4, #31]
 80099c6:	f89d 3054 	ldrb.w	r3, [sp, #84]	; 0x54
 80099ca:	f884 3021 	strb.w	r3, [r4, #33]	; 0x21
 80099ce:	f884 9020 	strb.w	r9, [r4, #32]
 80099d2:	f7ff fbf5 	bl	80091c0 <RadioStandby>
 80099d6:	2001      	movs	r0, #1
 80099d8:	f7ff fd06 	bl	80093e8 <RadioSetModem>
 80099dc:	4814      	ldr	r0, [pc, #80]	; (8009a30 <RadioSetTxConfig+0x174>)
 80099de:	f000 fe6d 	bl	800a6bc <SUBGRF_SetModulationParams>
 80099e2:	4814      	ldr	r0, [pc, #80]	; (8009a34 <RadioSetTxConfig+0x178>)
 80099e4:	f001 f84e 	bl	800aa84 <SUBGRF_SetPacketParams>
 80099e8:	e7be      	b.n	8009968 <RadioSetTxConfig+0xac>
 80099ea:	2e01      	cmp	r6, #1
 80099ec:	d104      	bne.n	80099f8 <RadioSetTxConfig+0x13c>
 80099ee:	f1a5 030c 	sub.w	r3, r5, #12
 80099f2:	425d      	negs	r5, r3
 80099f4:	415d      	adcs	r5, r3
 80099f6:	e7d6      	b.n	80099a6 <RadioSetTxConfig+0xea>
 80099f8:	2500      	movs	r5, #0
 80099fa:	e7d4      	b.n	80099a6 <RadioSetTxConfig+0xea>
 80099fc:	f8a4 b01c 	strh.w	fp, [r4, #28]
 8009a00:	e7dd      	b.n	80099be <RadioSetTxConfig+0x102>
 8009a02:	4650      	mov	r0, sl
 8009a04:	f7ff fcf0 	bl	80093e8 <RadioSetModem>
 8009a08:	2302      	movs	r3, #2
 8009a0a:	f884 3038 	strb.w	r3, [r4, #56]	; 0x38
 8009a0e:	f104 0038 	add.w	r0, r4, #56	; 0x38
 8009a12:	2316      	movs	r3, #22
 8009a14:	64a5      	str	r5, [r4, #72]	; 0x48
 8009a16:	f884 304c 	strb.w	r3, [r4, #76]	; 0x4c
 8009a1a:	f000 fe4f 	bl	800a6bc <SUBGRF_SetModulationParams>
 8009a1e:	e7a3      	b.n	8009968 <RadioSetTxConfig+0xac>
 8009a20:	20000d18 	.word	0x20000d18
 8009a24:	0800e854 	.word	0x0800e854
 8009a28:	08010e04 	.word	0x08010e04
 8009a2c:	2000006c 	.word	0x2000006c
 8009a30:	20000d50 	.word	0x20000d50
 8009a34:	20000d26 	.word	0x20000d26

08009a38 <RadioSetRxConfig>:
 8009a38:	e92d 4ff0 	stmdb	sp!, {r4, r5, r6, r7, r8, r9, sl, fp, lr}
 8009a3c:	b087      	sub	sp, #28
 8009a3e:	f8df b2a8 	ldr.w	fp, [pc, #680]	; 8009ce8 <RadioSetRxConfig+0x2b0>
 8009a42:	f89d a064 	ldrb.w	sl, [sp, #100]	; 0x64
 8009a46:	f89d 904c 	ldrb.w	r9, [sp, #76]	; 0x4c
 8009a4a:	9302      	str	r3, [sp, #8]
 8009a4c:	4614      	mov	r4, r2
 8009a4e:	f89d 3054 	ldrb.w	r3, [sp, #84]	; 0x54
 8009a52:	f89d 2050 	ldrb.w	r2, [sp, #80]	; 0x50
 8009a56:	f8bd 8048 	ldrh.w	r8, [sp, #72]	; 0x48
 8009a5a:	9203      	str	r2, [sp, #12]
 8009a5c:	4605      	mov	r5, r0
 8009a5e:	f88b a001 	strb.w	sl, [fp, #1]
 8009a62:	f8bd 6044 	ldrh.w	r6, [sp, #68]	; 0x44
 8009a66:	9301      	str	r3, [sp, #4]
 8009a68:	460f      	mov	r7, r1
 8009a6a:	f001 f9d4 	bl	800ae16 <RFW_DeInit>
 8009a6e:	f1ba 0f00 	cmp.w	sl, #0
 8009a72:	bf18      	it	ne
 8009a74:	f04f 0800 	movne.w	r8, #0
 8009a78:	f8df a270 	ldr.w	sl, [pc, #624]	; 8009cec <RadioSetRxConfig+0x2b4>
 8009a7c:	9a03      	ldr	r2, [sp, #12]
 8009a7e:	f1b9 0f00 	cmp.w	r9, #0
 8009a82:	bf08      	it	eq
 8009a84:	22ff      	moveq	r2, #255	; 0xff
 8009a86:	2d01      	cmp	r5, #1
 8009a88:	f88a 2000 	strb.w	r2, [sl]
 8009a8c:	f000 80c8 	beq.w	8009c20 <RadioSetRxConfig+0x1e8>
 8009a90:	2d05      	cmp	r5, #5
 8009a92:	d048      	beq.n	8009b26 <RadioSetRxConfig+0xee>
 8009a94:	2d00      	cmp	r5, #0
 8009a96:	f040 80c0 	bne.w	8009c1a <RadioSetRxConfig+0x1e2>
 8009a9a:	4628      	mov	r0, r5
 8009a9c:	f000 fc8c 	bl	800a3b8 <SUBGRF_SetStopRxTimerOnPreambleDetect>
 8009aa0:	220b      	movs	r2, #11
 8009aa2:	4638      	mov	r0, r7
 8009aa4:	f88b 2044 	strb.w	r2, [fp, #68]	; 0x44
 8009aa8:	f88b 5038 	strb.w	r5, [fp, #56]	; 0x38
 8009aac:	f8cb 403c 	str.w	r4, [fp, #60]	; 0x3c
 8009ab0:	f001 f954 	bl	800ad5c <SUBGRF_GetFskBandwidthRegValue>
 8009ab4:	9b01      	ldr	r3, [sp, #4]
 8009ab6:	f88b 0045 	strb.w	r0, [fp, #69]	; 0x45
 8009aba:	f641 0204 	movw	r2, #6148	; 0x1804
 8009abe:	2b00      	cmp	r3, #0
 8009ac0:	f8ab 2012 	strh.w	r2, [fp, #18]
 8009ac4:	f89a 2000 	ldrb.w	r2, [sl]
 8009ac8:	f88b 2016 	strb.w	r2, [fp, #22]
 8009acc:	bf14      	ite	ne
 8009ace:	22f2      	movne	r2, #242	; 0xf2
 8009ad0:	2201      	moveq	r2, #1
 8009ad2:	f88b 2017 	strb.w	r2, [fp, #23]
 8009ad6:	00f6      	lsls	r6, r6, #3
 8009ad8:	2201      	movs	r2, #1
 8009ada:	f089 0901 	eor.w	r9, r9, #1
 8009ade:	f88b 2018 	strb.w	r2, [fp, #24]
 8009ae2:	f88b 500e 	strb.w	r5, [fp, #14]
 8009ae6:	f8ab 6010 	strh.w	r6, [fp, #16]
 8009aea:	f88b 5014 	strb.w	r5, [fp, #20]
 8009aee:	f88b 9015 	strb.w	r9, [fp, #21]
 8009af2:	f7ff fb65 	bl	80091c0 <RadioStandby>
 8009af6:	4628      	mov	r0, r5
 8009af8:	f7ff fc76 	bl	80093e8 <RadioSetModem>
 8009afc:	f10b 0038 	add.w	r0, fp, #56	; 0x38
 8009b00:	f000 fddc 	bl	800a6bc <SUBGRF_SetModulationParams>
 8009b04:	f10b 000e 	add.w	r0, fp, #14
 8009b08:	f000 ffbc 	bl	800aa84 <SUBGRF_SetPacketParams>
 8009b0c:	4978      	ldr	r1, [pc, #480]	; (8009cf0 <RadioSetRxConfig+0x2b8>)
 8009b0e:	6808      	ldr	r0, [r1, #0]
 8009b10:	6849      	ldr	r1, [r1, #4]
 8009b12:	aa04      	add	r2, sp, #16
 8009b14:	c203      	stmia	r2!, {r0, r1}
 8009b16:	a804      	add	r0, sp, #16
 8009b18:	f000 ff82 	bl	800aa20 <SUBGRF_SetSyncWord>
 8009b1c:	f240 10ff 	movw	r0, #511	; 0x1ff
 8009b20:	f000 feb6 	bl	800a890 <SUBGRF_SetWhiteningSeed>
 8009b24:	e071      	b.n	8009c0a <RadioSetRxConfig+0x1d2>
 8009b26:	2001      	movs	r0, #1
 8009b28:	f000 fc46 	bl	800a3b8 <SUBGRF_SetStopRxTimerOnPreambleDetect>
 8009b2c:	2209      	movs	r2, #9
 8009b2e:	f04f 0900 	mov.w	r9, #0
 8009b32:	f88b 2044 	strb.w	r2, [fp, #68]	; 0x44
 8009b36:	4638      	mov	r0, r7
 8009b38:	f44f 7248 	mov.w	r2, #800	; 0x320
 8009b3c:	f8cb 2040 	str.w	r2, [fp, #64]	; 0x40
 8009b40:	f88b 9038 	strb.w	r9, [fp, #56]	; 0x38
 8009b44:	f8cb 403c 	str.w	r4, [fp, #60]	; 0x3c
 8009b48:	f001 f908 	bl	800ad5c <SUBGRF_GetFskBandwidthRegValue>
 8009b4c:	f44f 5280 	mov.w	r2, #4096	; 0x1000
 8009b50:	f8ab 2012 	strh.w	r2, [fp, #18]
 8009b54:	f89a 2000 	ldrb.w	r2, [sl]
 8009b58:	f88b 0045 	strb.w	r0, [fp, #69]	; 0x45
 8009b5c:	f88b 2016 	strb.w	r2, [fp, #22]
 8009b60:	4628      	mov	r0, r5
 8009b62:	2201      	movs	r2, #1
 8009b64:	00f6      	lsls	r6, r6, #3
 8009b66:	f88b 2017 	strb.w	r2, [fp, #23]
 8009b6a:	f88b 900e 	strb.w	r9, [fp, #14]
 8009b6e:	f8ab 6010 	strh.w	r6, [fp, #16]
 8009b72:	f8ab 9014 	strh.w	r9, [fp, #20]
 8009b76:	f88b 9018 	strb.w	r9, [fp, #24]
 8009b7a:	f7ff fc35 	bl	80093e8 <RadioSetModem>
 8009b7e:	f10b 0038 	add.w	r0, fp, #56	; 0x38
 8009b82:	f000 fd9b 	bl	800a6bc <SUBGRF_SetModulationParams>
 8009b86:	f10b 000e 	add.w	r0, fp, #14
 8009b8a:	f000 ff7b 	bl	800aa84 <SUBGRF_SetPacketParams>
 8009b8e:	4958      	ldr	r1, [pc, #352]	; (8009cf0 <RadioSetRxConfig+0x2b8>)
 8009b90:	6888      	ldr	r0, [r1, #8]
 8009b92:	68c9      	ldr	r1, [r1, #12]
 8009b94:	aa04      	add	r2, sp, #16
 8009b96:	c203      	stmia	r2!, {r0, r1}
 8009b98:	a804      	add	r0, sp, #16
 8009b9a:	f000 ff41 	bl	800aa20 <SUBGRF_SetSyncWord>
 8009b9e:	f240 10ff 	movw	r0, #511	; 0x1ff
 8009ba2:	f000 fe75 	bl	800a890 <SUBGRF_SetWhiteningSeed>
 8009ba6:	f640 00b8 	movw	r0, #2232	; 0x8b8
 8009baa:	f000 fdfd 	bl	800a7a8 <SUBGRF_ReadRegister>
 8009bae:	f000 01ef 	and.w	r1, r0, #239	; 0xef
 8009bb2:	f640 00b8 	movw	r0, #2232	; 0x8b8
 8009bb6:	f000 fd27 	bl	800a608 <SUBGRF_WriteRegister>
 8009bba:	2104      	movs	r1, #4
 8009bbc:	f640 00b9 	movw	r0, #2233	; 0x8b9
 8009bc0:	f000 fd22 	bl	800a608 <SUBGRF_WriteRegister>
 8009bc4:	f640 009b 	movw	r0, #2203	; 0x89b
 8009bc8:	f000 fdee 	bl	800a7a8 <SUBGRF_ReadRegister>
 8009bcc:	f000 01e3 	and.w	r1, r0, #227	; 0xe3
 8009bd0:	f041 0108 	orr.w	r1, r1, #8
 8009bd4:	f640 009b 	movw	r0, #2203	; 0x89b
 8009bd8:	f000 fd16 	bl	800a608 <SUBGRF_WriteRegister>
 8009bdc:	f240 60d1 	movw	r0, #1745	; 0x6d1
 8009be0:	f000 fde2 	bl	800a7a8 <SUBGRF_ReadRegister>
 8009be4:	f040 0118 	orr.w	r1, r0, #24
 8009be8:	b2c9      	uxtb	r1, r1
 8009bea:	f240 60d1 	movw	r0, #1745	; 0x6d1
 8009bee:	f000 fd0b 	bl	800a608 <SUBGRF_WriteRegister>
 8009bf2:	f240 60ac 	movw	r0, #1708	; 0x6ac
 8009bf6:	f000 fdd7 	bl	800a7a8 <SUBGRF_ReadRegister>
 8009bfa:	f000 018f 	and.w	r1, r0, #143	; 0x8f
 8009bfe:	f041 0150 	orr.w	r1, r1, #80	; 0x50
 8009c02:	f240 60ac 	movw	r0, #1708	; 0x6ac
 8009c06:	f000 fcff 	bl	800a608 <SUBGRF_WriteRegister>
 8009c0a:	f44f 52fa 	mov.w	r2, #8000	; 0x1f40
 8009c0e:	fb02 f808 	mul.w	r8, r2, r8
 8009c12:	fbb8 f4f4 	udiv	r4, r8, r4
 8009c16:	f8cb 4008 	str.w	r4, [fp, #8]
 8009c1a:	b007      	add	sp, #28
 8009c1c:	e8bd 8ff0 	ldmia.w	sp!, {r4, r5, r6, r7, r8, r9, sl, fp, pc}
 8009c20:	2000      	movs	r0, #0
 8009c22:	f000 fbc9 	bl	800a3b8 <SUBGRF_SetStopRxTimerOnPreambleDetect>
 8009c26:	4933      	ldr	r1, [pc, #204]	; (8009cf4 <RadioSetRxConfig+0x2bc>)
 8009c28:	9b02      	ldr	r3, [sp, #8]
 8009c2a:	5dc9      	ldrb	r1, [r1, r7]
 8009c2c:	f88b 5038 	strb.w	r5, [fp, #56]	; 0x38
 8009c30:	b2e2      	uxtb	r2, r4
 8009c32:	f88b 2050 	strb.w	r2, [fp, #80]	; 0x50
 8009c36:	f88b 1051 	strb.w	r1, [fp, #81]	; 0x51
 8009c3a:	f88b 3052 	strb.w	r3, [fp, #82]	; 0x52
 8009c3e:	2f00      	cmp	r7, #0
 8009c40:	d140      	bne.n	8009cc4 <RadioSetRxConfig+0x28c>
 8009c42:	3c0b      	subs	r4, #11
 8009c44:	2c01      	cmp	r4, #1
 8009c46:	bf8c      	ite	hi
 8009c48:	2400      	movhi	r4, #0
 8009c4a:	2401      	movls	r4, #1
 8009c4c:	2101      	movs	r1, #1
 8009c4e:	3a05      	subs	r2, #5
 8009c50:	428a      	cmp	r2, r1
 8009c52:	f88b 4053 	strb.w	r4, [fp, #83]	; 0x53
 8009c56:	f88b 100e 	strb.w	r1, [fp, #14]
 8009c5a:	d83c      	bhi.n	8009cd6 <RadioSetRxConfig+0x29e>
 8009c5c:	2e0b      	cmp	r6, #11
 8009c5e:	d83a      	bhi.n	8009cd6 <RadioSetRxConfig+0x29e>
 8009c60:	220c      	movs	r2, #12
 8009c62:	f8ab 201c 	strh.w	r2, [fp, #28]
 8009c66:	f89a 2000 	ldrb.w	r2, [sl]
 8009c6a:	9b01      	ldr	r3, [sp, #4]
 8009c6c:	f88b 201f 	strb.w	r2, [fp, #31]
 8009c70:	f89d 2060 	ldrb.w	r2, [sp, #96]	; 0x60
 8009c74:	f88b 2021 	strb.w	r2, [fp, #33]	; 0x21
 8009c78:	f88b 3020 	strb.w	r3, [fp, #32]
 8009c7c:	f88b 901e 	strb.w	r9, [fp, #30]
 8009c80:	f7ff fa9e 	bl	80091c0 <RadioStandby>
 8009c84:	2001      	movs	r0, #1
 8009c86:	f7ff fbaf 	bl	80093e8 <RadioSetModem>
 8009c8a:	481b      	ldr	r0, [pc, #108]	; (8009cf8 <RadioSetRxConfig+0x2c0>)
 8009c8c:	f000 fd16 	bl	800a6bc <SUBGRF_SetModulationParams>
 8009c90:	481a      	ldr	r0, [pc, #104]	; (8009cfc <RadioSetRxConfig+0x2c4>)
 8009c92:	f000 fef7 	bl	800aa84 <SUBGRF_SetPacketParams>
 8009c96:	fa5f f088 	uxtb.w	r0, r8
 8009c9a:	f000 fce1 	bl	800a660 <SUBGRF_SetLoRaSymbNumTimeout>
 8009c9e:	f89b 2021 	ldrb.w	r2, [fp, #33]	; 0x21
 8009ca2:	2a01      	cmp	r2, #1
 8009ca4:	f240 7036 	movw	r0, #1846	; 0x736
 8009ca8:	d118      	bne.n	8009cdc <RadioSetRxConfig+0x2a4>
 8009caa:	f000 fd7d 	bl	800a7a8 <SUBGRF_ReadRegister>
 8009cae:	f000 01fb 	and.w	r1, r0, #251	; 0xfb
 8009cb2:	f240 7036 	movw	r0, #1846	; 0x736
 8009cb6:	f000 fca7 	bl	800a608 <SUBGRF_WriteRegister>
 8009cba:	f64f 72ff 	movw	r2, #65535	; 0xffff
 8009cbe:	f8cb 2008 	str.w	r2, [fp, #8]
 8009cc2:	e7aa      	b.n	8009c1a <RadioSetRxConfig+0x1e2>
 8009cc4:	2f01      	cmp	r7, #1
 8009cc6:	d104      	bne.n	8009cd2 <RadioSetRxConfig+0x29a>
 8009cc8:	f1a4 030c 	sub.w	r3, r4, #12
 8009ccc:	425c      	negs	r4, r3
 8009cce:	415c      	adcs	r4, r3
 8009cd0:	e7bc      	b.n	8009c4c <RadioSetRxConfig+0x214>
 8009cd2:	2400      	movs	r4, #0
 8009cd4:	e7ba      	b.n	8009c4c <RadioSetRxConfig+0x214>
 8009cd6:	f8ab 601c 	strh.w	r6, [fp, #28]
 8009cda:	e7c4      	b.n	8009c66 <RadioSetRxConfig+0x22e>
 8009cdc:	f000 fd64 	bl	800a7a8 <SUBGRF_ReadRegister>
 8009ce0:	f040 0104 	orr.w	r1, r0, #4
 8009ce4:	b2c9      	uxtb	r1, r1
 8009ce6:	e7e4      	b.n	8009cb2 <RadioSetRxConfig+0x27a>
 8009ce8:	20000d18 	.word	0x20000d18
 8009cec:	2000006c 	.word	0x2000006c
 8009cf0:	0800e854 	.word	0x0800e854
 8009cf4:	08010e04 	.word	0x08010e04
 8009cf8:	20000d50 	.word	0x20000d50
 8009cfc:	20000d26 	.word	0x20000d26

08009d00 <RadioIsChannelFree>:
 8009d00:	b5f0      	push	{r4, r5, r6, r7, lr}
 8009d02:	b08b      	sub	sp, #44	; 0x2c
 8009d04:	460d      	mov	r5, r1
 8009d06:	4604      	mov	r4, r0
 8009d08:	4617      	mov	r7, r2
 8009d0a:	461e      	mov	r6, r3
 8009d0c:	f7ff fa58 	bl	80091c0 <RadioStandby>
 8009d10:	2000      	movs	r0, #0
 8009d12:	f7ff fb69 	bl	80093e8 <RadioSetModem>
 8009d16:	4620      	mov	r0, r4
 8009d18:	f000 fbfa 	bl	800a510 <SUBGRF_SetRfFrequency>
 8009d1c:	2400      	movs	r4, #0
 8009d1e:	2301      	movs	r3, #1
 8009d20:	e9cd 4308 	strd	r4, r3, [sp, #32]
 8009d24:	2303      	movs	r3, #3
 8009d26:	f44f 7216 	mov.w	r2, #600	; 0x258
 8009d2a:	4629      	mov	r1, r5
 8009d2c:	4620      	mov	r0, r4
 8009d2e:	e9cd 4406 	strd	r4, r4, [sp, #24]
 8009d32:	e9cd 4404 	strd	r4, r4, [sp, #16]
 8009d36:	e9cd 4402 	strd	r4, r4, [sp, #8]
 8009d3a:	e9cd 5300 	strd	r5, r3, [sp]
 8009d3e:	4623      	mov	r3, r4
 8009d40:	f7ff fe7a 	bl	8009a38 <RadioSetRxConfig>
 8009d44:	4620      	mov	r0, r4
 8009d46:	f7ff fa8d 	bl	8009264 <RadioRx>
 8009d4a:	f7ff fa4b 	bl	80091e4 <RadioGetWakeupTime>
 8009d4e:	f7fb fefb 	bl	8005b48 <HAL_Delay>
 8009d52:	f001 fe3f 	bl	800b9d4 <UTIL_TIMER_GetCurrentTime>
 8009d56:	4604      	mov	r4, r0
 8009d58:	4620      	mov	r0, r4
 8009d5a:	f001 fe45 	bl	800b9e8 <UTIL_TIMER_GetElapsedTime>
 8009d5e:	42b0      	cmp	r0, r6
 8009d60:	d305      	bcc.n	8009d6e <RadioIsChannelFree+0x6e>
 8009d62:	2401      	movs	r4, #1
 8009d64:	f7ff fa2c 	bl	80091c0 <RadioStandby>
 8009d68:	4620      	mov	r0, r4
 8009d6a:	b00b      	add	sp, #44	; 0x2c
 8009d6c:	bdf0      	pop	{r4, r5, r6, r7, pc}
 8009d6e:	f000 fc02 	bl	800a576 <SUBGRF_GetRssiInst>
 8009d72:	b200      	sxth	r0, r0
 8009d74:	4287      	cmp	r7, r0
 8009d76:	daef      	bge.n	8009d58 <RadioIsChannelFree+0x58>
 8009d78:	2400      	movs	r4, #0
 8009d7a:	e7f3      	b.n	8009d64 <RadioIsChannelFree+0x64>

08009d7c <RadioSend>:
 8009d7c:	b5f7      	push	{r0, r1, r2, r4, r5, r6, r7, lr}
 8009d7e:	2300      	movs	r3, #0
 8009d80:	4d64      	ldr	r5, [pc, #400]	; (8009f14 <RadioSend+0x198>)
 8009d82:	460c      	mov	r4, r1
 8009d84:	f240 2101 	movw	r1, #513	; 0x201
 8009d88:	461a      	mov	r2, r3
 8009d8a:	4606      	mov	r6, r0
 8009d8c:	4608      	mov	r0, r1
 8009d8e:	f000 fb8d 	bl	800a4ac <SUBGRF_SetDioIrqParams>
 8009d92:	f895 0056 	ldrb.w	r0, [r5, #86]	; 0x56
 8009d96:	2101      	movs	r1, #1
 8009d98:	f000 ff71 	bl	800ac7e <SUBGRF_SetSwitch>
 8009d9c:	782b      	ldrb	r3, [r5, #0]
 8009d9e:	2b01      	cmp	r3, #1
 8009da0:	f640 0089 	movw	r0, #2185	; 0x889
 8009da4:	d113      	bne.n	8009dce <RadioSend+0x52>
 8009da6:	f895 3051 	ldrb.w	r3, [r5, #81]	; 0x51
 8009daa:	2b06      	cmp	r3, #6
 8009dac:	d10f      	bne.n	8009dce <RadioSend+0x52>
 8009dae:	f000 fcfb 	bl	800a7a8 <SUBGRF_ReadRegister>
 8009db2:	f000 01fb 	and.w	r1, r0, #251	; 0xfb
 8009db6:	f640 0089 	movw	r0, #2185	; 0x889
 8009dba:	f000 fc25 	bl	800a608 <SUBGRF_WriteRegister>
 8009dbe:	782b      	ldrb	r3, [r5, #0]
 8009dc0:	2b04      	cmp	r3, #4
 8009dc2:	d86e      	bhi.n	8009ea2 <RadioSend+0x126>
 8009dc4:	e8df f003 	tbb	[pc, r3]
 8009dc8:	79544d54 	.word	0x79544d54
 8009dcc:	09          	.byte	0x09
 8009dcd:	00          	.byte	0x00
 8009dce:	f000 fceb 	bl	800a7a8 <SUBGRF_ReadRegister>
 8009dd2:	f040 0104 	orr.w	r1, r0, #4
 8009dd6:	b2c9      	uxtb	r1, r1
 8009dd8:	e7ed      	b.n	8009db6 <RadioSend+0x3a>
 8009dda:	4a4f      	ldr	r2, [pc, #316]	; (8009f18 <RadioSend+0x19c>)
 8009ddc:	1e73      	subs	r3, r6, #1
 8009dde:	4610      	mov	r0, r2
 8009de0:	f1c6 0701 	rsb	r7, r6, #1
 8009de4:	f04f 0c00 	mov.w	ip, #0
 8009de8:	18f9      	adds	r1, r7, r3
 8009dea:	428c      	cmp	r4, r1
 8009dec:	dc69      	bgt.n	8009ec2 <RadioSend+0x146>
 8009dee:	2300      	movs	r3, #0
 8009df0:	00e7      	lsls	r7, r4, #3
 8009df2:	4619      	mov	r1, r3
 8009df4:	42bb      	cmp	r3, r7
 8009df6:	d16b      	bne.n	8009ed0 <RadioSend+0x154>
 8009df8:	2900      	cmp	r1, #0
 8009dfa:	ea4f 1381 	mov.w	r3, r1, lsl #6
 8009dfe:	bf0c      	ite	eq
 8009e00:	2220      	moveq	r2, #32
 8009e02:	2200      	movne	r2, #0
 8009e04:	ea43 13c1 	orr.w	r3, r3, r1, lsl #7
 8009e08:	4313      	orrs	r3, r2
 8009e0a:	1c66      	adds	r6, r4, #1
 8009e0c:	5503      	strb	r3, [r0, r4]
 8009e0e:	b2f6      	uxtb	r6, r6
 8009e10:	2302      	movs	r3, #2
 8009e12:	4842      	ldr	r0, [pc, #264]	; (8009f1c <RadioSend+0x1a0>)
 8009e14:	73ab      	strb	r3, [r5, #14]
 8009e16:	76ae      	strb	r6, [r5, #26]
 8009e18:	f000 fe34 	bl	800aa84 <SUBGRF_SetPacketParams>
 8009e1c:	2100      	movs	r1, #0
 8009e1e:	20f1      	movs	r0, #241	; 0xf1
 8009e20:	f000 fbf2 	bl	800a608 <SUBGRF_WriteRegister>
 8009e24:	2100      	movs	r1, #0
 8009e26:	20f0      	movs	r0, #240	; 0xf0
 8009e28:	f000 fbee 	bl	800a608 <SUBGRF_WriteRegister>
 8009e2c:	6cab      	ldr	r3, [r5, #72]	; 0x48
 8009e2e:	2b64      	cmp	r3, #100	; 0x64
 8009e30:	d167      	bne.n	8009f02 <RadioSend+0x186>
 8009e32:	2170      	movs	r1, #112	; 0x70
 8009e34:	20f3      	movs	r0, #243	; 0xf3
 8009e36:	f000 fbe7 	bl	800a608 <SUBGRF_WriteRegister>
 8009e3a:	211d      	movs	r1, #29
 8009e3c:	20f2      	movs	r0, #242	; 0xf2
 8009e3e:	f000 fbe3 	bl	800a608 <SUBGRF_WriteRegister>
 8009e42:	00e1      	lsls	r1, r4, #3
 8009e44:	1c8c      	adds	r4, r1, #2
 8009e46:	20f4      	movs	r0, #244	; 0xf4
 8009e48:	0a09      	lsrs	r1, r1, #8
 8009e4a:	f000 fbdd 	bl	800a608 <SUBGRF_WriteRegister>
 8009e4e:	f004 01fe 	and.w	r1, r4, #254	; 0xfe
 8009e52:	20f5      	movs	r0, #245	; 0xf5
 8009e54:	f000 fbd8 	bl	800a608 <SUBGRF_WriteRegister>
 8009e58:	482f      	ldr	r0, [pc, #188]	; (8009f18 <RadioSend+0x19c>)
 8009e5a:	f06f 427f 	mvn.w	r2, #4278190080	; 0xff000000
 8009e5e:	4631      	mov	r1, r6
 8009e60:	e01d      	b.n	8009e9e <RadioSend+0x122>
 8009e62:	77ec      	strb	r4, [r5, #31]
 8009e64:	482d      	ldr	r0, [pc, #180]	; (8009f1c <RadioSend+0x1a0>)
 8009e66:	f000 fe0d 	bl	800aa84 <SUBGRF_SetPacketParams>
 8009e6a:	2200      	movs	r2, #0
 8009e6c:	4621      	mov	r1, r4
 8009e6e:	e015      	b.n	8009e9c <RadioSend+0x120>
 8009e70:	f000 ffd2 	bl	800ae18 <RFW_Is_Init>
 8009e74:	2801      	cmp	r0, #1
 8009e76:	d11e      	bne.n	8009eb6 <RadioSend+0x13a>
 8009e78:	4621      	mov	r1, r4
 8009e7a:	f10d 0207 	add.w	r2, sp, #7
 8009e7e:	4630      	mov	r0, r6
 8009e80:	f000 ffcf 	bl	800ae22 <RFW_TransmitInit>
 8009e84:	4604      	mov	r4, r0
 8009e86:	2800      	cmp	r0, #0
 8009e88:	d141      	bne.n	8009f0e <RadioSend+0x192>
 8009e8a:	f89d 3007 	ldrb.w	r3, [sp, #7]
 8009e8e:	4823      	ldr	r0, [pc, #140]	; (8009f1c <RadioSend+0x1a0>)
 8009e90:	75ab      	strb	r3, [r5, #22]
 8009e92:	f000 fdf7 	bl	800aa84 <SUBGRF_SetPacketParams>
 8009e96:	f89d 1007 	ldrb.w	r1, [sp, #7]
 8009e9a:	4622      	mov	r2, r4
 8009e9c:	4630      	mov	r0, r6
 8009e9e:	f000 febc 	bl	800ac1a <SUBGRF_SendPayload>
 8009ea2:	6869      	ldr	r1, [r5, #4]
 8009ea4:	481e      	ldr	r0, [pc, #120]	; (8009f20 <RadioSend+0x1a4>)
 8009ea6:	f001 fe63 	bl	800bb70 <UTIL_TIMER_SetPeriod>
 8009eaa:	481d      	ldr	r0, [pc, #116]	; (8009f20 <RadioSend+0x1a4>)
 8009eac:	b003      	add	sp, #12
 8009eae:	e8bd 40f0 	ldmia.w	sp!, {r4, r5, r6, r7, lr}
 8009eb2:	f001 be23 	b.w	800bafc <UTIL_TIMER_Start>
 8009eb6:	75ac      	strb	r4, [r5, #22]
 8009eb8:	e7d4      	b.n	8009e64 <RadioSend+0xe8>
 8009eba:	2302      	movs	r3, #2
 8009ebc:	73ab      	strb	r3, [r5, #14]
 8009ebe:	76ac      	strb	r4, [r5, #26]
 8009ec0:	e7d0      	b.n	8009e64 <RadioSend+0xe8>
 8009ec2:	f813 1f01 	ldrb.w	r1, [r3, #1]!
 8009ec6:	43c9      	mvns	r1, r1
 8009ec8:	7019      	strb	r1, [r3, #0]
 8009eca:	f802 cb01 	strb.w	ip, [r2], #1
 8009ece:	e78b      	b.n	8009de8 <RadioSend+0x6c>
 8009ed0:	43da      	mvns	r2, r3
 8009ed2:	f002 0c07 	and.w	ip, r2, #7
 8009ed6:	10da      	asrs	r2, r3, #3
 8009ed8:	3301      	adds	r3, #1
 8009eda:	5cb2      	ldrb	r2, [r6, r2]
 8009edc:	fa42 f20c 	asr.w	r2, r2, ip
 8009ee0:	f002 0201 	and.w	r2, r2, #1
 8009ee4:	ea4f 0ce3 	mov.w	ip, r3, asr #3
 8009ee8:	4051      	eors	r1, r2
 8009eea:	43da      	mvns	r2, r3
 8009eec:	f810 e00c 	ldrb.w	lr, [r0, ip]
 8009ef0:	f002 0207 	and.w	r2, r2, #7
 8009ef4:	fa01 f202 	lsl.w	r2, r1, r2
 8009ef8:	ea42 020e 	orr.w	r2, r2, lr
 8009efc:	f800 200c 	strb.w	r2, [r0, ip]
 8009f00:	e778      	b.n	8009df4 <RadioSend+0x78>
 8009f02:	21e1      	movs	r1, #225	; 0xe1
 8009f04:	20f3      	movs	r0, #243	; 0xf3
 8009f06:	f000 fb7f 	bl	800a608 <SUBGRF_WriteRegister>
 8009f0a:	2104      	movs	r1, #4
 8009f0c:	e796      	b.n	8009e3c <RadioSend+0xc0>
 8009f0e:	b003      	add	sp, #12
 8009f10:	bdf0      	pop	{r4, r5, r6, r7, pc}
 8009f12:	bf00      	nop
 8009f14:	20000d18 	.word	0x20000d18
 8009f18:	20000bfc 	.word	0x20000bfc
 8009f1c:	20000d26 	.word	0x20000d26
 8009f20:	20000d74 	.word	0x20000d74

08009f24 <RadioTimeOnAir>:
 8009f24:	b5f0      	push	{r4, r5, r6, r7, lr}
 8009f26:	f8bd 4014 	ldrh.w	r4, [sp, #20]
 8009f2a:	f89d c018 	ldrb.w	ip, [sp, #24]
 8009f2e:	f89d 701c 	ldrb.w	r7, [sp, #28]
 8009f32:	f89d 5020 	ldrb.w	r5, [sp, #32]
 8009f36:	b140      	cbz	r0, 8009f4a <RadioTimeOnAir+0x26>
 8009f38:	2801      	cmp	r0, #1
 8009f3a:	d019      	beq.n	8009f70 <RadioTimeOnAir+0x4c>
 8009f3c:	2201      	movs	r2, #1
 8009f3e:	2400      	movs	r4, #0
 8009f40:	18a0      	adds	r0, r4, r2
 8009f42:	3801      	subs	r0, #1
 8009f44:	fbb0 f0f2 	udiv	r0, r0, r2
 8009f48:	bdf0      	pop	{r4, r5, r6, r7, pc}
 8009f4a:	f1bc 0f00 	cmp.w	ip, #0
 8009f4e:	bf0c      	ite	eq
 8009f50:	2308      	moveq	r3, #8
 8009f52:	2300      	movne	r3, #0
 8009f54:	2d00      	cmp	r5, #0
 8009f56:	eb03 04c4 	add.w	r4, r3, r4, lsl #3
 8009f5a:	bf14      	ite	ne
 8009f5c:	2002      	movne	r0, #2
 8009f5e:	2000      	moveq	r0, #0
 8009f60:	3418      	adds	r4, #24
 8009f62:	4438      	add	r0, r7
 8009f64:	eb04 00c0 	add.w	r0, r4, r0, lsl #3
 8009f68:	f44f 747a 	mov.w	r4, #1000	; 0x3e8
 8009f6c:	4344      	muls	r4, r0
 8009f6e:	e7e7      	b.n	8009f40 <RadioTimeOnAir+0x1c>
 8009f70:	1f50      	subs	r0, r2, #5
 8009f72:	2801      	cmp	r0, #1
 8009f74:	f103 0304 	add.w	r3, r3, #4
 8009f78:	d802      	bhi.n	8009f80 <RadioTimeOnAir+0x5c>
 8009f7a:	2c0c      	cmp	r4, #12
 8009f7c:	bf38      	it	cc
 8009f7e:	240c      	movcc	r4, #12
 8009f80:	2900      	cmp	r1, #0
 8009f82:	d137      	bne.n	8009ff4 <RadioTimeOnAir+0xd0>
 8009f84:	f1a2 060b 	sub.w	r6, r2, #11
 8009f88:	2e01      	cmp	r6, #1
 8009f8a:	bf8c      	ite	hi
 8009f8c:	2600      	movhi	r6, #0
 8009f8e:	2601      	movls	r6, #1
 8009f90:	2d00      	cmp	r5, #0
 8009f92:	bf14      	ite	ne
 8009f94:	2010      	movne	r0, #16
 8009f96:	2000      	moveq	r0, #0
 8009f98:	eb00 00c7 	add.w	r0, r0, r7, lsl #3
 8009f9c:	f1bc 0f00 	cmp.w	ip, #0
 8009fa0:	bf14      	ite	ne
 8009fa2:	2700      	movne	r7, #0
 8009fa4:	2714      	moveq	r7, #20
 8009fa6:	eba0 0082 	sub.w	r0, r0, r2, lsl #2
 8009faa:	2a06      	cmp	r2, #6
 8009fac:	4438      	add	r0, r7
 8009fae:	ea4f 0582 	mov.w	r5, r2, lsl #2
 8009fb2:	f1a2 0702 	sub.w	r7, r2, #2
 8009fb6:	d902      	bls.n	8009fbe <RadioTimeOnAir+0x9a>
 8009fb8:	3008      	adds	r0, #8
 8009fba:	b106      	cbz	r6, 8009fbe <RadioTimeOnAir+0x9a>
 8009fbc:	00bd      	lsls	r5, r7, #2
 8009fbe:	2800      	cmp	r0, #0
 8009fc0:	bfac      	ite	ge
 8009fc2:	182e      	addge	r6, r5, r0
 8009fc4:	1c2e      	addlt	r6, r5, #0
 8009fc6:	1e70      	subs	r0, r6, #1
 8009fc8:	fb90 f5f5 	sdiv	r5, r0, r5
 8009fcc:	fb03 4405 	mla	r4, r3, r5, r4
 8009fd0:	4b0d      	ldr	r3, [pc, #52]	; (800a008 <RadioTimeOnAir+0xe4>)
 8009fd2:	5c5b      	ldrb	r3, [r3, r1]
 8009fd4:	2a06      	cmp	r2, #6
 8009fd6:	bf8c      	ite	hi
 8009fd8:	340c      	addhi	r4, #12
 8009fda:	340e      	addls	r4, #14
 8009fdc:	2b0a      	cmp	r3, #10
 8009fde:	d812      	bhi.n	800a006 <RadioTimeOnAir+0xe2>
 8009fe0:	00a4      	lsls	r4, r4, #2
 8009fe2:	4a0a      	ldr	r2, [pc, #40]	; (800a00c <RadioTimeOnAir+0xe8>)
 8009fe4:	3401      	adds	r4, #1
 8009fe6:	40bc      	lsls	r4, r7
 8009fe8:	f44f 707a 	mov.w	r0, #1000	; 0x3e8
 8009fec:	f852 2023 	ldr.w	r2, [r2, r3, lsl #2]
 8009ff0:	4344      	muls	r4, r0
 8009ff2:	e7a5      	b.n	8009f40 <RadioTimeOnAir+0x1c>
 8009ff4:	2901      	cmp	r1, #1
 8009ff6:	d104      	bne.n	800a002 <RadioTimeOnAir+0xde>
 8009ff8:	2a0c      	cmp	r2, #12
 8009ffa:	bf14      	ite	ne
 8009ffc:	2600      	movne	r6, #0
 8009ffe:	2601      	moveq	r6, #1
 800a000:	e7c6      	b.n	8009f90 <RadioTimeOnAir+0x6c>
 800a002:	2600      	movs	r6, #0
 800a004:	e7c4      	b.n	8009f90 <RadioTimeOnAir+0x6c>
 800a006:	deff      	udf	#255	; 0xff
 800a008:	08010e04 	.word	0x08010e04
 800a00c:	08010e08 	.word	0x08010e08

0800a010 <RadioTxPrbs>:
 800a010:	b508      	push	{r3, lr}
 800a012:	4b09      	ldr	r3, [pc, #36]	; (800a038 <RadioTxPrbs+0x28>)
 800a014:	2101      	movs	r1, #1
 800a016:	f893 0056 	ldrb.w	r0, [r3, #86]	; 0x56
 800a01a:	f000 fe30 	bl	800ac7e <SUBGRF_SetSwitch>
 800a01e:	f44f 60d7 	mov.w	r0, #1720	; 0x6b8
 800a022:	212d      	movs	r1, #45	; 0x2d
 800a024:	f000 faf0 	bl	800a608 <SUBGRF_WriteRegister>
 800a028:	f000 f9c1 	bl	800a3ae <SUBGRF_SetTxInfinitePreamble>
 800a02c:	e8bd 4008 	ldmia.w	sp!, {r3, lr}
 800a030:	4802      	ldr	r0, [pc, #8]	; (800a03c <RadioTxPrbs+0x2c>)
 800a032:	f000 b961 	b.w	800a2f8 <SUBGRF_SetTx>
 800a036:	bf00      	nop
 800a038:	20000d18 	.word	0x20000d18
 800a03c:	000fffff 	.word	0x000fffff

0800a040 <RadioIrqProcess>:
 800a040:	b573      	push	{r0, r1, r4, r5, r6, lr}
 800a042:	4c85      	ldr	r4, [pc, #532]	; (800a258 <RadioIrqProcess+0x218>)
 800a044:	f8b4 3054 	ldrh.w	r3, [r4, #84]	; 0x54
 800a048:	2500      	movs	r5, #0
 800a04a:	2b20      	cmp	r3, #32
 800a04c:	f88d 5003 	strb.w	r5, [sp, #3]
 800a050:	9501      	str	r5, [sp, #4]
 800a052:	f000 80e9 	beq.w	800a228 <RadioIrqProcess+0x1e8>
 800a056:	d80f      	bhi.n	800a078 <RadioIrqProcess+0x38>
 800a058:	3b01      	subs	r3, #1
 800a05a:	b29a      	uxth	r2, r3
 800a05c:	2a07      	cmp	r2, #7
 800a05e:	d815      	bhi.n	800a08c <RadioIrqProcess+0x4c>
 800a060:	2b07      	cmp	r3, #7
 800a062:	d813      	bhi.n	800a08c <RadioIrqProcess+0x4c>
 800a064:	e8df f013 	tbh	[pc, r3, lsl #1]
 800a068:	003d0028 	.word	0x003d0028
 800a06c:	00ae0012 	.word	0x00ae0012
 800a070:	00120012 	.word	0x00120012
 800a074:	00d80012 	.word	0x00d80012
 800a078:	f5b3 7f80 	cmp.w	r3, #256	; 0x100
 800a07c:	f000 8088 	beq.w	800a190 <RadioIrqProcess+0x150>
 800a080:	d806      	bhi.n	800a090 <RadioIrqProcess+0x50>
 800a082:	2b40      	cmp	r3, #64	; 0x40
 800a084:	f000 80dd 	beq.w	800a242 <RadioIrqProcess+0x202>
 800a088:	2b80      	cmp	r3, #128	; 0x80
 800a08a:	d074      	beq.n	800a176 <RadioIrqProcess+0x136>
 800a08c:	b002      	add	sp, #8
 800a08e:	bd70      	pop	{r4, r5, r6, pc}
 800a090:	f5b3 7f00 	cmp.w	r3, #512	; 0x200
 800a094:	d1fa      	bne.n	800a08c <RadioIrqProcess+0x4c>
 800a096:	f000 f913 	bl	800a2c0 <SUBGRF_GetOperatingMode>
 800a09a:	2804      	cmp	r0, #4
 800a09c:	f040 8086 	bne.w	800a1ac <RadioIrqProcess+0x16c>
 800a0a0:	486e      	ldr	r0, [pc, #440]	; (800a25c <RadioIrqProcess+0x21c>)
 800a0a2:	f001 fcdb 	bl	800ba5c <UTIL_TIMER_Stop>
 800a0a6:	4628      	mov	r0, r5
 800a0a8:	f000 f910 	bl	800a2cc <SUBGRF_SetStandby>
 800a0ac:	4b6c      	ldr	r3, [pc, #432]	; (800a260 <RadioIrqProcess+0x220>)
 800a0ae:	681b      	ldr	r3, [r3, #0]
 800a0b0:	2b00      	cmp	r3, #0
 800a0b2:	d0eb      	beq.n	800a08c <RadioIrqProcess+0x4c>
 800a0b4:	685b      	ldr	r3, [r3, #4]
 800a0b6:	e010      	b.n	800a0da <RadioIrqProcess+0x9a>
 800a0b8:	4868      	ldr	r0, [pc, #416]	; (800a25c <RadioIrqProcess+0x21c>)
 800a0ba:	f001 fccf 	bl	800ba5c <UTIL_TIMER_Stop>
 800a0be:	2000      	movs	r0, #0
 800a0c0:	f000 f904 	bl	800a2cc <SUBGRF_SetStandby>
 800a0c4:	f000 feaa 	bl	800ae1c <RFW_Is_LongPacketModeEnabled>
 800a0c8:	2801      	cmp	r0, #1
 800a0ca:	d101      	bne.n	800a0d0 <RadioIrqProcess+0x90>
 800a0cc:	f000 feaf 	bl	800ae2e <RFW_DeInit_TxLongPacket>
 800a0d0:	4b63      	ldr	r3, [pc, #396]	; (800a260 <RadioIrqProcess+0x220>)
 800a0d2:	681b      	ldr	r3, [r3, #0]
 800a0d4:	2b00      	cmp	r3, #0
 800a0d6:	d0d9      	beq.n	800a08c <RadioIrqProcess+0x4c>
 800a0d8:	681b      	ldr	r3, [r3, #0]
 800a0da:	2b00      	cmp	r3, #0
 800a0dc:	d0d6      	beq.n	800a08c <RadioIrqProcess+0x4c>
 800a0de:	4798      	blx	r3
 800a0e0:	e7d4      	b.n	800a08c <RadioIrqProcess+0x4c>
 800a0e2:	4860      	ldr	r0, [pc, #384]	; (800a264 <RadioIrqProcess+0x224>)
 800a0e4:	f001 fcba 	bl	800ba5c <UTIL_TIMER_Stop>
 800a0e8:	7865      	ldrb	r5, [r4, #1]
 800a0ea:	b995      	cbnz	r5, 800a112 <RadioIrqProcess+0xd2>
 800a0ec:	4628      	mov	r0, r5
 800a0ee:	f000 f8ed 	bl	800a2cc <SUBGRF_SetStandby>
 800a0f2:	4629      	mov	r1, r5
 800a0f4:	f640 1002 	movw	r0, #2306	; 0x902
 800a0f8:	f000 fa86 	bl	800a608 <SUBGRF_WriteRegister>
 800a0fc:	f640 1044 	movw	r0, #2372	; 0x944
 800a100:	f000 fb52 	bl	800a7a8 <SUBGRF_ReadRegister>
 800a104:	f040 0102 	orr.w	r1, r0, #2
 800a108:	b2c9      	uxtb	r1, r1
 800a10a:	f640 1044 	movw	r0, #2372	; 0x944
 800a10e:	f000 fa7b 	bl	800a608 <SUBGRF_WriteRegister>
 800a112:	22ff      	movs	r2, #255	; 0xff
 800a114:	f10d 0103 	add.w	r1, sp, #3
 800a118:	4853      	ldr	r0, [pc, #332]	; (800a268 <RadioIrqProcess+0x228>)
 800a11a:	4d51      	ldr	r5, [pc, #324]	; (800a260 <RadioIrqProcess+0x220>)
 800a11c:	f000 fd96 	bl	800ac4c <SUBGRF_GetPayload>
 800a120:	4852      	ldr	r0, [pc, #328]	; (800a26c <RadioIrqProcess+0x22c>)
 800a122:	f000 fa35 	bl	800a590 <SUBGRF_GetPacketStatus>
 800a126:	682b      	ldr	r3, [r5, #0]
 800a128:	2b00      	cmp	r3, #0
 800a12a:	d0af      	beq.n	800a08c <RadioIrqProcess+0x4c>
 800a12c:	689e      	ldr	r6, [r3, #8]
 800a12e:	2e00      	cmp	r6, #0
 800a130:	d0ac      	beq.n	800a08c <RadioIrqProcess+0x4c>
 800a132:	f894 3024 	ldrb.w	r3, [r4, #36]	; 0x24
 800a136:	2b01      	cmp	r3, #1
 800a138:	d108      	bne.n	800a14c <RadioIrqProcess+0x10c>
 800a13a:	f994 3031 	ldrsb.w	r3, [r4, #49]	; 0x31
 800a13e:	f994 2030 	ldrsb.w	r2, [r4, #48]	; 0x30
 800a142:	f89d 1003 	ldrb.w	r1, [sp, #3]
 800a146:	4848      	ldr	r0, [pc, #288]	; (800a268 <RadioIrqProcess+0x228>)
 800a148:	47b0      	blx	r6
 800a14a:	e79f      	b.n	800a08c <RadioIrqProcess+0x4c>
 800a14c:	6be0      	ldr	r0, [r4, #60]	; 0x3c
 800a14e:	a901      	add	r1, sp, #4
 800a150:	f000 fe18 	bl	800ad84 <SUBGRF_GetCFO>
 800a154:	9b01      	ldr	r3, [sp, #4]
 800a156:	f89d 1003 	ldrb.w	r1, [sp, #3]
 800a15a:	4843      	ldr	r0, [pc, #268]	; (800a268 <RadioIrqProcess+0x228>)
 800a15c:	f44f 727a 	mov.w	r2, #1000	; 0x3e8
 800a160:	f503 73fa 	add.w	r3, r3, #500	; 0x1f4
 800a164:	fb93 f3f2 	sdiv	r3, r3, r2
 800a168:	682a      	ldr	r2, [r5, #0]
 800a16a:	b25b      	sxtb	r3, r3
 800a16c:	6895      	ldr	r5, [r2, #8]
 800a16e:	f994 2029 	ldrsb.w	r2, [r4, #41]	; 0x29
 800a172:	47a8      	blx	r5
 800a174:	e78a      	b.n	800a08c <RadioIrqProcess+0x4c>
 800a176:	4628      	mov	r0, r5
 800a178:	f000 f8a8 	bl	800a2cc <SUBGRF_SetStandby>
 800a17c:	4b38      	ldr	r3, [pc, #224]	; (800a260 <RadioIrqProcess+0x220>)
 800a17e:	681b      	ldr	r3, [r3, #0]
 800a180:	2b00      	cmp	r3, #0
 800a182:	d083      	beq.n	800a08c <RadioIrqProcess+0x4c>
 800a184:	699b      	ldr	r3, [r3, #24]
 800a186:	2b00      	cmp	r3, #0
 800a188:	d080      	beq.n	800a08c <RadioIrqProcess+0x4c>
 800a18a:	4628      	mov	r0, r5
 800a18c:	4798      	blx	r3
 800a18e:	e77d      	b.n	800a08c <RadioIrqProcess+0x4c>
 800a190:	4628      	mov	r0, r5
 800a192:	f000 f89b 	bl	800a2cc <SUBGRF_SetStandby>
 800a196:	4b32      	ldr	r3, [pc, #200]	; (800a260 <RadioIrqProcess+0x220>)
 800a198:	681b      	ldr	r3, [r3, #0]
 800a19a:	2b00      	cmp	r3, #0
 800a19c:	f43f af76 	beq.w	800a08c <RadioIrqProcess+0x4c>
 800a1a0:	699b      	ldr	r3, [r3, #24]
 800a1a2:	2b00      	cmp	r3, #0
 800a1a4:	f43f af72 	beq.w	800a08c <RadioIrqProcess+0x4c>
 800a1a8:	2001      	movs	r0, #1
 800a1aa:	e7ef      	b.n	800a18c <RadioIrqProcess+0x14c>
 800a1ac:	f000 f888 	bl	800a2c0 <SUBGRF_GetOperatingMode>
 800a1b0:	2805      	cmp	r0, #5
 800a1b2:	f47f af6b 	bne.w	800a08c <RadioIrqProcess+0x4c>
 800a1b6:	482b      	ldr	r0, [pc, #172]	; (800a264 <RadioIrqProcess+0x224>)
 800a1b8:	f001 fc50 	bl	800ba5c <UTIL_TIMER_Stop>
 800a1bc:	4628      	mov	r0, r5
 800a1be:	f000 f885 	bl	800a2cc <SUBGRF_SetStandby>
 800a1c2:	e037      	b.n	800a234 <RadioIrqProcess+0x1f4>
 800a1c4:	6da1      	ldr	r1, [r4, #88]	; 0x58
 800a1c6:	2900      	cmp	r1, #0
 800a1c8:	f43f af60 	beq.w	800a08c <RadioIrqProcess+0x4c>
 800a1cc:	f3c1 4107 	ubfx	r1, r1, #16, #8
 800a1d0:	f640 1003 	movw	r0, #2307	; 0x903
 800a1d4:	f000 fa18 	bl	800a608 <SUBGRF_WriteRegister>
 800a1d8:	f894 1059 	ldrb.w	r1, [r4, #89]	; 0x59
 800a1dc:	f640 1004 	movw	r0, #2308	; 0x904
 800a1e0:	f000 fa12 	bl	800a608 <SUBGRF_WriteRegister>
 800a1e4:	f894 1058 	ldrb.w	r1, [r4, #88]	; 0x58
 800a1e8:	f640 1005 	movw	r0, #2309	; 0x905
 800a1ec:	f000 fa0c 	bl	800a608 <SUBGRF_WriteRegister>
 800a1f0:	f640 1002 	movw	r0, #2306	; 0x902
 800a1f4:	f000 fad8 	bl	800a7a8 <SUBGRF_ReadRegister>
 800a1f8:	f040 0101 	orr.w	r1, r0, #1
 800a1fc:	b2c9      	uxtb	r1, r1
 800a1fe:	f640 1002 	movw	r0, #2306	; 0x902
 800a202:	f000 fa01 	bl	800a608 <SUBGRF_WriteRegister>
 800a206:	2300      	movs	r3, #0
 800a208:	f240 2162 	movw	r1, #610	; 0x262
 800a20c:	461a      	mov	r2, r3
 800a20e:	4608      	mov	r0, r1
 800a210:	65a3      	str	r3, [r4, #88]	; 0x58
 800a212:	f000 f94b 	bl	800a4ac <SUBGRF_SetDioIrqParams>
 800a216:	e739      	b.n	800a08c <RadioIrqProcess+0x4c>
 800a218:	f000 fdfe 	bl	800ae18 <RFW_Is_Init>
 800a21c:	2801      	cmp	r0, #1
 800a21e:	f47f af35 	bne.w	800a08c <RadioIrqProcess+0x4c>
 800a222:	f000 fe05 	bl	800ae30 <RFW_ReceivePayload>
 800a226:	e731      	b.n	800a08c <RadioIrqProcess+0x4c>
 800a228:	480e      	ldr	r0, [pc, #56]	; (800a264 <RadioIrqProcess+0x224>)
 800a22a:	f001 fc17 	bl	800ba5c <UTIL_TIMER_Stop>
 800a22e:	7860      	ldrb	r0, [r4, #1]
 800a230:	2800      	cmp	r0, #0
 800a232:	d0c4      	beq.n	800a1be <RadioIrqProcess+0x17e>
 800a234:	4b0a      	ldr	r3, [pc, #40]	; (800a260 <RadioIrqProcess+0x220>)
 800a236:	681b      	ldr	r3, [r3, #0]
 800a238:	2b00      	cmp	r3, #0
 800a23a:	f43f af27 	beq.w	800a08c <RadioIrqProcess+0x4c>
 800a23e:	68db      	ldr	r3, [r3, #12]
 800a240:	e74b      	b.n	800a0da <RadioIrqProcess+0x9a>
 800a242:	7860      	ldrb	r0, [r4, #1]
 800a244:	b908      	cbnz	r0, 800a24a <RadioIrqProcess+0x20a>
 800a246:	f000 f841 	bl	800a2cc <SUBGRF_SetStandby>
 800a24a:	4b05      	ldr	r3, [pc, #20]	; (800a260 <RadioIrqProcess+0x220>)
 800a24c:	681b      	ldr	r3, [r3, #0]
 800a24e:	2b00      	cmp	r3, #0
 800a250:	f43f af1c 	beq.w	800a08c <RadioIrqProcess+0x4c>
 800a254:	691b      	ldr	r3, [r3, #16]
 800a256:	e740      	b.n	800a0da <RadioIrqProcess+0x9a>
 800a258:	20000d18 	.word	0x20000d18
 800a25c:	20000d74 	.word	0x20000d74
 800a260:	20000cfc 	.word	0x20000cfc
 800a264:	20000d00 	.word	0x20000d00
 800a268:	20000bfc 	.word	0x20000bfc
 800a26c:	20000d3c 	.word	0x20000d3c

0800a270 <RadioOnDioIrq>:
 800a270:	4b02      	ldr	r3, [pc, #8]	; (800a27c <RadioOnDioIrq+0xc>)
 800a272:	f8a3 0054 	strh.w	r0, [r3, #84]	; 0x54
 800a276:	f7ff bee3 	b.w	800a040 <RadioIrqProcess>
 800a27a:	bf00      	nop
 800a27c:	20000d18 	.word	0x20000d18

0800a280 <SUBGRF_WriteCommand>:
 800a280:	b510      	push	{r4, lr}
 800a282:	4613      	mov	r3, r2
 800a284:	f3ef 8410 	mrs	r4, PRIMASK
 800a288:	b672      	cpsid	i
 800a28a:	460a      	mov	r2, r1
 800a28c:	4601      	mov	r1, r0
 800a28e:	4803      	ldr	r0, [pc, #12]	; (800a29c <SUBGRF_WriteCommand+0x1c>)
 800a290:	f7fe f8d8 	bl	8008444 <HAL_SUBGHZ_ExecSetCmd>
 800a294:	f384 8810 	msr	PRIMASK, r4
 800a298:	bd10      	pop	{r4, pc}
 800a29a:	bf00      	nop
 800a29c:	20000a24 	.word	0x20000a24

0800a2a0 <SUBGRF_ReadCommand>:
 800a2a0:	b510      	push	{r4, lr}
 800a2a2:	4613      	mov	r3, r2
 800a2a4:	f3ef 8410 	mrs	r4, PRIMASK
 800a2a8:	b672      	cpsid	i
 800a2aa:	460a      	mov	r2, r1
 800a2ac:	4601      	mov	r1, r0
 800a2ae:	4803      	ldr	r0, [pc, #12]	; (800a2bc <SUBGRF_ReadCommand+0x1c>)
 800a2b0:	f7fe f900 	bl	80084b4 <HAL_SUBGHZ_ExecGetCmd>
 800a2b4:	f384 8810 	msr	PRIMASK, r4
 800a2b8:	bd10      	pop	{r4, pc}
 800a2ba:	bf00      	nop
 800a2bc:	20000a24 	.word	0x20000a24

0800a2c0 <SUBGRF_GetOperatingMode>:
 800a2c0:	4b01      	ldr	r3, [pc, #4]	; (800a2c8 <SUBGRF_GetOperatingMode+0x8>)
 800a2c2:	7818      	ldrb	r0, [r3, #0]
 800a2c4:	4770      	bx	lr
 800a2c6:	bf00      	nop
 800a2c8:	20000d92 	.word	0x20000d92

0800a2cc <SUBGRF_SetStandby>:
 800a2cc:	b507      	push	{r0, r1, r2, lr}
 800a2ce:	2201      	movs	r2, #1
 800a2d0:	f88d 0007 	strb.w	r0, [sp, #7]
 800a2d4:	f10d 0107 	add.w	r1, sp, #7
 800a2d8:	2080      	movs	r0, #128	; 0x80
 800a2da:	f7ff ffd1 	bl	800a280 <SUBGRF_WriteCommand>
 800a2de:	f89d 3007 	ldrb.w	r3, [sp, #7]
 800a2e2:	2b00      	cmp	r3, #0
 800a2e4:	4b03      	ldr	r3, [pc, #12]	; (800a2f4 <SUBGRF_SetStandby+0x28>)
 800a2e6:	bf0c      	ite	eq
 800a2e8:	2201      	moveq	r2, #1
 800a2ea:	2202      	movne	r2, #2
 800a2ec:	701a      	strb	r2, [r3, #0]
 800a2ee:	b003      	add	sp, #12
 800a2f0:	f85d fb04 	ldr.w	pc, [sp], #4
 800a2f4:	20000d92 	.word	0x20000d92

0800a2f8 <SUBGRF_SetTx>:
 800a2f8:	b507      	push	{r0, r1, r2, lr}
 800a2fa:	4b09      	ldr	r3, [pc, #36]	; (800a320 <SUBGRF_SetTx+0x28>)
 800a2fc:	f88d 0006 	strb.w	r0, [sp, #6]
 800a300:	2204      	movs	r2, #4
 800a302:	701a      	strb	r2, [r3, #0]
 800a304:	0c03      	lsrs	r3, r0, #16
 800a306:	f88d 3004 	strb.w	r3, [sp, #4]
 800a30a:	2203      	movs	r2, #3
 800a30c:	0a03      	lsrs	r3, r0, #8
 800a30e:	a901      	add	r1, sp, #4
 800a310:	2083      	movs	r0, #131	; 0x83
 800a312:	f88d 3005 	strb.w	r3, [sp, #5]
 800a316:	f7ff ffb3 	bl	800a280 <SUBGRF_WriteCommand>
 800a31a:	b003      	add	sp, #12
 800a31c:	f85d fb04 	ldr.w	pc, [sp], #4
 800a320:	20000d92 	.word	0x20000d92

0800a324 <SUBGRF_SetRx>:
 800a324:	b507      	push	{r0, r1, r2, lr}
 800a326:	4b09      	ldr	r3, [pc, #36]	; (800a34c <SUBGRF_SetRx+0x28>)
 800a328:	f88d 0006 	strb.w	r0, [sp, #6]
 800a32c:	2205      	movs	r2, #5
 800a32e:	701a      	strb	r2, [r3, #0]
 800a330:	0c03      	lsrs	r3, r0, #16
 800a332:	f88d 3004 	strb.w	r3, [sp, #4]
 800a336:	2203      	movs	r2, #3
 800a338:	0a03      	lsrs	r3, r0, #8
 800a33a:	a901      	add	r1, sp, #4
 800a33c:	2082      	movs	r0, #130	; 0x82
 800a33e:	f88d 3005 	strb.w	r3, [sp, #5]
 800a342:	f7ff ff9d 	bl	800a280 <SUBGRF_WriteCommand>
 800a346:	b003      	add	sp, #12
 800a348:	f85d fb04 	ldr.w	pc, [sp], #4
 800a34c:	20000d92 	.word	0x20000d92

0800a350 <SUBGRF_SetRxDutyCycle>:
 800a350:	b507      	push	{r0, r1, r2, lr}
 800a352:	0c03      	lsrs	r3, r0, #16
 800a354:	f88d 3000 	strb.w	r3, [sp]
 800a358:	0a03      	lsrs	r3, r0, #8
 800a35a:	f88d 3001 	strb.w	r3, [sp, #1]
 800a35e:	0c0b      	lsrs	r3, r1, #16
 800a360:	f88d 0002 	strb.w	r0, [sp, #2]
 800a364:	f88d 3003 	strb.w	r3, [sp, #3]
 800a368:	f88d 1005 	strb.w	r1, [sp, #5]
 800a36c:	0a0b      	lsrs	r3, r1, #8
 800a36e:	2206      	movs	r2, #6
 800a370:	4669      	mov	r1, sp
 800a372:	2094      	movs	r0, #148	; 0x94
 800a374:	f88d 3004 	strb.w	r3, [sp, #4]
 800a378:	f7ff ff82 	bl	800a280 <SUBGRF_WriteCommand>
 800a37c:	4b02      	ldr	r3, [pc, #8]	; (800a388 <SUBGRF_SetRxDutyCycle+0x38>)
 800a37e:	2206      	movs	r2, #6
 800a380:	701a      	strb	r2, [r3, #0]
 800a382:	b003      	add	sp, #12
 800a384:	f85d fb04 	ldr.w	pc, [sp], #4
 800a388:	20000d92 	.word	0x20000d92

0800a38c <SUBGRF_SetCad>:
 800a38c:	2200      	movs	r2, #0
 800a38e:	b508      	push	{r3, lr}
 800a390:	4611      	mov	r1, r2
 800a392:	20c5      	movs	r0, #197	; 0xc5
 800a394:	f7ff ff74 	bl	800a280 <SUBGRF_WriteCommand>
 800a398:	4b01      	ldr	r3, [pc, #4]	; (800a3a0 <SUBGRF_SetCad+0x14>)
 800a39a:	2207      	movs	r2, #7
 800a39c:	701a      	strb	r2, [r3, #0]
 800a39e:	bd08      	pop	{r3, pc}
 800a3a0:	20000d92 	.word	0x20000d92

0800a3a4 <SUBGRF_SetTxContinuousWave>:
 800a3a4:	2200      	movs	r2, #0
 800a3a6:	4611      	mov	r1, r2
 800a3a8:	20d1      	movs	r0, #209	; 0xd1
 800a3aa:	f7ff bf69 	b.w	800a280 <SUBGRF_WriteCommand>

0800a3ae <SUBGRF_SetTxInfinitePreamble>:
 800a3ae:	2200      	movs	r2, #0
 800a3b0:	4611      	mov	r1, r2
 800a3b2:	20d2      	movs	r0, #210	; 0xd2
 800a3b4:	f7ff bf64 	b.w	800a280 <SUBGRF_WriteCommand>

0800a3b8 <SUBGRF_SetStopRxTimerOnPreambleDetect>:
 800a3b8:	b507      	push	{r0, r1, r2, lr}
 800a3ba:	2201      	movs	r2, #1
 800a3bc:	f88d 0007 	strb.w	r0, [sp, #7]
 800a3c0:	f10d 0107 	add.w	r1, sp, #7
 800a3c4:	209f      	movs	r0, #159	; 0x9f
 800a3c6:	f7ff ff5b 	bl	800a280 <SUBGRF_WriteCommand>
 800a3ca:	b003      	add	sp, #12
 800a3cc:	f85d fb04 	ldr.w	pc, [sp], #4

0800a3d0 <SUBGRF_SetRegulatorMode>:
 800a3d0:	b507      	push	{r0, r1, r2, lr}
 800a3d2:	f001 facb 	bl	800b96c <RBI_IsDCDC>
 800a3d6:	1e43      	subs	r3, r0, #1
 800a3d8:	4258      	negs	r0, r3
 800a3da:	4158      	adcs	r0, r3
 800a3dc:	f88d 0007 	strb.w	r0, [sp, #7]
 800a3e0:	2201      	movs	r2, #1
 800a3e2:	f10d 0107 	add.w	r1, sp, #7
 800a3e6:	2096      	movs	r0, #150	; 0x96
 800a3e8:	f7ff ff4a 	bl	800a280 <SUBGRF_WriteCommand>
 800a3ec:	b003      	add	sp, #12
 800a3ee:	f85d fb04 	ldr.w	pc, [sp], #4

0800a3f2 <SUBGRF_Calibrate>:
 800a3f2:	b507      	push	{r0, r1, r2, lr}
 800a3f4:	f000 007f 	and.w	r0, r0, #127	; 0x7f
 800a3f8:	f88d 0007 	strb.w	r0, [sp, #7]
 800a3fc:	2201      	movs	r2, #1
 800a3fe:	f10d 0107 	add.w	r1, sp, #7
 800a402:	2089      	movs	r0, #137	; 0x89
 800a404:	f7ff ff3c 	bl	800a280 <SUBGRF_WriteCommand>
 800a408:	b003      	add	sp, #12
 800a40a:	f85d fb04 	ldr.w	pc, [sp], #4
	...

0800a410 <SUBGRF_CalibrateImage>:
 800a410:	4b18      	ldr	r3, [pc, #96]	; (800a474 <SUBGRF_CalibrateImage+0x64>)
 800a412:	4298      	cmp	r0, r3
 800a414:	b507      	push	{r0, r1, r2, lr}
 800a416:	d90d      	bls.n	800a434 <SUBGRF_CalibrateImage+0x24>
 800a418:	23e1      	movs	r3, #225	; 0xe1
 800a41a:	f88d 3004 	strb.w	r3, [sp, #4]
 800a41e:	23e9      	movs	r3, #233	; 0xe9
 800a420:	f88d 3005 	strb.w	r3, [sp, #5]
 800a424:	2202      	movs	r2, #2
 800a426:	a901      	add	r1, sp, #4
 800a428:	2098      	movs	r0, #152	; 0x98
 800a42a:	f7ff ff29 	bl	800a280 <SUBGRF_WriteCommand>
 800a42e:	b003      	add	sp, #12
 800a430:	f85d fb04 	ldr.w	pc, [sp], #4
 800a434:	4b10      	ldr	r3, [pc, #64]	; (800a478 <SUBGRF_CalibrateImage+0x68>)
 800a436:	4298      	cmp	r0, r3
 800a438:	d904      	bls.n	800a444 <SUBGRF_CalibrateImage+0x34>
 800a43a:	23d7      	movs	r3, #215	; 0xd7
 800a43c:	f88d 3004 	strb.w	r3, [sp, #4]
 800a440:	23db      	movs	r3, #219	; 0xdb
 800a442:	e7ed      	b.n	800a420 <SUBGRF_CalibrateImage+0x10>
 800a444:	4b0d      	ldr	r3, [pc, #52]	; (800a47c <SUBGRF_CalibrateImage+0x6c>)
 800a446:	4298      	cmp	r0, r3
 800a448:	d904      	bls.n	800a454 <SUBGRF_CalibrateImage+0x44>
 800a44a:	23c1      	movs	r3, #193	; 0xc1
 800a44c:	f88d 3004 	strb.w	r3, [sp, #4]
 800a450:	23c5      	movs	r3, #197	; 0xc5
 800a452:	e7e5      	b.n	800a420 <SUBGRF_CalibrateImage+0x10>
 800a454:	4b0a      	ldr	r3, [pc, #40]	; (800a480 <SUBGRF_CalibrateImage+0x70>)
 800a456:	4298      	cmp	r0, r3
 800a458:	d904      	bls.n	800a464 <SUBGRF_CalibrateImage+0x54>
 800a45a:	2375      	movs	r3, #117	; 0x75
 800a45c:	f88d 3004 	strb.w	r3, [sp, #4]
 800a460:	2381      	movs	r3, #129	; 0x81
 800a462:	e7dd      	b.n	800a420 <SUBGRF_CalibrateImage+0x10>
 800a464:	4b07      	ldr	r3, [pc, #28]	; (800a484 <SUBGRF_CalibrateImage+0x74>)
 800a466:	4298      	cmp	r0, r3
 800a468:	d9dc      	bls.n	800a424 <SUBGRF_CalibrateImage+0x14>
 800a46a:	236b      	movs	r3, #107	; 0x6b
 800a46c:	f88d 3004 	strb.w	r3, [sp, #4]
 800a470:	236f      	movs	r3, #111	; 0x6f
 800a472:	e7d5      	b.n	800a420 <SUBGRF_CalibrateImage+0x10>
 800a474:	35a4e900 	.word	0x35a4e900
 800a478:	32a9f880 	.word	0x32a9f880
 800a47c:	2de54480 	.word	0x2de54480
 800a480:	1b6b0b00 	.word	0x1b6b0b00
 800a484:	1954fc40 	.word	0x1954fc40

0800a488 <SUBGRF_SetPaConfig>:
 800a488:	b507      	push	{r0, r1, r2, lr}
 800a48a:	f88d 2006 	strb.w	r2, [sp, #6]
 800a48e:	2204      	movs	r2, #4
 800a490:	f88d 0004 	strb.w	r0, [sp, #4]
 800a494:	f88d 1005 	strb.w	r1, [sp, #5]
 800a498:	2095      	movs	r0, #149	; 0x95
 800a49a:	eb0d 0102 	add.w	r1, sp, r2
 800a49e:	f88d 3007 	strb.w	r3, [sp, #7]
 800a4a2:	f7ff feed 	bl	800a280 <SUBGRF_WriteCommand>
 800a4a6:	b003      	add	sp, #12
 800a4a8:	f85d fb04 	ldr.w	pc, [sp], #4

0800a4ac <SUBGRF_SetDioIrqParams>:
 800a4ac:	b513      	push	{r0, r1, r4, lr}
 800a4ae:	0a04      	lsrs	r4, r0, #8
 800a4b0:	f88d 0001 	strb.w	r0, [sp, #1]
 800a4b4:	f88d 1003 	strb.w	r1, [sp, #3]
 800a4b8:	0a08      	lsrs	r0, r1, #8
 800a4ba:	f88d 2005 	strb.w	r2, [sp, #5]
 800a4be:	0a11      	lsrs	r1, r2, #8
 800a4c0:	0a1a      	lsrs	r2, r3, #8
 800a4c2:	f88d 2006 	strb.w	r2, [sp, #6]
 800a4c6:	2208      	movs	r2, #8
 800a4c8:	f88d 0002 	strb.w	r0, [sp, #2]
 800a4cc:	f88d 1004 	strb.w	r1, [sp, #4]
 800a4d0:	4610      	mov	r0, r2
 800a4d2:	4669      	mov	r1, sp
 800a4d4:	f88d 4000 	strb.w	r4, [sp]
 800a4d8:	f88d 3007 	strb.w	r3, [sp, #7]
 800a4dc:	f7ff fed0 	bl	800a280 <SUBGRF_WriteCommand>
 800a4e0:	b002      	add	sp, #8
 800a4e2:	bd10      	pop	{r4, pc}

0800a4e4 <SUBGRF_SetTcxoMode>:
 800a4e4:	b507      	push	{r0, r1, r2, lr}
 800a4e6:	0c0b      	lsrs	r3, r1, #16
 800a4e8:	2204      	movs	r2, #4
 800a4ea:	f000 0007 	and.w	r0, r0, #7
 800a4ee:	f88d 0004 	strb.w	r0, [sp, #4]
 800a4f2:	f88d 3005 	strb.w	r3, [sp, #5]
 800a4f6:	f88d 1007 	strb.w	r1, [sp, #7]
 800a4fa:	0a0b      	lsrs	r3, r1, #8
 800a4fc:	2097      	movs	r0, #151	; 0x97
 800a4fe:	eb0d 0102 	add.w	r1, sp, r2
 800a502:	f88d 3006 	strb.w	r3, [sp, #6]
 800a506:	f7ff febb 	bl	800a280 <SUBGRF_WriteCommand>
 800a50a:	b003      	add	sp, #12
 800a50c:	f85d fb04 	ldr.w	pc, [sp], #4

0800a510 <SUBGRF_SetRfFrequency>:
 800a510:	b537      	push	{r0, r1, r2, r4, r5, lr}
 800a512:	4d10      	ldr	r5, [pc, #64]	; (800a554 <SUBGRF_SetRfFrequency+0x44>)
 800a514:	782b      	ldrb	r3, [r5, #0]
 800a516:	4604      	mov	r4, r0
 800a518:	b91b      	cbnz	r3, 800a522 <SUBGRF_SetRfFrequency+0x12>
 800a51a:	f7ff ff79 	bl	800a410 <SUBGRF_CalibrateImage>
 800a51e:	2301      	movs	r3, #1
 800a520:	702b      	strb	r3, [r5, #0]
 800a522:	4a0d      	ldr	r2, [pc, #52]	; (800a558 <SUBGRF_SetRfFrequency+0x48>)
 800a524:	2300      	movs	r3, #0
 800a526:	0660      	lsls	r0, r4, #25
 800a528:	09e1      	lsrs	r1, r4, #7
 800a52a:	f7f6 fb2d 	bl	8000b88 <__aeabi_uldivmod>
 800a52e:	0e03      	lsrs	r3, r0, #24
 800a530:	f88d 3004 	strb.w	r3, [sp, #4]
 800a534:	2204      	movs	r2, #4
 800a536:	0c03      	lsrs	r3, r0, #16
 800a538:	f88d 3005 	strb.w	r3, [sp, #5]
 800a53c:	f88d 0007 	strb.w	r0, [sp, #7]
 800a540:	0a03      	lsrs	r3, r0, #8
 800a542:	eb0d 0102 	add.w	r1, sp, r2
 800a546:	2086      	movs	r0, #134	; 0x86
 800a548:	f88d 3006 	strb.w	r3, [sp, #6]
 800a54c:	f7ff fe98 	bl	800a280 <SUBGRF_WriteCommand>
 800a550:	b003      	add	sp, #12
 800a552:	bd30      	pop	{r4, r5, pc}
 800a554:	20000d90 	.word	0x20000d90
 800a558:	01e84800 	.word	0x01e84800

0800a55c <SUBGRF_SetBufferBaseAddress>:
 800a55c:	b507      	push	{r0, r1, r2, lr}
 800a55e:	2202      	movs	r2, #2
 800a560:	f88d 0004 	strb.w	r0, [sp, #4]
 800a564:	f88d 1005 	strb.w	r1, [sp, #5]
 800a568:	208f      	movs	r0, #143	; 0x8f
 800a56a:	a901      	add	r1, sp, #4
 800a56c:	f7ff fe88 	bl	800a280 <SUBGRF_WriteCommand>
 800a570:	b003      	add	sp, #12
 800a572:	f85d fb04 	ldr.w	pc, [sp], #4

0800a576 <SUBGRF_GetRssiInst>:
 800a576:	b507      	push	{r0, r1, r2, lr}
 800a578:	2201      	movs	r2, #1
 800a57a:	a901      	add	r1, sp, #4
 800a57c:	2015      	movs	r0, #21
 800a57e:	f7ff fe8f 	bl	800a2a0 <SUBGRF_ReadCommand>
 800a582:	f89d 0004 	ldrb.w	r0, [sp, #4]
 800a586:	4240      	negs	r0, r0
 800a588:	1040      	asrs	r0, r0, #1
 800a58a:	b003      	add	sp, #12
 800a58c:	f85d fb04 	ldr.w	pc, [sp], #4

0800a590 <SUBGRF_GetPacketStatus>:
 800a590:	b513      	push	{r0, r1, r4, lr}
 800a592:	2203      	movs	r2, #3
 800a594:	4604      	mov	r4, r0
 800a596:	a901      	add	r1, sp, #4
 800a598:	2014      	movs	r0, #20
 800a59a:	f7ff fe81 	bl	800a2a0 <SUBGRF_ReadCommand>
 800a59e:	4b18      	ldr	r3, [pc, #96]	; (800a600 <SUBGRF_GetPacketStatus+0x70>)
 800a5a0:	781a      	ldrb	r2, [r3, #0]
 800a5a2:	7022      	strb	r2, [r4, #0]
 800a5a4:	b14a      	cbz	r2, 800a5ba <SUBGRF_GetPacketStatus+0x2a>
 800a5a6:	2a01      	cmp	r2, #1
 800a5a8:	d017      	beq.n	800a5da <SUBGRF_GetPacketStatus+0x4a>
 800a5aa:	2214      	movs	r2, #20
 800a5ac:	2100      	movs	r1, #0
 800a5ae:	4620      	mov	r0, r4
 800a5b0:	f001 f9ea 	bl	800b988 <UTIL_MEM_set_8>
 800a5b4:	230f      	movs	r3, #15
 800a5b6:	7023      	strb	r3, [r4, #0]
 800a5b8:	e00d      	b.n	800a5d6 <SUBGRF_GetPacketStatus+0x46>
 800a5ba:	f89d 3004 	ldrb.w	r3, [sp, #4]
 800a5be:	7123      	strb	r3, [r4, #4]
 800a5c0:	f89d 3005 	ldrb.w	r3, [sp, #5]
 800a5c4:	60a2      	str	r2, [r4, #8]
 800a5c6:	425b      	negs	r3, r3
 800a5c8:	105b      	asrs	r3, r3, #1
 800a5ca:	71a3      	strb	r3, [r4, #6]
 800a5cc:	f89d 3006 	ldrb.w	r3, [sp, #6]
 800a5d0:	425b      	negs	r3, r3
 800a5d2:	105b      	asrs	r3, r3, #1
 800a5d4:	7163      	strb	r3, [r4, #5]
 800a5d6:	b002      	add	sp, #8
 800a5d8:	bd10      	pop	{r4, pc}
 800a5da:	f89d 3004 	ldrb.w	r3, [sp, #4]
 800a5de:	425b      	negs	r3, r3
 800a5e0:	105b      	asrs	r3, r3, #1
 800a5e2:	7323      	strb	r3, [r4, #12]
 800a5e4:	f99d 3005 	ldrsb.w	r3, [sp, #5]
 800a5e8:	3302      	adds	r3, #2
 800a5ea:	109b      	asrs	r3, r3, #2
 800a5ec:	7363      	strb	r3, [r4, #13]
 800a5ee:	f89d 3006 	ldrb.w	r3, [sp, #6]
 800a5f2:	425b      	negs	r3, r3
 800a5f4:	105b      	asrs	r3, r3, #1
 800a5f6:	73a3      	strb	r3, [r4, #14]
 800a5f8:	4b02      	ldr	r3, [pc, #8]	; (800a604 <SUBGRF_GetPacketStatus+0x74>)
 800a5fa:	681b      	ldr	r3, [r3, #0]
 800a5fc:	6123      	str	r3, [r4, #16]
 800a5fe:	e7ea      	b.n	800a5d6 <SUBGRF_GetPacketStatus+0x46>
 800a600:	20000d93 	.word	0x20000d93
 800a604:	20000d8c 	.word	0x20000d8c

0800a608 <SUBGRF_WriteRegister>:
 800a608:	b507      	push	{r0, r1, r2, lr}
 800a60a:	2301      	movs	r3, #1
 800a60c:	f88d 1007 	strb.w	r1, [sp, #7]
 800a610:	f10d 0207 	add.w	r2, sp, #7
 800a614:	4601      	mov	r1, r0
 800a616:	4803      	ldr	r0, [pc, #12]	; (800a624 <SUBGRF_WriteRegister+0x1c>)
 800a618:	f7fd fea0 	bl	800835c <HAL_SUBGHZ_WriteRegisters>
 800a61c:	b003      	add	sp, #12
 800a61e:	f85d fb04 	ldr.w	pc, [sp], #4
 800a622:	bf00      	nop
 800a624:	20000a24 	.word	0x20000a24

0800a628 <SUBGRF_SetRxBoosted>:
 800a628:	b513      	push	{r0, r1, r4, lr}
 800a62a:	4b0c      	ldr	r3, [pc, #48]	; (800a65c <SUBGRF_SetRxBoosted+0x34>)
 800a62c:	4604      	mov	r4, r0
 800a62e:	2205      	movs	r2, #5
 800a630:	2197      	movs	r1, #151	; 0x97
 800a632:	f640 00ac 	movw	r0, #2220	; 0x8ac
 800a636:	701a      	strb	r2, [r3, #0]
 800a638:	f7ff ffe6 	bl	800a608 <SUBGRF_WriteRegister>
 800a63c:	0c23      	lsrs	r3, r4, #16
 800a63e:	f88d 3004 	strb.w	r3, [sp, #4]
 800a642:	2203      	movs	r2, #3
 800a644:	0a23      	lsrs	r3, r4, #8
 800a646:	a901      	add	r1, sp, #4
 800a648:	2082      	movs	r0, #130	; 0x82
 800a64a:	f88d 3005 	strb.w	r3, [sp, #5]
 800a64e:	f88d 4006 	strb.w	r4, [sp, #6]
 800a652:	f7ff fe15 	bl	800a280 <SUBGRF_WriteCommand>
 800a656:	b002      	add	sp, #8
 800a658:	bd10      	pop	{r4, pc}
 800a65a:	bf00      	nop
 800a65c:	20000d92 	.word	0x20000d92

0800a660 <SUBGRF_SetLoRaSymbNumTimeout>:
 800a660:	b507      	push	{r0, r1, r2, lr}
 800a662:	2201      	movs	r2, #1
 800a664:	f88d 0007 	strb.w	r0, [sp, #7]
 800a668:	f10d 0107 	add.w	r1, sp, #7
 800a66c:	20a0      	movs	r0, #160	; 0xa0
 800a66e:	f7ff fe07 	bl	800a280 <SUBGRF_WriteCommand>
 800a672:	f89d 1007 	ldrb.w	r1, [sp, #7]
 800a676:	293f      	cmp	r1, #63	; 0x3f
 800a678:	d907      	bls.n	800a68a <SUBGRF_SetLoRaSymbNumTimeout+0x2a>
 800a67a:	f001 01f8 	and.w	r1, r1, #248	; 0xf8
 800a67e:	3101      	adds	r1, #1
 800a680:	b2c9      	uxtb	r1, r1
 800a682:	f240 7006 	movw	r0, #1798	; 0x706
 800a686:	f7ff ffbf 	bl	800a608 <SUBGRF_WriteRegister>
 800a68a:	b003      	add	sp, #12
 800a68c:	f85d fb04 	ldr.w	pc, [sp], #4

0800a690 <SUBGRF_SetPacketType>:
 800a690:	b507      	push	{r0, r1, r2, lr}
 800a692:	4b09      	ldr	r3, [pc, #36]	; (800a6b8 <SUBGRF_SetPacketType+0x28>)
 800a694:	f88d 0007 	strb.w	r0, [sp, #7]
 800a698:	4601      	mov	r1, r0
 800a69a:	7018      	strb	r0, [r3, #0]
 800a69c:	b918      	cbnz	r0, 800a6a6 <SUBGRF_SetPacketType+0x16>
 800a69e:	f240 60ac 	movw	r0, #1708	; 0x6ac
 800a6a2:	f7ff ffb1 	bl	800a608 <SUBGRF_WriteRegister>
 800a6a6:	2201      	movs	r2, #1
 800a6a8:	f10d 0107 	add.w	r1, sp, #7
 800a6ac:	208a      	movs	r0, #138	; 0x8a
 800a6ae:	f7ff fde7 	bl	800a280 <SUBGRF_WriteCommand>
 800a6b2:	b003      	add	sp, #12
 800a6b4:	f85d fb04 	ldr.w	pc, [sp], #4
 800a6b8:	20000d93 	.word	0x20000d93

0800a6bc <SUBGRF_SetModulationParams>:
 800a6bc:	b513      	push	{r0, r1, r4, lr}
 800a6be:	4a36      	ldr	r2, [pc, #216]	; (800a798 <SUBGRF_SetModulationParams+0xdc>)
 800a6c0:	4604      	mov	r4, r0
 800a6c2:	6851      	ldr	r1, [r2, #4]
 800a6c4:	6810      	ldr	r0, [r2, #0]
 800a6c6:	466b      	mov	r3, sp
 800a6c8:	c303      	stmia	r3!, {r0, r1}
 800a6ca:	4b34      	ldr	r3, [pc, #208]	; (800a79c <SUBGRF_SetModulationParams+0xe0>)
 800a6cc:	7820      	ldrb	r0, [r4, #0]
 800a6ce:	781b      	ldrb	r3, [r3, #0]
 800a6d0:	4283      	cmp	r3, r0
 800a6d2:	d001      	beq.n	800a6d8 <SUBGRF_SetModulationParams+0x1c>
 800a6d4:	f7ff ffdc 	bl	800a690 <SUBGRF_SetPacketType>
 800a6d8:	7823      	ldrb	r3, [r4, #0]
 800a6da:	2b03      	cmp	r3, #3
 800a6dc:	d829      	bhi.n	800a732 <SUBGRF_SetModulationParams+0x76>
 800a6de:	e8df f003 	tbb	[pc, r3]
 800a6e2:	3b02      	.short	0x3b02
 800a6e4:	462a      	.short	0x462a
 800a6e6:	6862      	ldr	r2, [r4, #4]
 800a6e8:	4b2d      	ldr	r3, [pc, #180]	; (800a7a0 <SUBGRF_SetModulationParams+0xe4>)
 800a6ea:	fbb3 f3f2 	udiv	r3, r3, r2
 800a6ee:	0c1a      	lsrs	r2, r3, #16
 800a6f0:	68a1      	ldr	r1, [r4, #8]
 800a6f2:	f88d 2000 	strb.w	r2, [sp]
 800a6f6:	f88d 3002 	strb.w	r3, [sp, #2]
 800a6fa:	0a1a      	lsrs	r2, r3, #8
 800a6fc:	7b23      	ldrb	r3, [r4, #12]
 800a6fe:	f88d 3003 	strb.w	r3, [sp, #3]
 800a702:	7b63      	ldrb	r3, [r4, #13]
 800a704:	f88d 2001 	strb.w	r2, [sp, #1]
 800a708:	f88d 3004 	strb.w	r3, [sp, #4]
 800a70c:	4a25      	ldr	r2, [pc, #148]	; (800a7a4 <SUBGRF_SetModulationParams+0xe8>)
 800a70e:	2300      	movs	r3, #0
 800a710:	0648      	lsls	r0, r1, #25
 800a712:	09c9      	lsrs	r1, r1, #7
 800a714:	f7f6 fa38 	bl	8000b88 <__aeabi_uldivmod>
 800a718:	0c03      	lsrs	r3, r0, #16
 800a71a:	f88d 3005 	strb.w	r3, [sp, #5]
 800a71e:	0a03      	lsrs	r3, r0, #8
 800a720:	f88d 3006 	strb.w	r3, [sp, #6]
 800a724:	f88d 0007 	strb.w	r0, [sp, #7]
 800a728:	2208      	movs	r2, #8
 800a72a:	4669      	mov	r1, sp
 800a72c:	208b      	movs	r0, #139	; 0x8b
 800a72e:	f7ff fda7 	bl	800a280 <SUBGRF_WriteCommand>
 800a732:	b002      	add	sp, #8
 800a734:	bd10      	pop	{r4, pc}
 800a736:	6922      	ldr	r2, [r4, #16]
 800a738:	4b19      	ldr	r3, [pc, #100]	; (800a7a0 <SUBGRF_SetModulationParams+0xe4>)
 800a73a:	fbb3 f3f2 	udiv	r3, r3, r2
 800a73e:	0c1a      	lsrs	r2, r3, #16
 800a740:	f88d 2000 	strb.w	r2, [sp]
 800a744:	f88d 3002 	strb.w	r3, [sp, #2]
 800a748:	0a1a      	lsrs	r2, r3, #8
 800a74a:	7d23      	ldrb	r3, [r4, #20]
 800a74c:	f88d 2001 	strb.w	r2, [sp, #1]
 800a750:	f88d 3003 	strb.w	r3, [sp, #3]
 800a754:	2204      	movs	r2, #4
 800a756:	e7e8      	b.n	800a72a <SUBGRF_SetModulationParams+0x6e>
 800a758:	7e23      	ldrb	r3, [r4, #24]
 800a75a:	f88d 3000 	strb.w	r3, [sp]
 800a75e:	7e63      	ldrb	r3, [r4, #25]
 800a760:	f88d 3001 	strb.w	r3, [sp, #1]
 800a764:	7ea3      	ldrb	r3, [r4, #26]
 800a766:	f88d 3002 	strb.w	r3, [sp, #2]
 800a76a:	7ee3      	ldrb	r3, [r4, #27]
 800a76c:	e7f0      	b.n	800a750 <SUBGRF_SetModulationParams+0x94>
 800a76e:	6862      	ldr	r2, [r4, #4]
 800a770:	4b0b      	ldr	r3, [pc, #44]	; (800a7a0 <SUBGRF_SetModulationParams+0xe4>)
 800a772:	fbb3 f3f2 	udiv	r3, r3, r2
 800a776:	0c1a      	lsrs	r2, r3, #16
 800a778:	f88d 2000 	strb.w	r2, [sp]
 800a77c:	f88d 3002 	strb.w	r3, [sp, #2]
 800a780:	0a1a      	lsrs	r2, r3, #8
 800a782:	7b23      	ldrb	r3, [r4, #12]
 800a784:	f88d 3003 	strb.w	r3, [sp, #3]
 800a788:	7b63      	ldrb	r3, [r4, #13]
 800a78a:	f88d 2001 	strb.w	r2, [sp, #1]
 800a78e:	f88d 3004 	strb.w	r3, [sp, #4]
 800a792:	2205      	movs	r2, #5
 800a794:	e7c9      	b.n	800a72a <SUBGRF_SetModulationParams+0x6e>
 800a796:	bf00      	nop
 800a798:	0800e864 	.word	0x0800e864
 800a79c:	20000d93 	.word	0x20000d93
 800a7a0:	3d090000 	.word	0x3d090000
 800a7a4:	01e84800 	.word	0x01e84800

0800a7a8 <SUBGRF_ReadRegister>:
 800a7a8:	b507      	push	{r0, r1, r2, lr}
 800a7aa:	2301      	movs	r3, #1
 800a7ac:	4601      	mov	r1, r0
 800a7ae:	f10d 0207 	add.w	r2, sp, #7
 800a7b2:	4804      	ldr	r0, [pc, #16]	; (800a7c4 <SUBGRF_ReadRegister+0x1c>)
 800a7b4:	f7fd fe0b 	bl	80083ce <HAL_SUBGHZ_ReadRegisters>
 800a7b8:	f89d 0007 	ldrb.w	r0, [sp, #7]
 800a7bc:	b003      	add	sp, #12
 800a7be:	f85d fb04 	ldr.w	pc, [sp], #4
 800a7c2:	bf00      	nop
 800a7c4:	20000a24 	.word	0x20000a24

0800a7c8 <Radio_SMPS_Set>:
 800a7c8:	b510      	push	{r4, lr}
 800a7ca:	4604      	mov	r4, r0
 800a7cc:	f001 f8ce 	bl	800b96c <RBI_IsDCDC>
 800a7d0:	2801      	cmp	r0, #1
 800a7d2:	d10c      	bne.n	800a7ee <Radio_SMPS_Set+0x26>
 800a7d4:	f640 1023 	movw	r0, #2339	; 0x923
 800a7d8:	f7ff ffe6 	bl	800a7a8 <SUBGRF_ReadRegister>
 800a7dc:	f000 01f9 	and.w	r1, r0, #249	; 0xf9
 800a7e0:	4321      	orrs	r1, r4
 800a7e2:	f640 1023 	movw	r0, #2339	; 0x923
 800a7e6:	e8bd 4010 	ldmia.w	sp!, {r4, lr}
 800a7ea:	f7ff bf0d 	b.w	800a608 <SUBGRF_WriteRegister>
 800a7ee:	bd10      	pop	{r4, pc}

0800a7f0 <SUBGRF_Init>:
 800a7f0:	b510      	push	{r4, lr}
 800a7f2:	b108      	cbz	r0, 800a7f8 <SUBGRF_Init+0x8>
 800a7f4:	4b16      	ldr	r3, [pc, #88]	; (800a850 <SUBGRF_Init+0x60>)
 800a7f6:	6018      	str	r0, [r3, #0]
 800a7f8:	f7fb f966 	bl	8005ac8 <MX_SUBGHZ_Init>
 800a7fc:	2002      	movs	r0, #2
 800a7fe:	f7ff ffe3 	bl	800a7c8 <Radio_SMPS_Set>
 800a802:	2400      	movs	r4, #0
 800a804:	4b13      	ldr	r3, [pc, #76]	; (800a854 <SUBGRF_Init+0x64>)
 800a806:	4620      	mov	r0, r4
 800a808:	701c      	strb	r4, [r3, #0]
 800a80a:	f7ff fd5f 	bl	800a2cc <SUBGRF_SetStandby>
 800a80e:	f001 f8ab 	bl	800b968 <RBI_IsTCXO>
 800a812:	2801      	cmp	r0, #1
 800a814:	d111      	bne.n	800a83a <SUBGRF_Init+0x4a>
 800a816:	2140      	movs	r1, #64	; 0x40
 800a818:	f7ff fe64 	bl	800a4e4 <SUBGRF_SetTcxoMode>
 800a81c:	f640 1011 	movw	r0, #2321	; 0x911
 800a820:	4621      	mov	r1, r4
 800a822:	f7ff fef1 	bl	800a608 <SUBGRF_WriteRegister>
 800a826:	f04f 007f 	mov.w	r0, #127	; 0x7f
 800a82a:	f7ff fde2 	bl	800a3f2 <SUBGRF_Calibrate>
 800a82e:	f001 f895 	bl	800b95c <RBI_Init>
 800a832:	4b09      	ldr	r3, [pc, #36]	; (800a858 <SUBGRF_Init+0x68>)
 800a834:	2201      	movs	r2, #1
 800a836:	701a      	strb	r2, [r3, #0]
 800a838:	bd10      	pop	{r4, pc}
 800a83a:	2120      	movs	r1, #32
 800a83c:	f640 1011 	movw	r0, #2321	; 0x911
 800a840:	f7ff fee2 	bl	800a608 <SUBGRF_WriteRegister>
 800a844:	2120      	movs	r1, #32
 800a846:	f640 1012 	movw	r0, #2322	; 0x912
 800a84a:	f7ff fedd 	bl	800a608 <SUBGRF_WriteRegister>
 800a84e:	e7ee      	b.n	800a82e <SUBGRF_Init+0x3e>
 800a850:	20000d94 	.word	0x20000d94
 800a854:	20000d90 	.word	0x20000d90
 800a858:	20000d92 	.word	0x20000d92

0800a85c <SUBGRF_SetSleep>:
 800a85c:	b513      	push	{r0, r1, r4, lr}
 800a85e:	4604      	mov	r4, r0
 800a860:	2000      	movs	r0, #0
 800a862:	f001 f87d 	bl	800b960 <RBI_ConfigRFSwitch>
 800a866:	2002      	movs	r0, #2
 800a868:	f7ff ffae 	bl	800a7c8 <Radio_SMPS_Set>
 800a86c:	f004 0407 	and.w	r4, r4, #7
 800a870:	2201      	movs	r2, #1
 800a872:	f10d 0107 	add.w	r1, sp, #7
 800a876:	2084      	movs	r0, #132	; 0x84
 800a878:	f88d 4007 	strb.w	r4, [sp, #7]
 800a87c:	f7ff fd00 	bl	800a280 <SUBGRF_WriteCommand>
 800a880:	4b02      	ldr	r3, [pc, #8]	; (800a88c <SUBGRF_SetSleep+0x30>)
 800a882:	2200      	movs	r2, #0
 800a884:	701a      	strb	r2, [r3, #0]
 800a886:	b002      	add	sp, #8
 800a888:	bd10      	pop	{r4, pc}
 800a88a:	bf00      	nop
 800a88c:	20000d92 	.word	0x20000d92

0800a890 <SUBGRF_SetWhiteningSeed>:
 800a890:	b510      	push	{r4, lr}
 800a892:	4b0c      	ldr	r3, [pc, #48]	; (800a8c4 <SUBGRF_SetWhiteningSeed+0x34>)
 800a894:	781b      	ldrb	r3, [r3, #0]
 800a896:	4604      	mov	r4, r0
 800a898:	b99b      	cbnz	r3, 800a8c2 <SUBGRF_SetWhiteningSeed+0x32>
 800a89a:	f44f 60d7 	mov.w	r0, #1720	; 0x6b8
 800a89e:	f7ff ff83 	bl	800a7a8 <SUBGRF_ReadRegister>
 800a8a2:	f3c4 2100 	ubfx	r1, r4, #8, #1
 800a8a6:	f000 00fe 	and.w	r0, r0, #254	; 0xfe
 800a8aa:	4301      	orrs	r1, r0
 800a8ac:	f44f 60d7 	mov.w	r0, #1720	; 0x6b8
 800a8b0:	f7ff feaa 	bl	800a608 <SUBGRF_WriteRegister>
 800a8b4:	b2e1      	uxtb	r1, r4
 800a8b6:	f240 60b9 	movw	r0, #1721	; 0x6b9
 800a8ba:	e8bd 4010 	ldmia.w	sp!, {r4, lr}
 800a8be:	f7ff bea3 	b.w	800a608 <SUBGRF_WriteRegister>
 800a8c2:	bd10      	pop	{r4, pc}
 800a8c4:	20000d93 	.word	0x20000d93

0800a8c8 <SUBGRF_SetTxParams>:
 800a8c8:	2801      	cmp	r0, #1
 800a8ca:	b573      	push	{r0, r1, r4, r5, r6, lr}
 800a8cc:	460c      	mov	r4, r1
 800a8ce:	4616      	mov	r6, r2
 800a8d0:	d137      	bne.n	800a942 <SUBGRF_SetTxParams+0x7a>
 800a8d2:	2000      	movs	r0, #0
 800a8d4:	f001 f84c 	bl	800b970 <RBI_GetRFOMaxPowerConfig>
 800a8d8:	42a0      	cmp	r0, r4
 800a8da:	bfb8      	it	lt
 800a8dc:	b244      	sxtblt	r4, r0
 800a8de:	280e      	cmp	r0, #14
 800a8e0:	4605      	mov	r5, r0
 800a8e2:	d11a      	bne.n	800a91a <SUBGRF_SetTxParams+0x52>
 800a8e4:	2301      	movs	r3, #1
 800a8e6:	461a      	mov	r2, r3
 800a8e8:	2100      	movs	r1, #0
 800a8ea:	2004      	movs	r0, #4
 800a8ec:	f7ff fdcc 	bl	800a488 <SUBGRF_SetPaConfig>
 800a8f0:	f06f 0110 	mvn.w	r1, #16
 800a8f4:	428c      	cmp	r4, r1
 800a8f6:	bfb8      	it	lt
 800a8f8:	460c      	movlt	r4, r1
 800a8fa:	2118      	movs	r1, #24
 800a8fc:	f640 00e7 	movw	r0, #2279	; 0x8e7
 800a900:	f7ff fe82 	bl	800a608 <SUBGRF_WriteRegister>
 800a904:	2202      	movs	r2, #2
 800a906:	a901      	add	r1, sp, #4
 800a908:	208e      	movs	r0, #142	; 0x8e
 800a90a:	f88d 4004 	strb.w	r4, [sp, #4]
 800a90e:	f88d 6005 	strb.w	r6, [sp, #5]
 800a912:	f7ff fcb5 	bl	800a280 <SUBGRF_WriteCommand>
 800a916:	b002      	add	sp, #8
 800a918:	bd70      	pop	{r4, r5, r6, pc}
 800a91a:	2301      	movs	r3, #1
 800a91c:	280a      	cmp	r0, #10
 800a91e:	b2e4      	uxtb	r4, r4
 800a920:	461a      	mov	r2, r3
 800a922:	f04f 0100 	mov.w	r1, #0
 800a926:	d105      	bne.n	800a934 <SUBGRF_SetTxParams+0x6c>
 800a928:	4618      	mov	r0, r3
 800a92a:	f7ff fdad 	bl	800a488 <SUBGRF_SetPaConfig>
 800a92e:	3403      	adds	r4, #3
 800a930:	b264      	sxtb	r4, r4
 800a932:	e7dd      	b.n	800a8f0 <SUBGRF_SetTxParams+0x28>
 800a934:	2006      	movs	r0, #6
 800a936:	f1c5 050e 	rsb	r5, r5, #14
 800a93a:	f7ff fda5 	bl	800a488 <SUBGRF_SetPaConfig>
 800a93e:	442c      	add	r4, r5
 800a940:	e7f6      	b.n	800a930 <SUBGRF_SetTxParams+0x68>
 800a942:	f640 00d8 	movw	r0, #2264	; 0x8d8
 800a946:	f7ff ff2f 	bl	800a7a8 <SUBGRF_ReadRegister>
 800a94a:	f040 011e 	orr.w	r1, r0, #30
 800a94e:	b2c9      	uxtb	r1, r1
 800a950:	f640 00d8 	movw	r0, #2264	; 0x8d8
 800a954:	f7ff fe58 	bl	800a608 <SUBGRF_WriteRegister>
 800a958:	2001      	movs	r0, #1
 800a95a:	f001 f809 	bl	800b970 <RBI_GetRFOMaxPowerConfig>
 800a95e:	42a0      	cmp	r0, r4
 800a960:	bfb8      	it	lt
 800a962:	b244      	sxtblt	r4, r0
 800a964:	2814      	cmp	r0, #20
 800a966:	4605      	mov	r5, r0
 800a968:	f04f 0301 	mov.w	r3, #1
 800a96c:	f04f 0200 	mov.w	r2, #0
 800a970:	d106      	bne.n	800a980 <SUBGRF_SetTxParams+0xb8>
 800a972:	2105      	movs	r1, #5
 800a974:	2003      	movs	r0, #3
 800a976:	f7ff fd87 	bl	800a488 <SUBGRF_SetPaConfig>
 800a97a:	3402      	adds	r4, #2
 800a97c:	b264      	sxtb	r4, r4
 800a97e:	e00d      	b.n	800a99c <SUBGRF_SetTxParams+0xd4>
 800a980:	2811      	cmp	r0, #17
 800a982:	d105      	bne.n	800a990 <SUBGRF_SetTxParams+0xc8>
 800a984:	2103      	movs	r1, #3
 800a986:	2002      	movs	r0, #2
 800a988:	f7ff fd7e 	bl	800a488 <SUBGRF_SetPaConfig>
 800a98c:	3405      	adds	r4, #5
 800a98e:	e7f5      	b.n	800a97c <SUBGRF_SetTxParams+0xb4>
 800a990:	280e      	cmp	r0, #14
 800a992:	d10a      	bne.n	800a9aa <SUBGRF_SetTxParams+0xe2>
 800a994:	2102      	movs	r1, #2
 800a996:	4608      	mov	r0, r1
 800a998:	f7ff fd76 	bl	800a488 <SUBGRF_SetPaConfig>
 800a99c:	f06f 0108 	mvn.w	r1, #8
 800a9a0:	428c      	cmp	r4, r1
 800a9a2:	bfb8      	it	lt
 800a9a4:	460c      	movlt	r4, r1
 800a9a6:	2138      	movs	r1, #56	; 0x38
 800a9a8:	e7a8      	b.n	800a8fc <SUBGRF_SetTxParams+0x34>
 800a9aa:	2107      	movs	r1, #7
 800a9ac:	2004      	movs	r0, #4
 800a9ae:	f1c5 0516 	rsb	r5, r5, #22
 800a9b2:	f7ff fd69 	bl	800a488 <SUBGRF_SetPaConfig>
 800a9b6:	442c      	add	r4, r5
 800a9b8:	e7e0      	b.n	800a97c <SUBGRF_SetTxParams+0xb4>
	...

0800a9bc <SUBGRF_GetRxBufferStatus>:
 800a9bc:	b537      	push	{r0, r1, r2, r4, r5, lr}
 800a9be:	4604      	mov	r4, r0
 800a9c0:	460d      	mov	r5, r1
 800a9c2:	2202      	movs	r2, #2
 800a9c4:	a901      	add	r1, sp, #4
 800a9c6:	2013      	movs	r0, #19
 800a9c8:	f7ff fc6a 	bl	800a2a0 <SUBGRF_ReadCommand>
 800a9cc:	4b0a      	ldr	r3, [pc, #40]	; (800a9f8 <SUBGRF_GetRxBufferStatus+0x3c>)
 800a9ce:	781b      	ldrb	r3, [r3, #0]
 800a9d0:	2b01      	cmp	r3, #1
 800a9d2:	d10d      	bne.n	800a9f0 <SUBGRF_GetRxBufferStatus+0x34>
 800a9d4:	4b09      	ldr	r3, [pc, #36]	; (800a9fc <SUBGRF_GetRxBufferStatus+0x40>)
 800a9d6:	781b      	ldrb	r3, [r3, #0]
 800a9d8:	2b01      	cmp	r3, #1
 800a9da:	d109      	bne.n	800a9f0 <SUBGRF_GetRxBufferStatus+0x34>
 800a9dc:	f240 7002 	movw	r0, #1794	; 0x702
 800a9e0:	f7ff fee2 	bl	800a7a8 <SUBGRF_ReadRegister>
 800a9e4:	7020      	strb	r0, [r4, #0]
 800a9e6:	f89d 3005 	ldrb.w	r3, [sp, #5]
 800a9ea:	702b      	strb	r3, [r5, #0]
 800a9ec:	b003      	add	sp, #12
 800a9ee:	bd30      	pop	{r4, r5, pc}
 800a9f0:	f89d 3004 	ldrb.w	r3, [sp, #4]
 800a9f4:	7023      	strb	r3, [r4, #0]
 800a9f6:	e7f6      	b.n	800a9e6 <SUBGRF_GetRxBufferStatus+0x2a>
 800a9f8:	20000d93 	.word	0x20000d93
 800a9fc:	20000d91 	.word	0x20000d91

0800aa00 <SUBGRF_WriteRegisters>:
 800aa00:	b510      	push	{r4, lr}
 800aa02:	4613      	mov	r3, r2
 800aa04:	f3ef 8410 	mrs	r4, PRIMASK
 800aa08:	b672      	cpsid	i
 800aa0a:	460a      	mov	r2, r1
 800aa0c:	4601      	mov	r1, r0
 800aa0e:	4803      	ldr	r0, [pc, #12]	; (800aa1c <SUBGRF_WriteRegisters+0x1c>)
 800aa10:	f7fd fca4 	bl	800835c <HAL_SUBGHZ_WriteRegisters>
 800aa14:	f384 8810 	msr	PRIMASK, r4
 800aa18:	bd10      	pop	{r4, pc}
 800aa1a:	bf00      	nop
 800aa1c:	20000a24 	.word	0x20000a24

0800aa20 <SUBGRF_SetSyncWord>:
 800aa20:	b508      	push	{r3, lr}
 800aa22:	4601      	mov	r1, r0
 800aa24:	2208      	movs	r2, #8
 800aa26:	f44f 60d8 	mov.w	r0, #1728	; 0x6c0
 800aa2a:	f7ff ffe9 	bl	800aa00 <SUBGRF_WriteRegisters>
 800aa2e:	2000      	movs	r0, #0
 800aa30:	bd08      	pop	{r3, pc}
	...

0800aa34 <SUBGRF_SetCrcSeed>:
 800aa34:	b507      	push	{r0, r1, r2, lr}
 800aa36:	0a03      	lsrs	r3, r0, #8
 800aa38:	f88d 3004 	strb.w	r3, [sp, #4]
 800aa3c:	4b06      	ldr	r3, [pc, #24]	; (800aa58 <SUBGRF_SetCrcSeed+0x24>)
 800aa3e:	f88d 0005 	strb.w	r0, [sp, #5]
 800aa42:	781b      	ldrb	r3, [r3, #0]
 800aa44:	b92b      	cbnz	r3, 800aa52 <SUBGRF_SetCrcSeed+0x1e>
 800aa46:	2202      	movs	r2, #2
 800aa48:	a901      	add	r1, sp, #4
 800aa4a:	f240 60bc 	movw	r0, #1724	; 0x6bc
 800aa4e:	f7ff ffd7 	bl	800aa00 <SUBGRF_WriteRegisters>
 800aa52:	b003      	add	sp, #12
 800aa54:	f85d fb04 	ldr.w	pc, [sp], #4
 800aa58:	20000d93 	.word	0x20000d93

0800aa5c <SUBGRF_SetCrcPolynomial>:
 800aa5c:	b507      	push	{r0, r1, r2, lr}
 800aa5e:	0a03      	lsrs	r3, r0, #8
 800aa60:	f88d 3004 	strb.w	r3, [sp, #4]
 800aa64:	4b06      	ldr	r3, [pc, #24]	; (800aa80 <SUBGRF_SetCrcPolynomial+0x24>)
 800aa66:	f88d 0005 	strb.w	r0, [sp, #5]
 800aa6a:	781b      	ldrb	r3, [r3, #0]
 800aa6c:	b92b      	cbnz	r3, 800aa7a <SUBGRF_SetCrcPolynomial+0x1e>
 800aa6e:	2202      	movs	r2, #2
 800aa70:	a901      	add	r1, sp, #4
 800aa72:	f240 60be 	movw	r0, #1726	; 0x6be
 800aa76:	f7ff ffc3 	bl	800aa00 <SUBGRF_WriteRegisters>
 800aa7a:	b003      	add	sp, #12
 800aa7c:	f85d fb04 	ldr.w	pc, [sp], #4
 800aa80:	20000d93 	.word	0x20000d93

0800aa84 <SUBGRF_SetPacketParams>:
 800aa84:	b51f      	push	{r0, r1, r2, r3, r4, lr}
 800aa86:	4a35      	ldr	r2, [pc, #212]	; (800ab5c <SUBGRF_SetPacketParams+0xd8>)
 800aa88:	4604      	mov	r4, r0
 800aa8a:	68d1      	ldr	r1, [r2, #12]
 800aa8c:	6890      	ldr	r0, [r2, #8]
 800aa8e:	7c12      	ldrb	r2, [r2, #16]
 800aa90:	ab01      	add	r3, sp, #4
 800aa92:	c303      	stmia	r3!, {r0, r1}
 800aa94:	701a      	strb	r2, [r3, #0]
 800aa96:	4b32      	ldr	r3, [pc, #200]	; (800ab60 <SUBGRF_SetPacketParams+0xdc>)
 800aa98:	7820      	ldrb	r0, [r4, #0]
 800aa9a:	781b      	ldrb	r3, [r3, #0]
 800aa9c:	4283      	cmp	r3, r0
 800aa9e:	d001      	beq.n	800aaa4 <SUBGRF_SetPacketParams+0x20>
 800aaa0:	f7ff fdf6 	bl	800a690 <SUBGRF_SetPacketType>
 800aaa4:	7823      	ldrb	r3, [r4, #0]
 800aaa6:	2b03      	cmp	r3, #3
 800aaa8:	d82e      	bhi.n	800ab08 <SUBGRF_SetPacketParams+0x84>
 800aaaa:	e8df f003 	tbb	[pc, r3]
 800aaae:	4002      	.short	0x4002
 800aab0:	023b      	.short	0x023b
 800aab2:	7a63      	ldrb	r3, [r4, #9]
 800aab4:	2bf1      	cmp	r3, #241	; 0xf1
 800aab6:	d129      	bne.n	800ab0c <SUBGRF_SetPacketParams+0x88>
 800aab8:	f64f 70ff 	movw	r0, #65535	; 0xffff
 800aabc:	f7ff ffba 	bl	800aa34 <SUBGRF_SetCrcSeed>
 800aac0:	f248 0005 	movw	r0, #32773	; 0x8005
 800aac4:	f7ff ffca 	bl	800aa5c <SUBGRF_SetCrcPolynomial>
 800aac8:	2302      	movs	r3, #2
 800aaca:	8862      	ldrh	r2, [r4, #2]
 800aacc:	f88d 2005 	strb.w	r2, [sp, #5]
 800aad0:	0a11      	lsrs	r1, r2, #8
 800aad2:	7922      	ldrb	r2, [r4, #4]
 800aad4:	f88d 2006 	strb.w	r2, [sp, #6]
 800aad8:	7962      	ldrb	r2, [r4, #5]
 800aada:	f88d 2007 	strb.w	r2, [sp, #7]
 800aade:	79a2      	ldrb	r2, [r4, #6]
 800aae0:	f88d 2008 	strb.w	r2, [sp, #8]
 800aae4:	79e2      	ldrb	r2, [r4, #7]
 800aae6:	f88d 2009 	strb.w	r2, [sp, #9]
 800aaea:	f88d 300b 	strb.w	r3, [sp, #11]
 800aaee:	7a22      	ldrb	r2, [r4, #8]
 800aaf0:	7aa3      	ldrb	r3, [r4, #10]
 800aaf2:	f88d 200a 	strb.w	r2, [sp, #10]
 800aaf6:	f88d 1004 	strb.w	r1, [sp, #4]
 800aafa:	f88d 300c 	strb.w	r3, [sp, #12]
 800aafe:	2209      	movs	r2, #9
 800ab00:	a901      	add	r1, sp, #4
 800ab02:	208c      	movs	r0, #140	; 0x8c
 800ab04:	f7ff fbbc 	bl	800a280 <SUBGRF_WriteCommand>
 800ab08:	b004      	add	sp, #16
 800ab0a:	bd10      	pop	{r4, pc}
 800ab0c:	2bf2      	cmp	r3, #242	; 0xf2
 800ab0e:	d1dc      	bne.n	800aaca <SUBGRF_SetPacketParams+0x46>
 800ab10:	f641 500f 	movw	r0, #7439	; 0x1d0f
 800ab14:	f7ff ff8e 	bl	800aa34 <SUBGRF_SetCrcSeed>
 800ab18:	f241 0021 	movw	r0, #4129	; 0x1021
 800ab1c:	f7ff ff9e 	bl	800aa5c <SUBGRF_SetCrcPolynomial>
 800ab20:	2306      	movs	r3, #6
 800ab22:	e7d2      	b.n	800aaca <SUBGRF_SetPacketParams+0x46>
 800ab24:	7b23      	ldrb	r3, [r4, #12]
 800ab26:	f88d 3004 	strb.w	r3, [sp, #4]
 800ab2a:	2201      	movs	r2, #1
 800ab2c:	e7e8      	b.n	800ab00 <SUBGRF_SetPacketParams+0x7c>
 800ab2e:	89e3      	ldrh	r3, [r4, #14]
 800ab30:	f88d 3005 	strb.w	r3, [sp, #5]
 800ab34:	0a1a      	lsrs	r2, r3, #8
 800ab36:	f88d 2004 	strb.w	r2, [sp, #4]
 800ab3a:	4a0a      	ldr	r2, [pc, #40]	; (800ab64 <SUBGRF_SetPacketParams+0xe0>)
 800ab3c:	7c23      	ldrb	r3, [r4, #16]
 800ab3e:	7013      	strb	r3, [r2, #0]
 800ab40:	f88d 3006 	strb.w	r3, [sp, #6]
 800ab44:	7c63      	ldrb	r3, [r4, #17]
 800ab46:	f88d 3007 	strb.w	r3, [sp, #7]
 800ab4a:	7ca3      	ldrb	r3, [r4, #18]
 800ab4c:	f88d 3008 	strb.w	r3, [sp, #8]
 800ab50:	7ce3      	ldrb	r3, [r4, #19]
 800ab52:	f88d 3009 	strb.w	r3, [sp, #9]
 800ab56:	2206      	movs	r2, #6
 800ab58:	e7d2      	b.n	800ab00 <SUBGRF_SetPacketParams+0x7c>
 800ab5a:	bf00      	nop
 800ab5c:	0800e864 	.word	0x0800e864
 800ab60:	20000d93 	.word	0x20000d93
 800ab64:	20000d91 	.word	0x20000d91

0800ab68 <SUBGRF_ReadRegisters>:
 800ab68:	b510      	push	{r4, lr}
 800ab6a:	4613      	mov	r3, r2
 800ab6c:	f3ef 8410 	mrs	r4, PRIMASK
 800ab70:	b672      	cpsid	i
 800ab72:	460a      	mov	r2, r1
 800ab74:	4601      	mov	r1, r0
 800ab76:	4803      	ldr	r0, [pc, #12]	; (800ab84 <SUBGRF_ReadRegisters+0x1c>)
 800ab78:	f7fd fc29 	bl	80083ce <HAL_SUBGHZ_ReadRegisters>
 800ab7c:	f384 8810 	msr	PRIMASK, r4
 800ab80:	bd10      	pop	{r4, pc}
 800ab82:	bf00      	nop
 800ab84:	20000a24 	.word	0x20000a24

0800ab88 <SUBGRF_GetRandom>:
 800ab88:	b573      	push	{r0, r1, r4, r5, r6, lr}
 800ab8a:	2600      	movs	r6, #0
 800ab8c:	f640 00e2 	movw	r0, #2274	; 0x8e2
 800ab90:	9601      	str	r6, [sp, #4]
 800ab92:	f7ff fe09 	bl	800a7a8 <SUBGRF_ReadRegister>
 800ab96:	f000 01fe 	and.w	r1, r0, #254	; 0xfe
 800ab9a:	4605      	mov	r5, r0
 800ab9c:	f640 00e2 	movw	r0, #2274	; 0x8e2
 800aba0:	f7ff fd32 	bl	800a608 <SUBGRF_WriteRegister>
 800aba4:	f640 00e5 	movw	r0, #2277	; 0x8e5
 800aba8:	f7ff fdfe 	bl	800a7a8 <SUBGRF_ReadRegister>
 800abac:	f000 017f 	and.w	r1, r0, #127	; 0x7f
 800abb0:	4604      	mov	r4, r0
 800abb2:	f640 00e5 	movw	r0, #2277	; 0x8e5
 800abb6:	f7ff fd27 	bl	800a608 <SUBGRF_WriteRegister>
 800abba:	f06f 407f 	mvn.w	r0, #4278190080	; 0xff000000
 800abbe:	f7ff fbb1 	bl	800a324 <SUBGRF_SetRx>
 800abc2:	2204      	movs	r2, #4
 800abc4:	eb0d 0102 	add.w	r1, sp, r2
 800abc8:	f640 0019 	movw	r0, #2073	; 0x819
 800abcc:	f7ff ffcc 	bl	800ab68 <SUBGRF_ReadRegisters>
 800abd0:	4630      	mov	r0, r6
 800abd2:	f7ff fb7b 	bl	800a2cc <SUBGRF_SetStandby>
 800abd6:	4629      	mov	r1, r5
 800abd8:	f640 00e2 	movw	r0, #2274	; 0x8e2
 800abdc:	f7ff fd14 	bl	800a608 <SUBGRF_WriteRegister>
 800abe0:	4621      	mov	r1, r4
 800abe2:	f640 00e5 	movw	r0, #2277	; 0x8e5
 800abe6:	f7ff fd0f 	bl	800a608 <SUBGRF_WriteRegister>
 800abea:	9801      	ldr	r0, [sp, #4]
 800abec:	b002      	add	sp, #8
 800abee:	bd70      	pop	{r4, r5, r6, pc}

0800abf0 <SUBGRF_WriteBuffer>:
 800abf0:	b510      	push	{r4, lr}
 800abf2:	4613      	mov	r3, r2
 800abf4:	f3ef 8410 	mrs	r4, PRIMASK
 800abf8:	b672      	cpsid	i
 800abfa:	460a      	mov	r2, r1
 800abfc:	4601      	mov	r1, r0
 800abfe:	4803      	ldr	r0, [pc, #12]	; (800ac0c <SUBGRF_WriteBuffer+0x1c>)
 800ac00:	f7fd fcd3 	bl	80085aa <HAL_SUBGHZ_WriteBuffer>
 800ac04:	f384 8810 	msr	PRIMASK, r4
 800ac08:	bd10      	pop	{r4, pc}
 800ac0a:	bf00      	nop
 800ac0c:	20000a24 	.word	0x20000a24

0800ac10 <SUBGRF_SetPayload>:
 800ac10:	460a      	mov	r2, r1
 800ac12:	4601      	mov	r1, r0
 800ac14:	2000      	movs	r0, #0
 800ac16:	f7ff bfeb 	b.w	800abf0 <SUBGRF_WriteBuffer>

0800ac1a <SUBGRF_SendPayload>:
 800ac1a:	b510      	push	{r4, lr}
 800ac1c:	4614      	mov	r4, r2
 800ac1e:	f7ff fff7 	bl	800ac10 <SUBGRF_SetPayload>
 800ac22:	4620      	mov	r0, r4
 800ac24:	e8bd 4010 	ldmia.w	sp!, {r4, lr}
 800ac28:	f7ff bb66 	b.w	800a2f8 <SUBGRF_SetTx>

0800ac2c <SUBGRF_ReadBuffer>:
 800ac2c:	b510      	push	{r4, lr}
 800ac2e:	4613      	mov	r3, r2
 800ac30:	f3ef 8410 	mrs	r4, PRIMASK
 800ac34:	b672      	cpsid	i
 800ac36:	460a      	mov	r2, r1
 800ac38:	4601      	mov	r1, r0
 800ac3a:	4803      	ldr	r0, [pc, #12]	; (800ac48 <SUBGRF_ReadBuffer+0x1c>)
 800ac3c:	f7fd fce8 	bl	8008610 <HAL_SUBGHZ_ReadBuffer>
 800ac40:	f384 8810 	msr	PRIMASK, r4
 800ac44:	bd10      	pop	{r4, pc}
 800ac46:	bf00      	nop
 800ac48:	20000a24 	.word	0x20000a24

0800ac4c <SUBGRF_GetPayload>:
 800ac4c:	b5f7      	push	{r0, r1, r2, r4, r5, r6, r7, lr}
 800ac4e:	460d      	mov	r5, r1
 800ac50:	4606      	mov	r6, r0
 800ac52:	2400      	movs	r4, #0
 800ac54:	f10d 0107 	add.w	r1, sp, #7
 800ac58:	4628      	mov	r0, r5
 800ac5a:	4617      	mov	r7, r2
 800ac5c:	f88d 4007 	strb.w	r4, [sp, #7]
 800ac60:	f7ff feac 	bl	800a9bc <SUBGRF_GetRxBufferStatus>
 800ac64:	782a      	ldrb	r2, [r5, #0]
 800ac66:	42ba      	cmp	r2, r7
 800ac68:	d807      	bhi.n	800ac7a <SUBGRF_GetPayload+0x2e>
 800ac6a:	f89d 0007 	ldrb.w	r0, [sp, #7]
 800ac6e:	4631      	mov	r1, r6
 800ac70:	f7ff ffdc 	bl	800ac2c <SUBGRF_ReadBuffer>
 800ac74:	4620      	mov	r0, r4
 800ac76:	b003      	add	sp, #12
 800ac78:	bdf0      	pop	{r4, r5, r6, r7, pc}
 800ac7a:	2001      	movs	r0, #1
 800ac7c:	e7fb      	b.n	800ac76 <SUBGRF_GetPayload+0x2a>

0800ac7e <SUBGRF_SetSwitch>:
 800ac7e:	2901      	cmp	r1, #1
 800ac80:	b508      	push	{r3, lr}
 800ac82:	4603      	mov	r3, r0
 800ac84:	4608      	mov	r0, r1
 800ac86:	d10e      	bne.n	800aca6 <SUBGRF_SetSwitch+0x28>
 800ac88:	2b01      	cmp	r3, #1
 800ac8a:	d107      	bne.n	800ac9c <SUBGRF_SetSwitch+0x1e>
 800ac8c:	2004      	movs	r0, #4
 800ac8e:	f7ff fd9b 	bl	800a7c8 <Radio_SMPS_Set>
 800ac92:	2002      	movs	r0, #2
 800ac94:	e8bd 4008 	ldmia.w	sp!, {r3, lr}
 800ac98:	f000 be62 	b.w	800b960 <RBI_ConfigRFSwitch>
 800ac9c:	2b02      	cmp	r3, #2
 800ac9e:	bf14      	ite	ne
 800aca0:	4608      	movne	r0, r1
 800aca2:	2003      	moveq	r0, #3
 800aca4:	e7f6      	b.n	800ac94 <SUBGRF_SetSwitch+0x16>
 800aca6:	2001      	movs	r0, #1
 800aca8:	e7f4      	b.n	800ac94 <SUBGRF_SetSwitch+0x16>

0800acaa <SUBGRF_SetRfTxPower>:
 800acaa:	b538      	push	{r3, r4, r5, lr}
 800acac:	4604      	mov	r4, r0
 800acae:	f000 fe59 	bl	800b964 <RBI_GetTxConfig>
 800acb2:	b150      	cbz	r0, 800acca <SUBGRF_SetRfTxPower+0x20>
 800acb4:	2802      	cmp	r0, #2
 800acb6:	bf14      	ite	ne
 800acb8:	2501      	movne	r5, #1
 800acba:	2502      	moveq	r5, #2
 800acbc:	4628      	mov	r0, r5
 800acbe:	2202      	movs	r2, #2
 800acc0:	4621      	mov	r1, r4
 800acc2:	f7ff fe01 	bl	800a8c8 <SUBGRF_SetTxParams>
 800acc6:	4628      	mov	r0, r5
 800acc8:	bd38      	pop	{r3, r4, r5, pc}
 800acca:	2c0f      	cmp	r4, #15
 800accc:	bfcc      	ite	gt
 800acce:	2502      	movgt	r5, #2
 800acd0:	2501      	movle	r5, #1
 800acd2:	e7f3      	b.n	800acbc <SUBGRF_SetRfTxPower+0x12>

0800acd4 <SUBGRF_GetRadioWakeUpTime>:
 800acd4:	2001      	movs	r0, #1
 800acd6:	4770      	bx	lr

0800acd8 <HAL_SUBGHZ_TxCpltCallback>:
 800acd8:	4b01      	ldr	r3, [pc, #4]	; (800ace0 <HAL_SUBGHZ_TxCpltCallback+0x8>)
 800acda:	2001      	movs	r0, #1
 800acdc:	681b      	ldr	r3, [r3, #0]
 800acde:	4718      	bx	r3
 800ace0:	20000d94 	.word	0x20000d94

0800ace4 <HAL_SUBGHZ_RxCpltCallback>:
 800ace4:	4b01      	ldr	r3, [pc, #4]	; (800acec <HAL_SUBGHZ_RxCpltCallback+0x8>)
 800ace6:	2002      	movs	r0, #2
 800ace8:	681b      	ldr	r3, [r3, #0]
 800acea:	4718      	bx	r3
 800acec:	20000d94 	.word	0x20000d94

0800acf0 <HAL_SUBGHZ_CRCErrorCallback>:
 800acf0:	4b01      	ldr	r3, [pc, #4]	; (800acf8 <HAL_SUBGHZ_CRCErrorCallback+0x8>)
 800acf2:	2040      	movs	r0, #64	; 0x40
 800acf4:	681b      	ldr	r3, [r3, #0]
 800acf6:	4718      	bx	r3
 800acf8:	20000d94 	.word	0x20000d94

0800acfc <HAL_SUBGHZ_CADStatusCallback>:
 800acfc:	b111      	cbz	r1, 800ad04 <HAL_SUBGHZ_CADStatusCallback+0x8>
 800acfe:	2901      	cmp	r1, #1
 800ad00:	d004      	beq.n	800ad0c <HAL_SUBGHZ_CADStatusCallback+0x10>
 800ad02:	4770      	bx	lr
 800ad04:	4b04      	ldr	r3, [pc, #16]	; (800ad18 <HAL_SUBGHZ_CADStatusCallback+0x1c>)
 800ad06:	681b      	ldr	r3, [r3, #0]
 800ad08:	2080      	movs	r0, #128	; 0x80
 800ad0a:	4718      	bx	r3
 800ad0c:	4b02      	ldr	r3, [pc, #8]	; (800ad18 <HAL_SUBGHZ_CADStatusCallback+0x1c>)
 800ad0e:	f44f 7080 	mov.w	r0, #256	; 0x100
 800ad12:	681b      	ldr	r3, [r3, #0]
 800ad14:	e7f9      	b.n	800ad0a <HAL_SUBGHZ_CADStatusCallback+0xe>
 800ad16:	bf00      	nop
 800ad18:	20000d94 	.word	0x20000d94

0800ad1c <HAL_SUBGHZ_RxTxTimeoutCallback>:
 800ad1c:	4b02      	ldr	r3, [pc, #8]	; (800ad28 <HAL_SUBGHZ_RxTxTimeoutCallback+0xc>)
 800ad1e:	f44f 7000 	mov.w	r0, #512	; 0x200
 800ad22:	681b      	ldr	r3, [r3, #0]
 800ad24:	4718      	bx	r3
 800ad26:	bf00      	nop
 800ad28:	20000d94 	.word	0x20000d94

0800ad2c <HAL_SUBGHZ_HeaderErrorCallback>:
 800ad2c:	4b01      	ldr	r3, [pc, #4]	; (800ad34 <HAL_SUBGHZ_HeaderErrorCallback+0x8>)
 800ad2e:	2020      	movs	r0, #32
 800ad30:	681b      	ldr	r3, [r3, #0]
 800ad32:	4718      	bx	r3
 800ad34:	20000d94 	.word	0x20000d94

0800ad38 <HAL_SUBGHZ_PreambleDetectedCallback>:
 800ad38:	4b01      	ldr	r3, [pc, #4]	; (800ad40 <HAL_SUBGHZ_PreambleDetectedCallback+0x8>)
 800ad3a:	2004      	movs	r0, #4
 800ad3c:	681b      	ldr	r3, [r3, #0]
 800ad3e:	4718      	bx	r3
 800ad40:	20000d94 	.word	0x20000d94

0800ad44 <HAL_SUBGHZ_SyncWordValidCallback>:
 800ad44:	4b01      	ldr	r3, [pc, #4]	; (800ad4c <HAL_SUBGHZ_SyncWordValidCallback+0x8>)
 800ad46:	2008      	movs	r0, #8
 800ad48:	681b      	ldr	r3, [r3, #0]
 800ad4a:	4718      	bx	r3
 800ad4c:	20000d94 	.word	0x20000d94

0800ad50 <HAL_SUBGHZ_HeaderValidCallback>:
 800ad50:	4b01      	ldr	r3, [pc, #4]	; (800ad58 <HAL_SUBGHZ_HeaderValidCallback+0x8>)
 800ad52:	2010      	movs	r0, #16
 800ad54:	681b      	ldr	r3, [r3, #0]
 800ad56:	4718      	bx	r3
 800ad58:	20000d94 	.word	0x20000d94

0800ad5c <SUBGRF_GetFskBandwidthRegValue>:
 800ad5c:	b168      	cbz	r0, 800ad7a <SUBGRF_GetFskBandwidthRegValue+0x1e>
 800ad5e:	4a08      	ldr	r2, [pc, #32]	; (800ad80 <SUBGRF_GetFskBandwidthRegValue+0x24>)
 800ad60:	2300      	movs	r3, #0
 800ad62:	f852 1033 	ldr.w	r1, [r2, r3, lsl #3]
 800ad66:	4281      	cmp	r1, r0
 800ad68:	d903      	bls.n	800ad72 <SUBGRF_GetFskBandwidthRegValue+0x16>
 800ad6a:	eb02 03c3 	add.w	r3, r2, r3, lsl #3
 800ad6e:	7918      	ldrb	r0, [r3, #4]
 800ad70:	4770      	bx	lr
 800ad72:	3301      	adds	r3, #1
 800ad74:	2b16      	cmp	r3, #22
 800ad76:	d1f4      	bne.n	800ad62 <SUBGRF_GetFskBandwidthRegValue+0x6>
 800ad78:	e7fe      	b.n	800ad78 <SUBGRF_GetFskBandwidthRegValue+0x1c>
 800ad7a:	201f      	movs	r0, #31
 800ad7c:	4770      	bx	lr
 800ad7e:	bf00      	nop
 800ad80:	08010ebc 	.word	0x08010ebc

0800ad84 <SUBGRF_GetCFO>:
 800ad84:	b573      	push	{r0, r1, r4, r5, r6, lr}
 800ad86:	4b1d      	ldr	r3, [pc, #116]	; (800adfc <SUBGRF_GetCFO+0x78>)
 800ad88:	9301      	str	r3, [sp, #4]
 800ad8a:	4606      	mov	r6, r0
 800ad8c:	f640 0007 	movw	r0, #2055	; 0x807
 800ad90:	460d      	mov	r5, r1
 800ad92:	f7ff fd09 	bl	800a7a8 <SUBGRF_ReadRegister>
 800ad96:	f3c0 03c1 	ubfx	r3, r0, #3, #2
 800ad9a:	3308      	adds	r3, #8
 800ad9c:	446b      	add	r3, sp
 800ad9e:	f813 4c04 	ldrb.w	r4, [r3, #-4]
 800ada2:	f000 0307 	and.w	r3, r0, #7
 800ada6:	3b01      	subs	r3, #1
 800ada8:	fa04 f303 	lsl.w	r3, r4, r3
 800adac:	4c14      	ldr	r4, [pc, #80]	; (800ae00 <SUBGRF_GetCFO+0x7c>)
 800adae:	fbb4 f4f3 	udiv	r4, r4, r3
 800adb2:	fbb4 f0f6 	udiv	r0, r4, r6
 800adb6:	2807      	cmp	r0, #7
 800adb8:	d81d      	bhi.n	800adf6 <SUBGRF_GetCFO+0x72>
 800adba:	0040      	lsls	r0, r0, #1
 800adbc:	2803      	cmp	r0, #3
 800adbe:	bf8c      	ite	hi
 800adc0:	2302      	movhi	r3, #2
 800adc2:	2304      	movls	r3, #4
 800adc4:	f44f 60d6 	mov.w	r0, #1712	; 0x6b0
 800adc8:	435c      	muls	r4, r3
 800adca:	f7ff fced 	bl	800a7a8 <SUBGRF_ReadRegister>
 800adce:	0200      	lsls	r0, r0, #8
 800add0:	f400 6670 	and.w	r6, r0, #3840	; 0xf00
 800add4:	f240 60b1 	movw	r0, #1713	; 0x6b1
 800add8:	f7ff fce6 	bl	800a7a8 <SUBGRF_ReadRegister>
 800addc:	4330      	orrs	r0, r6
 800adde:	0503      	lsls	r3, r0, #20
 800ade0:	bf44      	itt	mi
 800ade2:	ea6f 5000 	mvnmi.w	r0, r0, lsl #20
 800ade6:	ea6f 5010 	mvnmi.w	r0, r0, lsr #20
 800adea:	0963      	lsrs	r3, r4, #5
 800adec:	4343      	muls	r3, r0
 800adee:	11db      	asrs	r3, r3, #7
 800adf0:	602b      	str	r3, [r5, #0]
 800adf2:	b002      	add	sp, #8
 800adf4:	bd70      	pop	{r4, r5, r6, pc}
 800adf6:	2301      	movs	r3, #1
 800adf8:	e7e4      	b.n	800adc4 <SUBGRF_GetCFO+0x40>
 800adfa:	bf00      	nop
 800adfc:	0c0a0804 	.word	0x0c0a0804
 800ae00:	01e84800 	.word	0x01e84800

0800ae04 <RFW_TransmitLongPacket>:
 800ae04:	f04f 30ff 	mov.w	r0, #4294967295	; 0xffffffff
 800ae08:	4770      	bx	lr

0800ae0a <RFW_ReceiveLongPacket>:
 800ae0a:	f04f 30ff 	mov.w	r0, #4294967295	; 0xffffffff
 800ae0e:	4770      	bx	lr

0800ae10 <RFW_Init>:
 800ae10:	f04f 30ff 	mov.w	r0, #4294967295	; 0xffffffff
 800ae14:	4770      	bx	lr

0800ae16 <RFW_DeInit>:
 800ae16:	4770      	bx	lr

0800ae18 <RFW_Is_Init>:
 800ae18:	2000      	movs	r0, #0
 800ae1a:	4770      	bx	lr

0800ae1c <RFW_Is_LongPacketModeEnabled>:
 800ae1c:	2000      	movs	r0, #0
 800ae1e:	4770      	bx	lr

0800ae20 <RFW_SetAntSwitch>:
 800ae20:	4770      	bx	lr

0800ae22 <RFW_TransmitInit>:
 800ae22:	f04f 30ff 	mov.w	r0, #4294967295	; 0xffffffff
 800ae26:	4770      	bx	lr

0800ae28 <RFW_ReceiveInit>:
 800ae28:	f04f 30ff 	mov.w	r0, #4294967295	; 0xffffffff
 800ae2c:	4770      	bx	lr

0800ae2e <RFW_DeInit_TxLongPacket>:
 800ae2e:	4770      	bx	lr

0800ae30 <RFW_ReceivePayload>:
 800ae30:	4770      	bx	lr

0800ae32 <RFW_SetRadioModem>:
 800ae32:	4770      	bx	lr

0800ae34 <OnTxTimeout>:
 800ae34:	4770      	bx	lr

0800ae36 <OnRxTimeout>:
 800ae36:	4770      	bx	lr

0800ae38 <OnRxError>:
 800ae38:	4770      	bx	lr
	...

0800ae3c <OnRxDone>:
 800ae3c:	e92d 43f8 	stmdb	sp!, {r3, r4, r5, r6, r7, r8, r9, lr}
 800ae40:	f8df 9098 	ldr.w	r9, [pc, #152]	; 800aedc <OnRxDone+0xa0>
 800ae44:	f8df 8098 	ldr.w	r8, [pc, #152]	; 800aee0 <OnRxDone+0xa4>
 800ae48:	461e      	mov	r6, r3
 800ae4a:	f8d9 3000 	ldr.w	r3, [r9]
 800ae4e:	4617      	mov	r7, r2
 800ae50:	785a      	ldrb	r2, [r3, #1]
 800ae52:	f8d8 3000 	ldr.w	r3, [r8]
 800ae56:	f853 3022 	ldr.w	r3, [r3, r2, lsl #2]
 800ae5a:	7d5b      	ldrb	r3, [r3, #21]
 800ae5c:	2b01      	cmp	r3, #1
 800ae5e:	4604      	mov	r4, r0
 800ae60:	d10d      	bne.n	800ae7e <OnRxDone+0x42>
 800ae62:	4d20      	ldr	r5, [pc, #128]	; (800aee4 <OnRxDone+0xa8>)
 800ae64:	4628      	mov	r0, r5
 800ae66:	f7fd fc67 	bl	8008738 <HAL_TIM_Base_Stop_IT>
 800ae6a:	682a      	ldr	r2, [r5, #0]
 800ae6c:	2300      	movs	r3, #0
 800ae6e:	6253      	str	r3, [r2, #36]	; 0x24
 800ae70:	f242 730f 	movw	r3, #9999	; 0x270f
 800ae74:	62d3      	str	r3, [r2, #44]	; 0x2c
 800ae76:	4628      	mov	r0, r5
 800ae78:	60eb      	str	r3, [r5, #12]
 800ae7a:	f7fd fc01 	bl	8008680 <HAL_TIM_Base_Start>
 800ae7e:	4620      	mov	r0, r4
 800ae80:	4c19      	ldr	r4, [pc, #100]	; (800aee8 <OnRxDone+0xac>)
 800ae82:	f100 030c 	add.w	r3, r0, #12
 800ae86:	4621      	mov	r1, r4
 800ae88:	f850 2b04 	ldr.w	r2, [r0], #4
 800ae8c:	f844 2b04 	str.w	r2, [r4], #4
 800ae90:	4298      	cmp	r0, r3
 800ae92:	d1f9      	bne.n	800ae88 <OnRxDone+0x4c>
 800ae94:	7803      	ldrb	r3, [r0, #0]
 800ae96:	7023      	strb	r3, [r4, #0]
 800ae98:	4c14      	ldr	r4, [pc, #80]	; (800aeec <OnRxDone+0xb0>)
 800ae9a:	780b      	ldrb	r3, [r1, #0]
 800ae9c:	7820      	ldrb	r0, [r4, #0]
 800ae9e:	734f      	strb	r7, [r1, #13]
 800aea0:	f003 0307 	and.w	r3, r3, #7
 800aea4:	4298      	cmp	r0, r3
 800aea6:	738e      	strb	r6, [r1, #14]
 800aea8:	d104      	bne.n	800aeb4 <OnRxDone+0x78>
 800aeaa:	784b      	ldrb	r3, [r1, #1]
 800aeac:	06db      	lsls	r3, r3, #27
 800aeae:	d501      	bpl.n	800aeb4 <OnRxDone+0x78>
 800aeb0:	f7f8 f876 	bl	8002fa0 <rx_to_devices>
 800aeb4:	f8d9 3000 	ldr.w	r3, [r9]
 800aeb8:	785a      	ldrb	r2, [r3, #1]
 800aeba:	f8d8 3000 	ldr.w	r3, [r8]
 800aebe:	f853 3022 	ldr.w	r3, [r3, r2, lsl #2]
 800aec2:	7ddb      	ldrb	r3, [r3, #23]
 800aec4:	b113      	cbz	r3, 800aecc <OnRxDone+0x90>
 800aec6:	7820      	ldrb	r0, [r4, #0]
 800aec8:	f7f8 f8ca 	bl	8003060 <calc_relative_position>
 800aecc:	e8bd 43f8 	ldmia.w	sp!, {r3, r4, r5, r6, r7, r8, r9, lr}
 800aed0:	4805      	ldr	r0, [pc, #20]	; (800aee8 <OnRxDone+0xac>)
 800aed2:	220f      	movs	r2, #15
 800aed4:	2100      	movs	r1, #0
 800aed6:	f000 bed9 	b.w	800bc8c <memset>
 800aeda:	bf00      	nop
 800aedc:	20001164 	.word	0x20001164
 800aee0:	20001170 	.word	0x20001170
 800aee4:	20000acc 	.word	0x20000acc
 800aee8:	20001140 	.word	0x20001140
 800aeec:	200011fc 	.word	0x200011fc

0800aef0 <OnTxDone>:
 800aef0:	4b02      	ldr	r3, [pc, #8]	; (800aefc <OnTxDone+0xc>)
 800aef2:	2201      	movs	r2, #1
 800aef4:	701a      	strb	r2, [r3, #0]
 800aef6:	f7f7 bf4f 	b.w	8002d98 <led_red_off>
 800aefa:	bf00      	nop
 800aefc:	20000578 	.word	0x20000578

0800af00 <HAL_GPIO_EXTI_Callback>:
 800af00:	2810      	cmp	r0, #16
 800af02:	e92d 41f0 	stmdb	sp!, {r4, r5, r6, r7, r8, lr}
 800af06:	4604      	mov	r4, r0
 800af08:	d036      	beq.n	800af78 <HAL_GPIO_EXTI_Callback+0x78>
 800af0a:	d805      	bhi.n	800af18 <HAL_GPIO_EXTI_Callback+0x18>
 800af0c:	2801      	cmp	r0, #1
 800af0e:	d01a      	beq.n	800af46 <HAL_GPIO_EXTI_Callback+0x46>
 800af10:	2802      	cmp	r0, #2
 800af12:	d018      	beq.n	800af46 <HAL_GPIO_EXTI_Callback+0x46>
 800af14:	e8bd 81f0 	ldmia.w	sp!, {r4, r5, r6, r7, r8, pc}
 800af18:	2820      	cmp	r0, #32
 800af1a:	d024      	beq.n	800af66 <HAL_GPIO_EXTI_Callback+0x66>
 800af1c:	f5b0 5f80 	cmp.w	r0, #4096	; 0x1000
 800af20:	d1f8      	bne.n	800af14 <HAL_GPIO_EXTI_Callback+0x14>
 800af22:	4b4e      	ldr	r3, [pc, #312]	; (800b05c <HAL_GPIO_EXTI_Callback+0x15c>)
 800af24:	691b      	ldr	r3, [r3, #16]
 800af26:	04db      	lsls	r3, r3, #19
 800af28:	d4f4      	bmi.n	800af14 <HAL_GPIO_EXTI_Callback+0x14>
 800af2a:	4b4d      	ldr	r3, [pc, #308]	; (800b060 <HAL_GPIO_EXTI_Callback+0x160>)
 800af2c:	681b      	ldr	r3, [r3, #0]
 800af2e:	785b      	ldrb	r3, [r3, #1]
 800af30:	2b01      	cmp	r3, #1
 800af32:	4b4c      	ldr	r3, [pc, #304]	; (800b064 <HAL_GPIO_EXTI_Callback+0x164>)
 800af34:	bf0c      	ite	eq
 800af36:	2202      	moveq	r2, #2
 800af38:	2201      	movne	r2, #1
 800af3a:	681b      	ldr	r3, [r3, #0]
 800af3c:	f853 3022 	ldr.w	r3, [r3, r2, lsl #2]
 800af40:	2201      	movs	r2, #1
 800af42:	721a      	strb	r2, [r3, #8]
 800af44:	e7e6      	b.n	800af14 <HAL_GPIO_EXTI_Callback+0x14>
 800af46:	4b48      	ldr	r3, [pc, #288]	; (800b068 <HAL_GPIO_EXTI_Callback+0x168>)
 800af48:	2200      	movs	r2, #0
 800af4a:	701a      	strb	r2, [r3, #0]
 800af4c:	f7f7 f9c0 	bl	80022d0 <disable_buttons_interrupts>
 800af50:	4b46      	ldr	r3, [pc, #280]	; (800b06c <HAL_GPIO_EXTI_Callback+0x16c>)
 800af52:	701c      	strb	r4, [r3, #0]
 800af54:	4846      	ldr	r0, [pc, #280]	; (800b070 <HAL_GPIO_EXTI_Callback+0x170>)
 800af56:	6803      	ldr	r3, [r0, #0]
 800af58:	f06f 0201 	mvn.w	r2, #1
 800af5c:	e8bd 41f0 	ldmia.w	sp!, {r4, r5, r6, r7, r8, lr}
 800af60:	611a      	str	r2, [r3, #16]
 800af62:	f7fd bbc3 	b.w	80086ec <HAL_TIM_Base_Start_IT>
 800af66:	4b40      	ldr	r3, [pc, #256]	; (800b068 <HAL_GPIO_EXTI_Callback+0x168>)
 800af68:	2200      	movs	r2, #0
 800af6a:	701a      	strb	r2, [r3, #0]
 800af6c:	f7f7 f9b0 	bl	80022d0 <disable_buttons_interrupts>
 800af70:	4b3e      	ldr	r3, [pc, #248]	; (800b06c <HAL_GPIO_EXTI_Callback+0x16c>)
 800af72:	2203      	movs	r2, #3
 800af74:	701a      	strb	r2, [r3, #0]
 800af76:	e7ed      	b.n	800af54 <HAL_GPIO_EXTI_Callback+0x54>
 800af78:	4d39      	ldr	r5, [pc, #228]	; (800b060 <HAL_GPIO_EXTI_Callback+0x160>)
 800af7a:	682b      	ldr	r3, [r5, #0]
 800af7c:	7858      	ldrb	r0, [r3, #1]
 800af7e:	f7f8 f9e7 	bl	8003350 <getADC_sensors>
 800af82:	4a39      	ldr	r2, [pc, #228]	; (800b068 <HAL_GPIO_EXTI_Callback+0x168>)
 800af84:	7813      	ldrb	r3, [r2, #0]
 800af86:	2b3c      	cmp	r3, #60	; 0x3c
 800af88:	d847      	bhi.n	800b01a <HAL_GPIO_EXTI_Callback+0x11a>
 800af8a:	3301      	adds	r3, #1
 800af8c:	7013      	strb	r3, [r2, #0]
 800af8e:	4a39      	ldr	r2, [pc, #228]	; (800b074 <HAL_GPIO_EXTI_Callback+0x174>)
 800af90:	682b      	ldr	r3, [r5, #0]
 800af92:	7c14      	ldrb	r4, [r2, #16]
 800af94:	789b      	ldrb	r3, [r3, #2]
 800af96:	fbb4 f2f3 	udiv	r2, r4, r3
 800af9a:	fb03 4412 	mls	r4, r3, r2, r4
 800af9e:	f014 04ff 	ands.w	r4, r4, #255	; 0xff
 800afa2:	f8df 80d4 	ldr.w	r8, [pc, #212]	; 800b078 <HAL_GPIO_EXTI_Callback+0x178>
 800afa6:	4e35      	ldr	r6, [pc, #212]	; (800b07c <HAL_GPIO_EXTI_Callback+0x17c>)
 800afa8:	d117      	bne.n	800afda <HAL_GPIO_EXTI_Callback+0xda>
 800afaa:	4f35      	ldr	r7, [pc, #212]	; (800b080 <HAL_GPIO_EXTI_Callback+0x180>)
 800afac:	4638      	mov	r0, r7
 800afae:	f7fd fbc3 	bl	8008738 <HAL_TIM_Base_Stop_IT>
 800afb2:	4b34      	ldr	r3, [pc, #208]	; (800b084 <HAL_GPIO_EXTI_Callback+0x184>)
 800afb4:	f888 4000 	strb.w	r4, [r8]
 800afb8:	2201      	movs	r2, #1
 800afba:	701a      	strb	r2, [r3, #0]
 800afbc:	683b      	ldr	r3, [r7, #0]
 800afbe:	73b4      	strb	r4, [r6, #14]
 800afc0:	f06f 0201 	mvn.w	r2, #1
 800afc4:	625c      	str	r4, [r3, #36]	; 0x24
 800afc6:	4638      	mov	r0, r7
 800afc8:	611a      	str	r2, [r3, #16]
 800afca:	f7fd fb8f 	bl	80086ec <HAL_TIM_Base_Start_IT>
 800afce:	682b      	ldr	r3, [r5, #0]
 800afd0:	78db      	ldrb	r3, [r3, #3]
 800afd2:	2b0c      	cmp	r3, #12
 800afd4:	d101      	bne.n	800afda <HAL_GPIO_EXTI_Callback+0xda>
 800afd6:	f7f7 fee7 	bl	8002da8 <led_blue_on>
 800afda:	4b2b      	ldr	r3, [pc, #172]	; (800b088 <HAL_GPIO_EXTI_Callback+0x188>)
 800afdc:	2200      	movs	r2, #0
 800afde:	701a      	strb	r2, [r3, #0]
 800afe0:	4b2a      	ldr	r3, [pc, #168]	; (800b08c <HAL_GPIO_EXTI_Callback+0x18c>)
 800afe2:	6a59      	ldr	r1, [r3, #36]	; 0x24
 800afe4:	601a      	str	r2, [r3, #0]
 800afe6:	2201      	movs	r2, #1
 800afe8:	601a      	str	r2, [r3, #0]
 800afea:	681a      	ldr	r2, [r3, #0]
 800afec:	f042 0224 	orr.w	r2, r2, #36	; 0x24
 800aff0:	601a      	str	r2, [r3, #0]
 800aff2:	682a      	ldr	r2, [r5, #0]
 800aff4:	f898 3000 	ldrb.w	r3, [r8]
 800aff8:	7850      	ldrb	r0, [r2, #1]
 800affa:	3301      	adds	r3, #1
 800affc:	4298      	cmp	r0, r3
 800affe:	d101      	bne.n	800b004 <HAL_GPIO_EXTI_Callback+0x104>
 800b000:	f7f8 f822 	bl	8003048 <clear_fix_data>
 800b004:	682b      	ldr	r3, [r5, #0]
 800b006:	78da      	ldrb	r2, [r3, #3]
 800b008:	2a0c      	cmp	r2, #12
 800b00a:	d01d      	beq.n	800b048 <HAL_GPIO_EXTI_Callback+0x148>
 800b00c:	f7f7 fecc 	bl	8002da8 <led_blue_on>
 800b010:	f7f7 fefc 	bl	8002e0c <led_w_off>
 800b014:	2300      	movs	r3, #0
 800b016:	7273      	strb	r3, [r6, #9]
 800b018:	e77c      	b.n	800af14 <HAL_GPIO_EXTI_Callback+0x14>
 800b01a:	233c      	movs	r3, #60	; 0x3c
 800b01c:	7013      	strb	r3, [r2, #0]
 800b01e:	682b      	ldr	r3, [r5, #0]
 800b020:	785a      	ldrb	r2, [r3, #1]
 800b022:	4b10      	ldr	r3, [pc, #64]	; (800b064 <HAL_GPIO_EXTI_Callback+0x164>)
 800b024:	681b      	ldr	r3, [r3, #0]
 800b026:	f853 3022 	ldr.w	r3, [r3, r2, lsl #2]
 800b02a:	2200      	movs	r2, #0
 800b02c:	755a      	strb	r2, [r3, #21]
 800b02e:	f893 3041 	ldrb.w	r3, [r3, #65]	; 0x41
 800b032:	2b1d      	cmp	r3, #29
 800b034:	d8ab      	bhi.n	800af8e <HAL_GPIO_EXTI_Callback+0x8e>
 800b036:	2001      	movs	r0, #1
 800b038:	f7f7 fef0 	bl	8002e1c <longBeepsBlocking>
 800b03c:	2032      	movs	r0, #50	; 0x32
 800b03e:	f7fa fd83 	bl	8005b48 <HAL_Delay>
 800b042:	f7f7 fec7 	bl	8002dd4 <release_power>
 800b046:	e7a2      	b.n	800af8e <HAL_GPIO_EXTI_Callback+0x8e>
 800b048:	7858      	ldrb	r0, [r3, #1]
 800b04a:	2802      	cmp	r0, #2
 800b04c:	d1e0      	bne.n	800b010 <HAL_GPIO_EXTI_Callback+0x110>
 800b04e:	f7f7 fffb 	bl	8003048 <clear_fix_data>
 800b052:	682b      	ldr	r3, [r5, #0]
 800b054:	78db      	ldrb	r3, [r3, #3]
 800b056:	2b0c      	cmp	r3, #12
 800b058:	d0da      	beq.n	800b010 <HAL_GPIO_EXTI_Callback+0x110>
 800b05a:	e7d7      	b.n	800b00c <HAL_GPIO_EXTI_Callback+0x10c>
 800b05c:	48000400 	.word	0x48000400
 800b060:	20001164 	.word	0x20001164
 800b064:	20001170 	.word	0x20001170
 800b068:	20001174 	.word	0x20001174
 800b06c:	20001176 	.word	0x20001176
 800b070:	20000b18 	.word	0x20000b18
 800b074:	200010c0 	.word	0x200010c0
 800b078:	200011fc 	.word	0x200011fc
 800b07c:	20000578 	.word	0x20000578
 800b080:	20000a34 	.word	0x20000a34
 800b084:	20001175 	.word	0x20001175
 800b088:	200011fd 	.word	0x200011fd
 800b08c:	40004400 	.word	0x40004400

0800b090 <USART2_IRQHandler>:
 800b090:	4849      	ldr	r0, [pc, #292]	; (800b1b8 <USART2_IRQHandler+0x128>)
 800b092:	b538      	push	{r3, r4, r5, lr}
 800b094:	69c3      	ldr	r3, [r0, #28]
 800b096:	069b      	lsls	r3, r3, #26
 800b098:	d51d      	bpl.n	800b0d6 <USART2_IRQHandler+0x46>
 800b09a:	4c48      	ldr	r4, [pc, #288]	; (800b1bc <USART2_IRQHandler+0x12c>)
 800b09c:	4948      	ldr	r1, [pc, #288]	; (800b1c0 <USART2_IRQHandler+0x130>)
 800b09e:	7b25      	ldrb	r5, [r4, #12]
 800b0a0:	7ae2      	ldrb	r2, [r4, #11]
 800b0a2:	780b      	ldrb	r3, [r1, #0]
 800b0a4:	432a      	orrs	r2, r5
 800b0a6:	d05a      	beq.n	800b15e <USART2_IRQHandler+0xce>
 800b0a8:	2b28      	cmp	r3, #40	; 0x28
 800b0aa:	bf84      	itt	hi
 800b0ac:	2300      	movhi	r3, #0
 800b0ae:	700b      	strbhi	r3, [r1, #0]
 800b0b0:	780a      	ldrb	r2, [r1, #0]
 800b0b2:	4841      	ldr	r0, [pc, #260]	; (800b1b8 <USART2_IRQHandler+0x128>)
 800b0b4:	4b43      	ldr	r3, [pc, #268]	; (800b1c4 <USART2_IRQHandler+0x134>)
 800b0b6:	6a45      	ldr	r5, [r0, #36]	; 0x24
 800b0b8:	549d      	strb	r5, [r3, r2]
 800b0ba:	2a01      	cmp	r2, #1
 800b0bc:	d10c      	bne.n	800b0d8 <USART2_IRQHandler+0x48>
 800b0be:	781d      	ldrb	r5, [r3, #0]
 800b0c0:	2db5      	cmp	r5, #181	; 0xb5
 800b0c2:	d102      	bne.n	800b0ca <USART2_IRQHandler+0x3a>
 800b0c4:	785b      	ldrb	r3, [r3, #1]
 800b0c6:	2b62      	cmp	r3, #98	; 0x62
 800b0c8:	d046      	beq.n	800b158 <USART2_IRQHandler+0xc8>
 800b0ca:	6803      	ldr	r3, [r0, #0]
 800b0cc:	f023 0320 	bic.w	r3, r3, #32
 800b0d0:	6003      	str	r3, [r0, #0]
 800b0d2:	2300      	movs	r3, #0
 800b0d4:	72e3      	strb	r3, [r4, #11]
 800b0d6:	bd38      	pop	{r3, r4, r5, pc}
 800b0d8:	2a0e      	cmp	r2, #14
 800b0da:	d122      	bne.n	800b122 <USART2_IRQHandler+0x92>
 800b0dc:	7898      	ldrb	r0, [r3, #2]
 800b0de:	2806      	cmp	r0, #6
 800b0e0:	d13a      	bne.n	800b158 <USART2_IRQHandler+0xc8>
 800b0e2:	78d8      	ldrb	r0, [r3, #3]
 800b0e4:	288b      	cmp	r0, #139	; 0x8b
 800b0e6:	d137      	bne.n	800b158 <USART2_IRQHandler+0xc8>
 800b0e8:	7918      	ldrb	r0, [r3, #4]
 800b0ea:	2809      	cmp	r0, #9
 800b0ec:	d134      	bne.n	800b158 <USART2_IRQHandler+0xc8>
 800b0ee:	7a9a      	ldrb	r2, [r3, #10]
 800b0f0:	2a07      	cmp	r2, #7
 800b0f2:	d10c      	bne.n	800b10e <USART2_IRQHandler+0x7e>
 800b0f4:	7b9b      	ldrb	r3, [r3, #14]
 800b0f6:	71a3      	strb	r3, [r4, #6]
 800b0f8:	4a2f      	ldr	r2, [pc, #188]	; (800b1b8 <USART2_IRQHandler+0x128>)
 800b0fa:	4832      	ldr	r0, [pc, #200]	; (800b1c4 <USART2_IRQHandler+0x134>)
 800b0fc:	6813      	ldr	r3, [r2, #0]
 800b0fe:	f023 0320 	bic.w	r3, r3, #32
 800b102:	6013      	str	r3, [r2, #0]
 800b104:	2100      	movs	r1, #0
 800b106:	220e      	movs	r2, #14
 800b108:	f000 fdc0 	bl	800bc8c <memset>
 800b10c:	e7e1      	b.n	800b0d2 <USART2_IRQHandler+0x42>
 800b10e:	2a01      	cmp	r2, #1
 800b110:	d102      	bne.n	800b118 <USART2_IRQHandler+0x88>
 800b112:	7b9b      	ldrb	r3, [r3, #14]
 800b114:	71e3      	strb	r3, [r4, #7]
 800b116:	e7ef      	b.n	800b0f8 <USART2_IRQHandler+0x68>
 800b118:	2a02      	cmp	r2, #2
 800b11a:	bf04      	itt	eq
 800b11c:	7b9b      	ldrbeq	r3, [r3, #14]
 800b11e:	7223      	strbeq	r3, [r4, #8]
 800b120:	e7ea      	b.n	800b0f8 <USART2_IRQHandler+0x68>
 800b122:	2a28      	cmp	r2, #40	; 0x28
 800b124:	d118      	bne.n	800b158 <USART2_IRQHandler+0xc8>
 800b126:	789c      	ldrb	r4, [r3, #2]
 800b128:	2c0a      	cmp	r4, #10
 800b12a:	d115      	bne.n	800b158 <USART2_IRQHandler+0xc8>
 800b12c:	78dd      	ldrb	r5, [r3, #3]
 800b12e:	2d04      	cmp	r5, #4
 800b130:	d112      	bne.n	800b158 <USART2_IRQHandler+0xc8>
 800b132:	6802      	ldr	r2, [r0, #0]
 800b134:	f022 0220 	bic.w	r2, r2, #32
 800b138:	6002      	str	r2, [r0, #0]
 800b13a:	f893 3027 	ldrb.w	r3, [r3, #39]	; 0x27
 800b13e:	4821      	ldr	r0, [pc, #132]	; (800b1c4 <USART2_IRQHandler+0x134>)
 800b140:	2b41      	cmp	r3, #65	; 0x41
 800b142:	bf1c      	itt	ne
 800b144:	3b30      	subne	r3, #48	; 0x30
 800b146:	b2dc      	uxtbne	r4, r3
 800b148:	4b1f      	ldr	r3, [pc, #124]	; (800b1c8 <USART2_IRQHandler+0x138>)
 800b14a:	2228      	movs	r2, #40	; 0x28
 800b14c:	701c      	strb	r4, [r3, #0]
 800b14e:	2100      	movs	r1, #0
 800b150:	e8bd 4038 	ldmia.w	sp!, {r3, r4, r5, lr}
 800b154:	f000 bd9a 	b.w	800bc8c <memset>
 800b158:	3201      	adds	r2, #1
 800b15a:	700a      	strb	r2, [r1, #0]
 800b15c:	e7bb      	b.n	800b0d6 <USART2_IRQHandler+0x46>
 800b15e:	4a1b      	ldr	r2, [pc, #108]	; (800b1cc <USART2_IRQHandler+0x13c>)
 800b160:	6a44      	ldr	r4, [r0, #36]	; 0x24
 800b162:	54d4      	strb	r4, [r2, r3]
 800b164:	2b03      	cmp	r3, #3
 800b166:	d114      	bne.n	800b192 <USART2_IRQHandler+0x102>
 800b168:	7810      	ldrb	r0, [r2, #0]
 800b16a:	28b5      	cmp	r0, #181	; 0xb5
 800b16c:	d108      	bne.n	800b180 <USART2_IRQHandler+0xf0>
 800b16e:	7850      	ldrb	r0, [r2, #1]
 800b170:	2862      	cmp	r0, #98	; 0x62
 800b172:	d105      	bne.n	800b180 <USART2_IRQHandler+0xf0>
 800b174:	7890      	ldrb	r0, [r2, #2]
 800b176:	2801      	cmp	r0, #1
 800b178:	d102      	bne.n	800b180 <USART2_IRQHandler+0xf0>
 800b17a:	78d2      	ldrb	r2, [r2, #3]
 800b17c:	2a07      	cmp	r2, #7
 800b17e:	d017      	beq.n	800b1b0 <USART2_IRQHandler+0x120>
 800b180:	4a0d      	ldr	r2, [pc, #52]	; (800b1b8 <USART2_IRQHandler+0x128>)
 800b182:	4812      	ldr	r0, [pc, #72]	; (800b1cc <USART2_IRQHandler+0x13c>)
 800b184:	6813      	ldr	r3, [r2, #0]
 800b186:	f023 0320 	bic.w	r3, r3, #32
 800b18a:	6013      	str	r3, [r2, #0]
 800b18c:	2100      	movs	r1, #0
 800b18e:	2264      	movs	r2, #100	; 0x64
 800b190:	e7de      	b.n	800b150 <USART2_IRQHandler+0xc0>
 800b192:	2b52      	cmp	r3, #82	; 0x52
 800b194:	d90c      	bls.n	800b1b0 <USART2_IRQHandler+0x120>
 800b196:	6803      	ldr	r3, [r0, #0]
 800b198:	f023 0320 	bic.w	r3, r3, #32
 800b19c:	6003      	str	r3, [r0, #0]
 800b19e:	4b0c      	ldr	r3, [pc, #48]	; (800b1d0 <USART2_IRQHandler+0x140>)
 800b1a0:	681b      	ldr	r3, [r3, #0]
 800b1a2:	7858      	ldrb	r0, [r3, #1]
 800b1a4:	f7f7 fe8e 	bl	8002ec4 <ublox_to_this_device>
 800b1a8:	e8bd 4038 	ldmia.w	sp!, {r3, r4, r5, lr}
 800b1ac:	f7f7 bdfa 	b.w	8002da4 <led_green_off>
 800b1b0:	3301      	adds	r3, #1
 800b1b2:	700b      	strb	r3, [r1, #0]
 800b1b4:	e78f      	b.n	800b0d6 <USART2_IRQHandler+0x46>
 800b1b6:	bf00      	nop
 800b1b8:	40004400 	.word	0x40004400
 800b1bc:	20000578 	.word	0x20000578
 800b1c0:	200011fd 	.word	0x200011fd
 800b1c4:	20000d98 	.word	0x20000d98
 800b1c8:	200011fe 	.word	0x200011fe
 800b1cc:	200010c0 	.word	0x200010c0
 800b1d0:	20001164 	.word	0x20001164

0800b1d4 <transmit_data>:
 800b1d4:	4b3b      	ldr	r3, [pc, #236]	; (800b2c4 <transmit_data+0xf0>)
 800b1d6:	b477      	push	{r0, r1, r2, r4, r5, r6}
 800b1d8:	6818      	ldr	r0, [r3, #0]
 800b1da:	4b3b      	ldr	r3, [pc, #236]	; (800b2c8 <transmit_data+0xf4>)
 800b1dc:	681c      	ldr	r4, [r3, #0]
 800b1de:	4b3b      	ldr	r3, [pc, #236]	; (800b2cc <transmit_data+0xf8>)
 800b1e0:	7862      	ldrb	r2, [r4, #1]
 800b1e2:	f850 1022 	ldr.w	r1, [r0, r2, lsl #2]
 800b1e6:	794e      	ldrb	r6, [r1, #5]
 800b1e8:	4615      	mov	r5, r2
 800b1ea:	3a80      	subs	r2, #128	; 0x80
 800b1ec:	eb02 1286 	add.w	r2, r2, r6, lsl #6
 800b1f0:	798e      	ldrb	r6, [r1, #6]
 800b1f2:	eb02 1246 	add.w	r2, r2, r6, lsl #5
 800b1f6:	79ce      	ldrb	r6, [r1, #7]
 800b1f8:	7a09      	ldrb	r1, [r1, #8]
 800b1fa:	3900      	subs	r1, #0
 800b1fc:	bf18      	it	ne
 800b1fe:	2101      	movne	r1, #1
 800b200:	eb02 1206 	add.w	r2, r2, r6, lsl #4
 800b204:	eb02 02c1 	add.w	r2, r2, r1, lsl #3
 800b208:	701a      	strb	r2, [r3, #0]
 800b20a:	f850 1025 	ldr.w	r1, [r0, r5, lsl #2]
 800b20e:	785a      	ldrb	r2, [r3, #1]
 800b210:	f891 1028 	ldrb.w	r1, [r1, #40]	; 0x28
 800b214:	2903      	cmp	r1, #3
 800b216:	bf8c      	ite	hi
 800b218:	f042 0280 	orrhi.w	r2, r2, #128	; 0x80
 800b21c:	f002 027f 	andls.w	r2, r2, #127	; 0x7f
 800b220:	705a      	strb	r2, [r3, #1]
 800b222:	4a2b      	ldr	r2, [pc, #172]	; (800b2d0 <transmit_data+0xfc>)
 800b224:	7e91      	ldrb	r1, [r2, #26]
 800b226:	7ed5      	ldrb	r5, [r2, #27]
 800b228:	0149      	lsls	r1, r1, #5
 800b22a:	012d      	lsls	r5, r5, #4
 800b22c:	f005 0510 	and.w	r5, r5, #16
 800b230:	f001 0160 	and.w	r1, r1, #96	; 0x60
 800b234:	4329      	orrs	r1, r5
 800b236:	7865      	ldrb	r5, [r4, #1]
 800b238:	f850 5025 	ldr.w	r5, [r0, r5, lsl #2]
 800b23c:	260a      	movs	r6, #10
 800b23e:	f895 5041 	ldrb.w	r5, [r5, #65]	; 0x41
 800b242:	fbb5 f5f6 	udiv	r5, r5, r6
 800b246:	f005 050f 	and.w	r5, r5, #15
 800b24a:	4429      	add	r1, r5
 800b24c:	7059      	strb	r1, [r3, #1]
 800b24e:	7861      	ldrb	r1, [r4, #1]
 800b250:	f850 1021 	ldr.w	r1, [r0, r1, lsl #2]
 800b254:	8b49      	ldrh	r1, [r1, #26]
 800b256:	fbb1 f1f6 	udiv	r1, r1, r6
 800b25a:	7099      	strb	r1, [r3, #2]
 800b25c:	7f91      	ldrb	r1, [r2, #30]
 800b25e:	70d9      	strb	r1, [r3, #3]
 800b260:	7fd1      	ldrb	r1, [r2, #31]
 800b262:	7119      	strb	r1, [r3, #4]
 800b264:	f892 1020 	ldrb.w	r1, [r2, #32]
 800b268:	7159      	strb	r1, [r3, #5]
 800b26a:	f892 1021 	ldrb.w	r1, [r2, #33]	; 0x21
 800b26e:	7199      	strb	r1, [r3, #6]
 800b270:	f892 1022 	ldrb.w	r1, [r2, #34]	; 0x22
 800b274:	71d9      	strb	r1, [r3, #7]
 800b276:	f892 1023 	ldrb.w	r1, [r2, #35]	; 0x23
 800b27a:	7219      	strb	r1, [r3, #8]
 800b27c:	f892 1024 	ldrb.w	r1, [r2, #36]	; 0x24
 800b280:	f892 2025 	ldrb.w	r2, [r2, #37]	; 0x25
 800b284:	7259      	strb	r1, [r3, #9]
 800b286:	729a      	strb	r2, [r3, #10]
 800b288:	7862      	ldrb	r2, [r4, #1]
 800b28a:	f850 2022 	ldr.w	r2, [r0, r2, lsl #2]
 800b28e:	f892 1028 	ldrb.w	r1, [r2, #40]	; 0x28
 800b292:	2903      	cmp	r1, #3
 800b294:	d912      	bls.n	800b2bc <transmit_data+0xe8>
 800b296:	8d52      	ldrh	r2, [r2, #42]	; 0x2a
 800b298:	f3c2 2200 	ubfx	r2, r2, #8, #1
 800b29c:	eb02 0241 	add.w	r2, r2, r1, lsl #1
 800b2a0:	72da      	strb	r2, [r3, #11]
 800b2a2:	7862      	ldrb	r2, [r4, #1]
 800b2a4:	f850 2022 	ldr.w	r2, [r0, r2, lsl #2]
 800b2a8:	8d52      	ldrh	r2, [r2, #42]	; 0x2a
 800b2aa:	731a      	strb	r2, [r3, #12]
 800b2ac:	4b09      	ldr	r3, [pc, #36]	; (800b2d4 <transmit_data+0x100>)
 800b2ae:	4807      	ldr	r0, [pc, #28]	; (800b2cc <transmit_data+0xf8>)
 800b2b0:	6a9b      	ldr	r3, [r3, #40]	; 0x28
 800b2b2:	9301      	str	r3, [sp, #4]
 800b2b4:	210d      	movs	r1, #13
 800b2b6:	b003      	add	sp, #12
 800b2b8:	bc70      	pop	{r4, r5, r6}
 800b2ba:	4718      	bx	r3
 800b2bc:	2200      	movs	r2, #0
 800b2be:	72da      	strb	r2, [r3, #11]
 800b2c0:	e7f3      	b.n	800b2aa <transmit_data+0xd6>
 800b2c2:	bf00      	nop
 800b2c4:	20001170 	.word	0x20001170
 800b2c8:	20001164 	.word	0x20001164
 800b2cc:	2000114f 	.word	0x2000114f
 800b2d0:	200010c0 	.word	0x200010c0
 800b2d4:	08010e38 	.word	0x08010e38

0800b2d8 <HAL_TIM_PeriodElapsedCallback>:
 800b2d8:	e92d 43f0 	stmdb	sp!, {r4, r5, r6, r7, r8, r9, lr}
 800b2dc:	6802      	ldr	r2, [r0, #0]
 800b2de:	4ba5      	ldr	r3, [pc, #660]	; (800b574 <HAL_TIM_PeriodElapsedCallback+0x29c>)
 800b2e0:	429a      	cmp	r2, r3
 800b2e2:	b08b      	sub	sp, #44	; 0x2c
 800b2e4:	4605      	mov	r5, r0
 800b2e6:	d16e      	bne.n	800b3c6 <HAL_TIM_PeriodElapsedCallback+0xee>
 800b2e8:	4ba3      	ldr	r3, [pc, #652]	; (800b578 <HAL_TIM_PeriodElapsedCallback+0x2a0>)
 800b2ea:	f993 3000 	ldrsb.w	r3, [r3]
 800b2ee:	2b00      	cmp	r3, #0
 800b2f0:	f040 816a 	bne.w	800b5c8 <HAL_TIM_PeriodElapsedCallback+0x2f0>
 800b2f4:	4ca1      	ldr	r4, [pc, #644]	; (800b57c <HAL_TIM_PeriodElapsedCallback+0x2a4>)
 800b2f6:	4ea2      	ldr	r6, [pc, #648]	; (800b580 <HAL_TIM_PeriodElapsedCallback+0x2a8>)
 800b2f8:	7ba3      	ldrb	r3, [r4, #14]
 800b2fa:	6832      	ldr	r2, [r6, #0]
 800b2fc:	49a1      	ldr	r1, [pc, #644]	; (800b584 <HAL_TIM_PeriodElapsedCallback+0x2ac>)
 800b2fe:	3301      	adds	r3, #1
 800b300:	b2db      	uxtb	r3, r3
 800b302:	73a3      	strb	r3, [r4, #14]
 800b304:	78d0      	ldrb	r0, [r2, #3]
 800b306:	f1a0 080c 	sub.w	r8, r0, #12
 800b30a:	f1d8 0700 	rsbs	r7, r8, #0
 800b30e:	eb47 0708 	adc.w	r7, r7, r8
 800b312:	700f      	strb	r7, [r1, #0]
 800b314:	499c      	ldr	r1, [pc, #624]	; (800b588 <HAL_TIM_PeriodElapsedCallback+0x2b0>)
 800b316:	f04f 0c67 	mov.w	ip, #103	; 0x67
 800b31a:	fb0c 1107 	mla	r1, ip, r7, r1
 800b31e:	5ccb      	ldrb	r3, [r1, r3]
 800b320:	3b01      	subs	r3, #1
 800b322:	2b07      	cmp	r3, #7
 800b324:	d84f      	bhi.n	800b3c6 <HAL_TIM_PeriodElapsedCallback+0xee>
 800b326:	e8df f013 	tbh	[pc, r3, lsl #1]
 800b32a:	0008      	.short	0x0008
 800b32c:	00dc0082 	.word	0x00dc0082
 800b330:	00f900ee 	.word	0x00f900ee
 800b334:	0104010a 	.word	0x0104010a
 800b338:	00c1      	.short	0x00c1
 800b33a:	4c94      	ldr	r4, [pc, #592]	; (800b58c <HAL_TIM_PeriodElapsedCallback+0x2b4>)
 800b33c:	7820      	ldrb	r0, [r4, #0]
 800b33e:	1c43      	adds	r3, r0, #1
 800b340:	b2d8      	uxtb	r0, r3
 800b342:	7853      	ldrb	r3, [r2, #1]
 800b344:	7020      	strb	r0, [r4, #0]
 800b346:	4283      	cmp	r3, r0
 800b348:	d001      	beq.n	800b34e <HAL_TIM_PeriodElapsedCallback+0x76>
 800b34a:	f7f7 fe7d 	bl	8003048 <clear_fix_data>
 800b34e:	6832      	ldr	r2, [r6, #0]
 800b350:	78d7      	ldrb	r7, [r2, #3]
 800b352:	2f0c      	cmp	r7, #12
 800b354:	d135      	bne.n	800b3c2 <HAL_TIM_PeriodElapsedCallback+0xea>
 800b356:	7851      	ldrb	r1, [r2, #1]
 800b358:	7823      	ldrb	r3, [r4, #0]
 800b35a:	4299      	cmp	r1, r3
 800b35c:	d118      	bne.n	800b390 <HAL_TIM_PeriodElapsedCallback+0xb8>
 800b35e:	498c      	ldr	r1, [pc, #560]	; (800b590 <HAL_TIM_PeriodElapsedCallback+0x2b8>)
 800b360:	7993      	ldrb	r3, [r2, #6]
 800b362:	6809      	ldr	r1, [r1, #0]
 800b364:	f240 2cee 	movw	ip, #750	; 0x2ee
 800b368:	56c9      	ldrsb	r1, [r1, r3]
 800b36a:	2001      	movs	r0, #1
 800b36c:	2300      	movs	r3, #0
 800b36e:	e9cd 3c07 	strd	r3, ip, [sp, #28]
 800b372:	e9cd 3305 	strd	r3, r3, [sp, #20]
 800b376:	e9cd 0003 	strd	r0, r0, [sp, #12]
 800b37a:	f04f 0c08 	mov.w	ip, #8
 800b37e:	f8cd c008 	str.w	ip, [sp, #8]
 800b382:	7912      	ldrb	r2, [r2, #4]
 800b384:	e9cd 7200 	strd	r7, r2, [sp]
 800b388:	4f82      	ldr	r7, [pc, #520]	; (800b594 <HAL_TIM_PeriodElapsedCallback+0x2bc>)
 800b38a:	461a      	mov	r2, r3
 800b38c:	69ff      	ldr	r7, [r7, #28]
 800b38e:	47b8      	blx	r7
 800b390:	6832      	ldr	r2, [r6, #0]
 800b392:	7823      	ldrb	r3, [r4, #0]
 800b394:	7851      	ldrb	r1, [r2, #1]
 800b396:	4299      	cmp	r1, r3
 800b398:	d013      	beq.n	800b3c2 <HAL_TIM_PeriodElapsedCallback+0xea>
 800b39a:	2001      	movs	r0, #1
 800b39c:	2403      	movs	r4, #3
 800b39e:	7913      	ldrb	r3, [r2, #4]
 800b3a0:	78d2      	ldrb	r2, [r2, #3]
 800b3a2:	9005      	str	r0, [sp, #20]
 800b3a4:	e9cd 0403 	strd	r0, r4, [sp, #12]
 800b3a8:	2605      	movs	r6, #5
 800b3aa:	2408      	movs	r4, #8
 800b3ac:	e9cd 4601 	strd	r4, r6, [sp, #4]
 800b3b0:	4c78      	ldr	r4, [pc, #480]	; (800b594 <HAL_TIM_PeriodElapsedCallback+0x2bc>)
 800b3b2:	2100      	movs	r1, #0
 800b3b4:	e9cd 0008 	strd	r0, r0, [sp, #32]
 800b3b8:	e9cd 1106 	strd	r1, r1, [sp, #24]
 800b3bc:	69a4      	ldr	r4, [r4, #24]
 800b3be:	9100      	str	r1, [sp, #0]
 800b3c0:	47a0      	blx	r4
 800b3c2:	f7f7 fcf9 	bl	8002db8 <led_blue_off>
 800b3c6:	682b      	ldr	r3, [r5, #0]
 800b3c8:	f1b3 4f80 	cmp.w	r3, #1073741824	; 0x40000000
 800b3cc:	d10e      	bne.n	800b3ec <HAL_TIM_PeriodElapsedCallback+0x114>
 800b3ce:	4c6b      	ldr	r4, [pc, #428]	; (800b57c <HAL_TIM_PeriodElapsedCallback+0x2a4>)
 800b3d0:	f994 3002 	ldrsb.w	r3, [r4, #2]
 800b3d4:	2b00      	cmp	r3, #0
 800b3d6:	f040 8136 	bne.w	800b646 <HAL_TIM_PeriodElapsedCallback+0x36e>
 800b3da:	4b6f      	ldr	r3, [pc, #444]	; (800b598 <HAL_TIM_PeriodElapsedCallback+0x2c0>)
 800b3dc:	7818      	ldrb	r0, [r3, #0]
 800b3de:	f7f6 ff7f 	bl	80022e0 <scan_button>
 800b3e2:	4b6e      	ldr	r3, [pc, #440]	; (800b59c <HAL_TIM_PeriodElapsedCallback+0x2c4>)
 800b3e4:	7018      	strb	r0, [r3, #0]
 800b3e6:	b108      	cbz	r0, 800b3ec <HAL_TIM_PeriodElapsedCallback+0x114>
 800b3e8:	2301      	movs	r3, #1
 800b3ea:	70a3      	strb	r3, [r4, #2]
 800b3ec:	682a      	ldr	r2, [r5, #0]
 800b3ee:	4b6c      	ldr	r3, [pc, #432]	; (800b5a0 <HAL_TIM_PeriodElapsedCallback+0x2c8>)
 800b3f0:	429a      	cmp	r2, r3
 800b3f2:	d111      	bne.n	800b418 <HAL_TIM_PeriodElapsedCallback+0x140>
 800b3f4:	486b      	ldr	r0, [pc, #428]	; (800b5a4 <HAL_TIM_PeriodElapsedCallback+0x2cc>)
 800b3f6:	f7fd f99f 	bl	8008738 <HAL_TIM_Base_Stop_IT>
 800b3fa:	486b      	ldr	r0, [pc, #428]	; (800b5a8 <HAL_TIM_PeriodElapsedCallback+0x2d0>)
 800b3fc:	6803      	ldr	r3, [r0, #0]
 800b3fe:	f06f 0201 	mvn.w	r2, #1
 800b402:	611a      	str	r2, [r3, #16]
 800b404:	f7fd f972 	bl	80086ec <HAL_TIM_Base_Start_IT>
 800b408:	4b68      	ldr	r3, [pc, #416]	; (800b5ac <HAL_TIM_PeriodElapsedCallback+0x2d4>)
 800b40a:	2201      	movs	r2, #1
 800b40c:	701a      	strb	r2, [r3, #0]
 800b40e:	4a5f      	ldr	r2, [pc, #380]	; (800b58c <HAL_TIM_PeriodElapsedCallback+0x2b4>)
 800b410:	2300      	movs	r3, #0
 800b412:	7013      	strb	r3, [r2, #0]
 800b414:	4a59      	ldr	r2, [pc, #356]	; (800b57c <HAL_TIM_PeriodElapsedCallback+0x2a4>)
 800b416:	7393      	strb	r3, [r2, #14]
 800b418:	682a      	ldr	r2, [r5, #0]
 800b41a:	4b65      	ldr	r3, [pc, #404]	; (800b5b0 <HAL_TIM_PeriodElapsedCallback+0x2d8>)
 800b41c:	429a      	cmp	r2, r3
 800b41e:	f040 8112 	bne.w	800b646 <HAL_TIM_PeriodElapsedCallback+0x36e>
 800b422:	4864      	ldr	r0, [pc, #400]	; (800b5b4 <HAL_TIM_PeriodElapsedCallback+0x2dc>)
 800b424:	b00b      	add	sp, #44	; 0x2c
 800b426:	e8bd 43f0 	ldmia.w	sp!, {r4, r5, r6, r7, r8, r9, lr}
 800b42a:	f7fd b985 	b.w	8008738 <HAL_TIM_Base_Stop_IT>
 800b42e:	4e57      	ldr	r6, [pc, #348]	; (800b58c <HAL_TIM_PeriodElapsedCallback+0x2b4>)
 800b430:	7852      	ldrb	r2, [r2, #1]
 800b432:	7833      	ldrb	r3, [r6, #0]
 800b434:	429a      	cmp	r2, r3
 800b436:	d11f      	bne.n	800b478 <HAL_TIM_PeriodElapsedCallback+0x1a0>
 800b438:	4b5f      	ldr	r3, [pc, #380]	; (800b5b8 <HAL_TIM_PeriodElapsedCallback+0x2e0>)
 800b43a:	681b      	ldr	r3, [r3, #0]
 800b43c:	f853 2022 	ldr.w	r2, [r3, r2, lsl #2]
 800b440:	7dd3      	ldrb	r3, [r2, #23]
 800b442:	b913      	cbnz	r3, 800b44a <HAL_TIM_PeriodElapsedCallback+0x172>
 800b444:	7aa3      	ldrb	r3, [r4, #10]
 800b446:	3b01      	subs	r3, #1
 800b448:	72a3      	strb	r3, [r4, #10]
 800b44a:	f994 300a 	ldrsb.w	r3, [r4, #10]
 800b44e:	2b00      	cmp	r3, #0
 800b450:	dd0f      	ble.n	800b472 <HAL_TIM_PeriodElapsedCallback+0x19a>
 800b452:	7d53      	ldrb	r3, [r2, #21]
 800b454:	b133      	cbz	r3, 800b464 <HAL_TIM_PeriodElapsedCallback+0x18c>
 800b456:	4857      	ldr	r0, [pc, #348]	; (800b5b4 <HAL_TIM_PeriodElapsedCallback+0x2dc>)
 800b458:	6803      	ldr	r3, [r0, #0]
 800b45a:	6a5a      	ldr	r2, [r3, #36]	; 0x24
 800b45c:	4b57      	ldr	r3, [pc, #348]	; (800b5bc <HAL_TIM_PeriodElapsedCallback+0x2e4>)
 800b45e:	801a      	strh	r2, [r3, #0]
 800b460:	f7fd f930 	bl	80086c4 <HAL_TIM_Base_Stop>
 800b464:	2300      	movs	r3, #0
 800b466:	7023      	strb	r3, [r4, #0]
 800b468:	f7f7 fc8e 	bl	8002d88 <led_red_on>
 800b46c:	f7ff feb2 	bl	800b1d4 <transmit_data>
 800b470:	e7a9      	b.n	800b3c6 <HAL_TIM_PeriodElapsedCallback+0xee>
 800b472:	2300      	movs	r3, #0
 800b474:	72a3      	strb	r3, [r4, #10]
 800b476:	e7a6      	b.n	800b3c6 <HAL_TIM_PeriodElapsedCallback+0xee>
 800b478:	280c      	cmp	r0, #12
 800b47a:	d012      	beq.n	800b4a2 <HAL_TIM_PeriodElapsedCallback+0x1ca>
 800b47c:	4c4e      	ldr	r4, [pc, #312]	; (800b5b8 <HAL_TIM_PeriodElapsedCallback+0x2e0>)
 800b47e:	6822      	ldr	r2, [r4, #0]
 800b480:	f852 3023 	ldr.w	r3, [r2, r3, lsl #2]
 800b484:	7a1b      	ldrb	r3, [r3, #8]
 800b486:	b163      	cbz	r3, 800b4a2 <HAL_TIM_PeriodElapsedCallback+0x1ca>
 800b488:	f7f7 fcba 	bl	8002e00 <led_w_on>
 800b48c:	f7f7 fcaa 	bl	8002de4 <buzz_on>
 800b490:	7832      	ldrb	r2, [r6, #0]
 800b492:	6823      	ldr	r3, [r4, #0]
 800b494:	f853 3022 	ldr.w	r3, [r3, r2, lsl #2]
 800b498:	2200      	movs	r2, #0
 800b49a:	721a      	strb	r2, [r3, #8]
 800b49c:	4b48      	ldr	r3, [pc, #288]	; (800b5c0 <HAL_TIM_PeriodElapsedCallback+0x2e8>)
 800b49e:	2201      	movs	r2, #1
 800b4a0:	701a      	strb	r2, [r3, #0]
 800b4a2:	4b3c      	ldr	r3, [pc, #240]	; (800b594 <HAL_TIM_PeriodElapsedCallback+0x2bc>)
 800b4a4:	2000      	movs	r0, #0
 800b4a6:	6b5b      	ldr	r3, [r3, #52]	; 0x34
 800b4a8:	4798      	blx	r3
 800b4aa:	e78c      	b.n	800b3c6 <HAL_TIM_PeriodElapsedCallback+0xee>
 800b4ac:	4c42      	ldr	r4, [pc, #264]	; (800b5b8 <HAL_TIM_PeriodElapsedCallback+0x2e0>)
 800b4ae:	4e37      	ldr	r6, [pc, #220]	; (800b58c <HAL_TIM_PeriodElapsedCallback+0x2b4>)
 800b4b0:	6823      	ldr	r3, [r4, #0]
 800b4b2:	7832      	ldrb	r2, [r6, #0]
 800b4b4:	f853 3022 	ldr.w	r3, [r3, r2, lsl #2]
 800b4b8:	7a1b      	ldrb	r3, [r3, #8]
 800b4ba:	2b00      	cmp	r3, #0
 800b4bc:	d083      	beq.n	800b3c6 <HAL_TIM_PeriodElapsedCallback+0xee>
 800b4be:	f7f7 fc9f 	bl	8002e00 <led_w_on>
 800b4c2:	f7f7 fc8f 	bl	8002de4 <buzz_on>
 800b4c6:	4b3f      	ldr	r3, [pc, #252]	; (800b5c4 <HAL_TIM_PeriodElapsedCallback+0x2ec>)
 800b4c8:	691b      	ldr	r3, [r3, #16]
 800b4ca:	04db      	lsls	r3, r3, #19
 800b4cc:	d505      	bpl.n	800b4da <HAL_TIM_PeriodElapsedCallback+0x202>
 800b4ce:	7832      	ldrb	r2, [r6, #0]
 800b4d0:	6823      	ldr	r3, [r4, #0]
 800b4d2:	f853 3022 	ldr.w	r3, [r3, r2, lsl #2]
 800b4d6:	2200      	movs	r2, #0
 800b4d8:	721a      	strb	r2, [r3, #8]
 800b4da:	4b39      	ldr	r3, [pc, #228]	; (800b5c0 <HAL_TIM_PeriodElapsedCallback+0x2e8>)
 800b4dc:	2201      	movs	r2, #1
 800b4de:	701a      	strb	r2, [r3, #0]
 800b4e0:	e771      	b.n	800b3c6 <HAL_TIM_PeriodElapsedCallback+0xee>
 800b4e2:	4e37      	ldr	r6, [pc, #220]	; (800b5c0 <HAL_TIM_PeriodElapsedCallback+0x2e8>)
 800b4e4:	7833      	ldrb	r3, [r6, #0]
 800b4e6:	b12b      	cbz	r3, 800b4f4 <HAL_TIM_PeriodElapsedCallback+0x21c>
 800b4e8:	f7f7 fc90 	bl	8002e0c <led_w_off>
 800b4ec:	f7f7 fc80 	bl	8002df0 <buzz_off>
 800b4f0:	2300      	movs	r3, #0
 800b4f2:	7033      	strb	r3, [r6, #0]
 800b4f4:	f994 3009 	ldrsb.w	r3, [r4, #9]
 800b4f8:	b10b      	cbz	r3, 800b4fe <HAL_TIM_PeriodElapsedCallback+0x226>
 800b4fa:	f7f7 fc81 	bl	8002e00 <led_w_on>
 800b4fe:	2301      	movs	r3, #1
 800b500:	7123      	strb	r3, [r4, #4]
 800b502:	7023      	strb	r3, [r4, #0]
 800b504:	e75f      	b.n	800b3c6 <HAL_TIM_PeriodElapsedCallback+0xee>
 800b506:	f994 3009 	ldrsb.w	r3, [r4, #9]
 800b50a:	2b00      	cmp	r3, #0
 800b50c:	f43f af5b 	beq.w	800b3c6 <HAL_TIM_PeriodElapsedCallback+0xee>
 800b510:	f7f7 fc7c 	bl	8002e0c <led_w_off>
 800b514:	7a63      	ldrb	r3, [r4, #9]
 800b516:	3b01      	subs	r3, #1
 800b518:	7263      	strb	r3, [r4, #9]
 800b51a:	e754      	b.n	800b3c6 <HAL_TIM_PeriodElapsedCallback+0xee>
 800b51c:	f994 3009 	ldrsb.w	r3, [r4, #9]
 800b520:	2b00      	cmp	r3, #0
 800b522:	f43f af50 	beq.w	800b3c6 <HAL_TIM_PeriodElapsedCallback+0xee>
 800b526:	2b02      	cmp	r3, #2
 800b528:	f73f af4d 	bgt.w	800b3c6 <HAL_TIM_PeriodElapsedCallback+0xee>
 800b52c:	f7f7 fc68 	bl	8002e00 <led_w_on>
 800b530:	e749      	b.n	800b3c6 <HAL_TIM_PeriodElapsedCallback+0xee>
 800b532:	f994 3009 	ldrsb.w	r3, [r4, #9]
 800b536:	2b01      	cmp	r3, #1
 800b538:	f47f af45 	bne.w	800b3c6 <HAL_TIM_PeriodElapsedCallback+0xee>
 800b53c:	e7f6      	b.n	800b52c <HAL_TIM_PeriodElapsedCallback+0x254>
 800b53e:	7850      	ldrb	r0, [r2, #1]
 800b540:	f7f7 ff06 	bl	8003350 <getADC_sensors>
 800b544:	6833      	ldr	r3, [r6, #0]
 800b546:	4e18      	ldr	r6, [pc, #96]	; (800b5a8 <HAL_TIM_PeriodElapsedCallback+0x2d0>)
 800b548:	7858      	ldrb	r0, [r3, #1]
 800b54a:	f7f7 fd7d 	bl	8003048 <clear_fix_data>
 800b54e:	4630      	mov	r0, r6
 800b550:	f7fd f8f2 	bl	8008738 <HAL_TIM_Base_Stop_IT>
 800b554:	4a0d      	ldr	r2, [pc, #52]	; (800b58c <HAL_TIM_PeriodElapsedCallback+0x2b4>)
 800b556:	2300      	movs	r3, #0
 800b558:	7013      	strb	r3, [r2, #0]
 800b55a:	6832      	ldr	r2, [r6, #0]
 800b55c:	73a3      	strb	r3, [r4, #14]
 800b55e:	6253      	str	r3, [r2, #36]	; 0x24
 800b560:	f06f 0301 	mvn.w	r3, #1
 800b564:	6113      	str	r3, [r2, #16]
 800b566:	4630      	mov	r0, r6
 800b568:	f7fd f8c0 	bl	80086ec <HAL_TIM_Base_Start_IT>
 800b56c:	f7f7 fc1c 	bl	8002da8 <led_blue_on>
 800b570:	e729      	b.n	800b3c6 <HAL_TIM_PeriodElapsedCallback+0xee>
 800b572:	bf00      	nop
 800b574:	40012c00 	.word	0x40012c00
 800b578:	200011fb 	.word	0x200011fb
 800b57c:	20000578 	.word	0x20000578
 800b580:	20001164 	.word	0x20001164
 800b584:	2000116c 	.word	0x2000116c
 800b588:	08010ffd 	.word	0x08010ffd
 800b58c:	200011fc 	.word	0x200011fc
 800b590:	20001168 	.word	0x20001168
 800b594:	08010e38 	.word	0x08010e38
 800b598:	20001176 	.word	0x20001176
 800b59c:	2000115c 	.word	0x2000115c
 800b5a0:	40014400 	.word	0x40014400
 800b5a4:	20000a80 	.word	0x20000a80
 800b5a8:	20000a34 	.word	0x20000a34
 800b5ac:	20001175 	.word	0x20001175
 800b5b0:	40014800 	.word	0x40014800
 800b5b4:	20000acc 	.word	0x20000acc
 800b5b8:	20001170 	.word	0x20001170
 800b5bc:	2000115e 	.word	0x2000115e
 800b5c0:	20001160 	.word	0x20001160
 800b5c4:	48000400 	.word	0x48000400
 800b5c8:	4c20      	ldr	r4, [pc, #128]	; (800b64c <HAL_TIM_PeriodElapsedCallback+0x374>)
 800b5ca:	4e21      	ldr	r6, [pc, #132]	; (800b650 <HAL_TIM_PeriodElapsedCallback+0x378>)
 800b5cc:	f7f7 fbd4 	bl	8002d78 <led_toggle>
 800b5d0:	f994 3000 	ldrsb.w	r3, [r4]
 800b5d4:	68f2      	ldr	r2, [r6, #12]
 800b5d6:	2705      	movs	r7, #5
 800b5d8:	f04f 0803 	mov.w	r8, #3
 800b5dc:	fb17 8303 	smlabb	r3, r7, r3, r8
 800b5e0:	2019      	movs	r0, #25
 800b5e2:	4343      	muls	r3, r0
 800b5e4:	f503 23d3 	add.w	r3, r3, #432128	; 0x69800
 800b5e8:	f203 339a 	addw	r3, r3, #922	; 0x39a
 800b5ec:	f44f 707a 	mov.w	r0, #1000	; 0x3e8
 800b5f0:	4358      	muls	r0, r3
 800b5f2:	4790      	blx	r2
 800b5f4:	6b73      	ldr	r3, [r6, #52]	; 0x34
 800b5f6:	202d      	movs	r0, #45	; 0x2d
 800b5f8:	4798      	blx	r3
 800b5fa:	6df3      	ldr	r3, [r6, #92]	; 0x5c
 800b5fc:	4798      	blx	r3
 800b5fe:	f7fa faa3 	bl	8005b48 <HAL_Delay>
 800b602:	f8d6 9040 	ldr.w	r9, [r6, #64]	; 0x40
 800b606:	2001      	movs	r0, #1
 800b608:	47c8      	blx	r9
 800b60a:	f994 6000 	ldrsb.w	r6, [r4]
 800b60e:	4b11      	ldr	r3, [pc, #68]	; (800b654 <HAL_TIM_PeriodElapsedCallback+0x37c>)
 800b610:	4433      	add	r3, r6
 800b612:	fb17 8706 	smlabb	r7, r7, r6, r8
 800b616:	f883 0042 	strb.w	r0, [r3, #66]	; 0x42
 800b61a:	2001      	movs	r0, #1
 800b61c:	47c8      	blx	r9
 800b61e:	4603      	mov	r3, r0
 800b620:	480d      	ldr	r0, [pc, #52]	; (800b658 <HAL_TIM_PeriodElapsedCallback+0x380>)
 800b622:	490e      	ldr	r1, [pc, #56]	; (800b65c <HAL_TIM_PeriodElapsedCallback+0x384>)
 800b624:	3601      	adds	r6, #1
 800b626:	463a      	mov	r2, r7
 800b628:	eb00 1046 	add.w	r0, r0, r6, lsl #5
 800b62c:	f000 fb64 	bl	800bcf8 <siprintf>
 800b630:	7823      	ldrb	r3, [r4, #0]
 800b632:	3301      	adds	r3, #1
 800b634:	b25b      	sxtb	r3, r3
 800b636:	2b0c      	cmp	r3, #12
 800b638:	7023      	strb	r3, [r4, #0]
 800b63a:	f77f aec4 	ble.w	800b3c6 <HAL_TIM_PeriodElapsedCallback+0xee>
 800b63e:	4808      	ldr	r0, [pc, #32]	; (800b660 <HAL_TIM_PeriodElapsedCallback+0x388>)
 800b640:	f7fd f87a 	bl	8008738 <HAL_TIM_Base_Stop_IT>
 800b644:	e6bf      	b.n	800b3c6 <HAL_TIM_PeriodElapsedCallback+0xee>
 800b646:	b00b      	add	sp, #44	; 0x2c
 800b648:	e8bd 83f0 	ldmia.w	sp!, {r4, r5, r6, r7, r8, r9, pc}
 800b64c:	2000115d 	.word	0x2000115d
 800b650:	08010e38 	.word	0x08010e38
 800b654:	20001177 	.word	0x20001177
 800b658:	20000dc0 	.word	0x20000dc0
 800b65c:	08010f6c 	.word	0x08010f6c
 800b660:	20000a34 	.word	0x20000a34

0800b664 <scan_channels>:
 800b664:	e92d 4ff0 	stmdb	sp!, {r4, r5, r6, r7, r8, r9, sl, fp, lr}
 800b668:	4c66      	ldr	r4, [pc, #408]	; (800b804 <scan_channels+0x1a0>)
 800b66a:	b087      	sub	sp, #28
 800b66c:	4620      	mov	r0, r4
 800b66e:	f7fd f863 	bl	8008738 <HAL_TIM_Base_Stop_IT>
 800b672:	6823      	ldr	r3, [r4, #0]
 800b674:	4c64      	ldr	r4, [pc, #400]	; (800b808 <scan_channels+0x1a4>)
 800b676:	2500      	movs	r5, #0
 800b678:	f06f 0201 	mvn.w	r2, #1
 800b67c:	f64f 76e0 	movw	r6, #65504	; 0xffe0
 800b680:	625d      	str	r5, [r3, #36]	; 0x24
 800b682:	4628      	mov	r0, r5
 800b684:	611a      	str	r2, [r3, #16]
 800b686:	f7f6 fbd7 	bl	8001e38 <fillScreen>
 800b68a:	9502      	str	r5, [sp, #8]
 800b68c:	9601      	str	r6, [sp, #4]
 800b68e:	6863      	ldr	r3, [r4, #4]
 800b690:	9300      	str	r3, [sp, #0]
 800b692:	6823      	ldr	r3, [r4, #0]
 800b694:	4a5d      	ldr	r2, [pc, #372]	; (800b80c <scan_channels+0x1a8>)
 800b696:	2121      	movs	r1, #33	; 0x21
 800b698:	2003      	movs	r0, #3
 800b69a:	f7f6 fbcf 	bl	8001e3c <draw_str_by_rows>
 800b69e:	e9cd 6501 	strd	r6, r5, [sp, #4]
 800b6a2:	6863      	ldr	r3, [r4, #4]
 800b6a4:	9300      	str	r3, [sp, #0]
 800b6a6:	6823      	ldr	r3, [r4, #0]
 800b6a8:	4a59      	ldr	r2, [pc, #356]	; (800b810 <scan_channels+0x1ac>)
 800b6aa:	212c      	movs	r1, #44	; 0x2c
 800b6ac:	2003      	movs	r0, #3
 800b6ae:	f7f6 fbc5 	bl	8001e3c <draw_str_by_rows>
 800b6b2:	e9cd 6501 	strd	r6, r5, [sp, #4]
 800b6b6:	6863      	ldr	r3, [r4, #4]
 800b6b8:	9300      	str	r3, [sp, #0]
 800b6ba:	6823      	ldr	r3, [r4, #0]
 800b6bc:	4a55      	ldr	r2, [pc, #340]	; (800b814 <scan_channels+0x1b0>)
 800b6be:	2137      	movs	r1, #55	; 0x37
 800b6c0:	4628      	mov	r0, r5
 800b6c2:	f44f 67fc 	mov.w	r7, #2016	; 0x7e0
 800b6c6:	f7f6 fbb9 	bl	8001e3c <draw_str_by_rows>
 800b6ca:	9502      	str	r5, [sp, #8]
 800b6cc:	9701      	str	r7, [sp, #4]
 800b6ce:	6863      	ldr	r3, [r4, #4]
 800b6d0:	9300      	str	r3, [sp, #0]
 800b6d2:	6823      	ldr	r3, [r4, #0]
 800b6d4:	4a50      	ldr	r2, [pc, #320]	; (800b818 <scan_channels+0x1b4>)
 800b6d6:	214d      	movs	r1, #77	; 0x4d
 800b6d8:	4628      	mov	r0, r5
 800b6da:	f7f6 fbaf 	bl	8001e3c <draw_str_by_rows>
 800b6de:	e9cd 6501 	strd	r6, r5, [sp, #4]
 800b6e2:	6863      	ldr	r3, [r4, #4]
 800b6e4:	9300      	str	r3, [sp, #0]
 800b6e6:	6823      	ldr	r3, [r4, #0]
 800b6e8:	4a4c      	ldr	r2, [pc, #304]	; (800b81c <scan_channels+0x1b8>)
 800b6ea:	2163      	movs	r1, #99	; 0x63
 800b6ec:	4628      	mov	r0, r5
 800b6ee:	f7f6 fba5 	bl	8001e3c <draw_str_by_rows>
 800b6f2:	e9cd 7501 	strd	r7, r5, [sp, #4]
 800b6f6:	6863      	ldr	r3, [r4, #4]
 800b6f8:	9300      	str	r3, [sp, #0]
 800b6fa:	6823      	ldr	r3, [r4, #0]
 800b6fc:	4a48      	ldr	r2, [pc, #288]	; (800b820 <scan_channels+0x1bc>)
 800b6fe:	2179      	movs	r1, #121	; 0x79
 800b700:	2003      	movs	r0, #3
 800b702:	f7f6 fb9b 	bl	8001e3c <draw_str_by_rows>
 800b706:	f04f 4390 	mov.w	r3, #1207959552	; 0x48000000
 800b70a:	691a      	ldr	r2, [r3, #16]
 800b70c:	07d2      	lsls	r2, r2, #31
 800b70e:	d40c      	bmi.n	800b72a <scan_channels+0xc6>
 800b710:	f3bf 8f4f 	dsb	sy
 800b714:	4943      	ldr	r1, [pc, #268]	; (800b824 <scan_channels+0x1c0>)
 800b716:	4b44      	ldr	r3, [pc, #272]	; (800b828 <scan_channels+0x1c4>)
 800b718:	68ca      	ldr	r2, [r1, #12]
 800b71a:	f402 62e0 	and.w	r2, r2, #1792	; 0x700
 800b71e:	4313      	orrs	r3, r2
 800b720:	60cb      	str	r3, [r1, #12]
 800b722:	f3bf 8f4f 	dsb	sy
 800b726:	bf00      	nop
 800b728:	e7fd      	b.n	800b726 <scan_channels+0xc2>
 800b72a:	691d      	ldr	r5, [r3, #16]
 800b72c:	f015 0520 	ands.w	r5, r5, #32
 800b730:	d1eb      	bne.n	800b70a <scan_channels+0xa6>
 800b732:	220d      	movs	r2, #13
 800b734:	2181      	movs	r1, #129	; 0x81
 800b736:	483d      	ldr	r0, [pc, #244]	; (800b82c <scan_channels+0x1c8>)
 800b738:	f8df a0c8 	ldr.w	sl, [pc, #200]	; 800b804 <scan_channels+0x1a0>
 800b73c:	f8df b0f0 	ldr.w	fp, [pc, #240]	; 800b830 <scan_channels+0x1cc>
 800b740:	f000 faa4 	bl	800bc8c <memset>
 800b744:	4628      	mov	r0, r5
 800b746:	f7f6 fb77 	bl	8001e38 <fillScreen>
 800b74a:	2307      	movs	r3, #7
 800b74c:	9305      	str	r3, [sp, #20]
 800b74e:	4650      	mov	r0, sl
 800b750:	f7fc ffcc 	bl	80086ec <HAL_TIM_Base_Start_IT>
 800b754:	f44f 702f 	mov.w	r0, #700	; 0x2bc
 800b758:	f7fa f9f6 	bl	8005b48 <HAL_Delay>
 800b75c:	4650      	mov	r0, sl
 800b75e:	f7fc ffeb 	bl	8008738 <HAL_TIM_Base_Stop_IT>
 800b762:	4b34      	ldr	r3, [pc, #208]	; (800b834 <scan_channels+0x1d0>)
 800b764:	4934      	ldr	r1, [pc, #208]	; (800b838 <scan_channels+0x1d4>)
 800b766:	f993 2000 	ldrsb.w	r2, [r3]
 800b76a:	f8df 80c0 	ldr.w	r8, [pc, #192]	; 800b82c <scan_channels+0x1c8>
 800b76e:	4f33      	ldr	r7, [pc, #204]	; (800b83c <scan_channels+0x1d8>)
 800b770:	4658      	mov	r0, fp
 800b772:	f000 fac1 	bl	800bcf8 <siprintf>
 800b776:	f240 73ff 	movw	r3, #2047	; 0x7ff
 800b77a:	9502      	str	r5, [sp, #8]
 800b77c:	9301      	str	r3, [sp, #4]
 800b77e:	6863      	ldr	r3, [r4, #4]
 800b780:	9300      	str	r3, [sp, #0]
 800b782:	6823      	ldr	r3, [r4, #0]
 800b784:	465a      	mov	r2, fp
 800b786:	2104      	movs	r1, #4
 800b788:	2000      	movs	r0, #0
 800b78a:	f7f6 fb57 	bl	8001e3c <draw_str_by_rows>
 800b78e:	f04f 0903 	mov.w	r9, #3
 800b792:	260f      	movs	r6, #15
 800b794:	f918 2b01 	ldrsb.w	r2, [r8], #1
 800b798:	4929      	ldr	r1, [pc, #164]	; (800b840 <scan_channels+0x1dc>)
 800b79a:	f998 3041 	ldrsb.w	r3, [r8, #65]	; 0x41
 800b79e:	429a      	cmp	r2, r3
 800b7a0:	bfb8      	it	lt
 800b7a2:	f808 3c01 	strblt.w	r3, [r8, #-1]
 800b7a6:	f918 3c01 	ldrsb.w	r3, [r8, #-1]
 800b7aa:	464a      	mov	r2, r9
 800b7ac:	4638      	mov	r0, r7
 800b7ae:	f000 faa3 	bl	800bcf8 <siprintf>
 800b7b2:	f918 3c01 	ldrsb.w	r3, [r8, #-1]
 800b7b6:	9502      	str	r5, [sp, #8]
 800b7b8:	f113 0f3b 	cmn.w	r3, #59	; 0x3b
 800b7bc:	db1b      	blt.n	800b7f6 <scan_channels+0x192>
 800b7be:	f64f 0322 	movw	r3, #63522	; 0xf822
 800b7c2:	9301      	str	r3, [sp, #4]
 800b7c4:	6863      	ldr	r3, [r4, #4]
 800b7c6:	9300      	str	r3, [sp, #0]
 800b7c8:	4631      	mov	r1, r6
 800b7ca:	360b      	adds	r6, #11
 800b7cc:	463a      	mov	r2, r7
 800b7ce:	6823      	ldr	r3, [r4, #0]
 800b7d0:	2000      	movs	r0, #0
 800b7d2:	b2f6      	uxtb	r6, r6
 800b7d4:	f7f6 fb32 	bl	8001e3c <draw_str_by_rows>
 800b7d8:	2e9e      	cmp	r6, #158	; 0x9e
 800b7da:	f107 0720 	add.w	r7, r7, #32
 800b7de:	f109 0905 	add.w	r9, r9, #5
 800b7e2:	d1d7      	bne.n	800b794 <scan_channels+0x130>
 800b7e4:	4b13      	ldr	r3, [pc, #76]	; (800b834 <scan_channels+0x1d0>)
 800b7e6:	701d      	strb	r5, [r3, #0]
 800b7e8:	9b05      	ldr	r3, [sp, #20]
 800b7ea:	3b01      	subs	r3, #1
 800b7ec:	f013 03ff 	ands.w	r3, r3, #255	; 0xff
 800b7f0:	9305      	str	r3, [sp, #20]
 800b7f2:	d1ac      	bne.n	800b74e <scan_channels+0xea>
 800b7f4:	e787      	b.n	800b706 <scan_channels+0xa2>
 800b7f6:	3350      	adds	r3, #80	; 0x50
 800b7f8:	bfb4      	ite	lt
 800b7fa:	f44f 63fc 	movlt.w	r3, #2016	; 0x7e0
 800b7fe:	f64f 73e0 	movwge	r3, #65504	; 0xffe0
 800b802:	e7de      	b.n	800b7c2 <scan_channels+0x15e>
 800b804:	20000a34 	.word	0x20000a34
 800b808:	20000014 	.word	0x20000014
 800b80c:	08010f81 	.word	0x08010f81
 800b810:	08010f8e 	.word	0x08010f8e
 800b814:	08010f9c 	.word	0x08010f9c
 800b818:	08010faa 	.word	0x08010faa
 800b81c:	08010fbb 	.word	0x08010fbb
 800b820:	08010fc6 	.word	0x08010fc6
 800b824:	e000ed00 	.word	0xe000ed00
 800b828:	05fa0004 	.word	0x05fa0004
 800b82c:	20001177 	.word	0x20001177
 800b830:	20000dc0 	.word	0x20000dc0
 800b834:	2000115d 	.word	0x2000115d
 800b838:	08010fd8 	.word	0x08010fd8
 800b83c:	20000de0 	.word	0x20000de0
 800b840:	08010fe8 	.word	0x08010fe8

0800b844 <SubghzApp_Init>:
 800b844:	e92d 46f0 	stmdb	sp!, {r4, r5, r6, r7, r9, sl, lr}
 800b848:	b08d      	sub	sp, #52	; 0x34
 800b84a:	f7f9 ff61 	bl	8005710 <get_tx_power_values>
 800b84e:	4c37      	ldr	r4, [pc, #220]	; (800b92c <SubghzApp_Init+0xe8>)
 800b850:	4f37      	ldr	r7, [pc, #220]	; (800b930 <SubghzApp_Init+0xec>)
 800b852:	6020      	str	r0, [r4, #0]
 800b854:	f7f9 ff60 	bl	8005718 <get_settings>
 800b858:	6038      	str	r0, [r7, #0]
 800b85a:	f7f7 faf9 	bl	8002e50 <get_devices>
 800b85e:	4b35      	ldr	r3, [pc, #212]	; (800b934 <SubghzApp_Init+0xf0>)
 800b860:	4e35      	ldr	r6, [pc, #212]	; (800b938 <SubghzApp_Init+0xf4>)
 800b862:	6018      	str	r0, [r3, #0]
 800b864:	f7f6 fcc4 	bl	80021f0 <SYS_InitMeasurement>
 800b868:	4834      	ldr	r0, [pc, #208]	; (800b93c <SubghzApp_Init+0xf8>)
 800b86a:	4b35      	ldr	r3, [pc, #212]	; (800b940 <SubghzApp_Init+0xfc>)
 800b86c:	6003      	str	r3, [r0, #0]
 800b86e:	4b35      	ldr	r3, [pc, #212]	; (800b944 <SubghzApp_Init+0x100>)
 800b870:	6083      	str	r3, [r0, #8]
 800b872:	4b35      	ldr	r3, [pc, #212]	; (800b948 <SubghzApp_Init+0x104>)
 800b874:	6043      	str	r3, [r0, #4]
 800b876:	4b35      	ldr	r3, [pc, #212]	; (800b94c <SubghzApp_Init+0x108>)
 800b878:	60c3      	str	r3, [r0, #12]
 800b87a:	4b35      	ldr	r3, [pc, #212]	; (800b950 <SubghzApp_Init+0x10c>)
 800b87c:	6103      	str	r3, [r0, #16]
 800b87e:	6833      	ldr	r3, [r6, #0]
 800b880:	4798      	blx	r3
 800b882:	6973      	ldr	r3, [r6, #20]
 800b884:	4798      	blx	r3
 800b886:	f000 fa09 	bl	800bc9c <srand>
 800b88a:	683b      	ldr	r3, [r7, #0]
 800b88c:	6821      	ldr	r1, [r4, #0]
 800b88e:	799a      	ldrb	r2, [r3, #6]
 800b890:	2400      	movs	r4, #0
 800b892:	5689      	ldrsb	r1, [r1, r2]
 800b894:	2501      	movs	r5, #1
 800b896:	f240 22ee 	movw	r2, #750	; 0x2ee
 800b89a:	e9cd 4207 	strd	r4, r2, [sp, #28]
 800b89e:	e9cd 4405 	strd	r4, r4, [sp, #20]
 800b8a2:	e9cd 5503 	strd	r5, r5, [sp, #12]
 800b8a6:	f04f 0a08 	mov.w	sl, #8
 800b8aa:	f8cd a008 	str.w	sl, [sp, #8]
 800b8ae:	791a      	ldrb	r2, [r3, #4]
 800b8b0:	9201      	str	r2, [sp, #4]
 800b8b2:	78db      	ldrb	r3, [r3, #3]
 800b8b4:	9300      	str	r3, [sp, #0]
 800b8b6:	69f3      	ldr	r3, [r6, #28]
 800b8b8:	930b      	str	r3, [sp, #44]	; 0x2c
 800b8ba:	f8dd c02c 	ldr.w	ip, [sp, #44]	; 0x2c
 800b8be:	4623      	mov	r3, r4
 800b8c0:	4622      	mov	r2, r4
 800b8c2:	4628      	mov	r0, r5
 800b8c4:	47e0      	blx	ip
 800b8c6:	683a      	ldr	r2, [r7, #0]
 800b8c8:	2105      	movs	r1, #5
 800b8ca:	7913      	ldrb	r3, [r2, #4]
 800b8cc:	78d2      	ldrb	r2, [r2, #3]
 800b8ce:	9400      	str	r4, [sp, #0]
 800b8d0:	e9cd a101 	strd	sl, r1, [sp, #4]
 800b8d4:	69b1      	ldr	r1, [r6, #24]
 800b8d6:	910b      	str	r1, [sp, #44]	; 0x2c
 800b8d8:	f04f 090d 	mov.w	r9, #13
 800b8dc:	4621      	mov	r1, r4
 800b8de:	e9cd 4508 	strd	r4, r5, [sp, #32]
 800b8e2:	e9cd 4406 	strd	r4, r4, [sp, #24]
 800b8e6:	4628      	mov	r0, r5
 800b8e8:	e9cd 5903 	strd	r5, r9, [sp, #12]
 800b8ec:	9c0b      	ldr	r4, [sp, #44]	; 0x2c
 800b8ee:	9505      	str	r5, [sp, #20]
 800b8f0:	47a0      	blx	r4
 800b8f2:	4649      	mov	r1, r9
 800b8f4:	6d73      	ldr	r3, [r6, #84]	; 0x54
 800b8f6:	4628      	mov	r0, r5
 800b8f8:	4798      	blx	r3
 800b8fa:	683b      	ldr	r3, [r7, #0]
 800b8fc:	4815      	ldr	r0, [pc, #84]	; (800b954 <SubghzApp_Init+0x110>)
 800b8fe:	795a      	ldrb	r2, [r3, #5]
 800b900:	2319      	movs	r3, #25
 800b902:	fb13 0302 	smlabb	r3, r3, r2, r0
 800b906:	f44f 707a 	mov.w	r0, #1000	; 0x3e8
 800b90a:	68f2      	ldr	r2, [r6, #12]
 800b90c:	4358      	muls	r0, r3
 800b90e:	4790      	blx	r2
 800b910:	6df3      	ldr	r3, [r6, #92]	; 0x5c
 800b912:	4798      	blx	r3
 800b914:	3032      	adds	r0, #50	; 0x32
 800b916:	f7fa f917 	bl	8005b48 <HAL_Delay>
 800b91a:	4b0f      	ldr	r3, [pc, #60]	; (800b958 <SubghzApp_Init+0x114>)
 800b91c:	f993 3000 	ldrsb.w	r3, [r3]
 800b920:	b10b      	cbz	r3, 800b926 <SubghzApp_Init+0xe2>
 800b922:	f7ff fe9f 	bl	800b664 <scan_channels>
 800b926:	b00d      	add	sp, #52	; 0x34
 800b928:	e8bd 86f0 	ldmia.w	sp!, {r4, r5, r6, r7, r9, sl, pc}
 800b92c:	20001168 	.word	0x20001168
 800b930:	20001164 	.word	0x20001164
 800b934:	20001170 	.word	0x20001170
 800b938:	08010e38 	.word	0x08010e38
 800b93c:	20001124 	.word	0x20001124
 800b940:	0800aef1 	.word	0x0800aef1
 800b944:	0800ae3d 	.word	0x0800ae3d
 800b948:	0800ae35 	.word	0x0800ae35
 800b94c:	0800ae37 	.word	0x0800ae37
 800b950:	0800ae39 	.word	0x0800ae39
 800b954:	00069b9a 	.word	0x00069b9a
 800b958:	200011fb 	.word	0x200011fb

0800b95c <RBI_Init>:
 800b95c:	f7fa bb77 	b.w	800604e <BSP_RADIO_Init>

0800b960 <RBI_ConfigRFSwitch>:
 800b960:	f7fa bbbd 	b.w	80060de <BSP_RADIO_ConfigRFSwitch>

0800b964 <RBI_GetTxConfig>:
 800b964:	f7fa bbd9 	b.w	800611a <BSP_RADIO_GetTxConfig>

0800b968 <RBI_IsTCXO>:
 800b968:	f7fa bbd9 	b.w	800611e <BSP_RADIO_IsTCXO>

0800b96c <RBI_IsDCDC>:
 800b96c:	f7fa bbd9 	b.w	8006122 <BSP_RADIO_IsDCDC>

0800b970 <RBI_GetRFOMaxPowerConfig>:
 800b970:	f7fa bbd9 	b.w	8006126 <BSP_RADIO_GetRFOMaxPowerConfig>

0800b974 <UTIL_MEM_cpy_8>:
 800b974:	3801      	subs	r0, #1
 800b976:	440a      	add	r2, r1
 800b978:	4291      	cmp	r1, r2
 800b97a:	d100      	bne.n	800b97e <UTIL_MEM_cpy_8+0xa>
 800b97c:	4770      	bx	lr
 800b97e:	f811 3b01 	ldrb.w	r3, [r1], #1
 800b982:	f800 3f01 	strb.w	r3, [r0, #1]!
 800b986:	e7f7      	b.n	800b978 <UTIL_MEM_cpy_8+0x4>

0800b988 <UTIL_MEM_set_8>:
 800b988:	f000 b980 	b.w	800bc8c <memset>

0800b98c <UTIL_TIMER_Init>:
 800b98c:	4b02      	ldr	r3, [pc, #8]	; (800b998 <UTIL_TIMER_Init+0xc>)
 800b98e:	2200      	movs	r2, #0
 800b990:	601a      	str	r2, [r3, #0]
 800b992:	4b02      	ldr	r3, [pc, #8]	; (800b99c <UTIL_TIMER_Init+0x10>)
 800b994:	681b      	ldr	r3, [r3, #0]
 800b996:	4718      	bx	r3
 800b998:	20001200 	.word	0x20001200
 800b99c:	08010da0 	.word	0x08010da0

0800b9a0 <UTIL_TIMER_Create>:
 800b9a0:	b5f8      	push	{r3, r4, r5, r6, r7, lr}
 800b9a2:	4604      	mov	r4, r0
 800b9a4:	4617      	mov	r7, r2
 800b9a6:	4608      	mov	r0, r1
 800b9a8:	461e      	mov	r6, r3
 800b9aa:	b17c      	cbz	r4, 800b9cc <UTIL_TIMER_Create+0x2c>
 800b9ac:	b173      	cbz	r3, 800b9cc <UTIL_TIMER_Create+0x2c>
 800b9ae:	4b08      	ldr	r3, [pc, #32]	; (800b9d0 <UTIL_TIMER_Create+0x30>)
 800b9b0:	2500      	movs	r5, #0
 800b9b2:	6a5b      	ldr	r3, [r3, #36]	; 0x24
 800b9b4:	6025      	str	r5, [r4, #0]
 800b9b6:	4798      	blx	r3
 800b9b8:	9b06      	ldr	r3, [sp, #24]
 800b9ba:	6060      	str	r0, [r4, #4]
 800b9bc:	8125      	strh	r5, [r4, #8]
 800b9be:	72a5      	strb	r5, [r4, #10]
 800b9c0:	60e6      	str	r6, [r4, #12]
 800b9c2:	6123      	str	r3, [r4, #16]
 800b9c4:	72e7      	strb	r7, [r4, #11]
 800b9c6:	6165      	str	r5, [r4, #20]
 800b9c8:	4628      	mov	r0, r5
 800b9ca:	bdf8      	pop	{r3, r4, r5, r6, r7, pc}
 800b9cc:	2001      	movs	r0, #1
 800b9ce:	e7fc      	b.n	800b9ca <UTIL_TIMER_Create+0x2a>
 800b9d0:	08010da0 	.word	0x08010da0

0800b9d4 <UTIL_TIMER_GetCurrentTime>:
 800b9d4:	b510      	push	{r4, lr}
 800b9d6:	4c03      	ldr	r4, [pc, #12]	; (800b9e4 <UTIL_TIMER_GetCurrentTime+0x10>)
 800b9d8:	69e3      	ldr	r3, [r4, #28]
 800b9da:	4798      	blx	r3
 800b9dc:	6aa3      	ldr	r3, [r4, #40]	; 0x28
 800b9de:	e8bd 4010 	ldmia.w	sp!, {r4, lr}
 800b9e2:	4718      	bx	r3
 800b9e4:	08010da0 	.word	0x08010da0

0800b9e8 <UTIL_TIMER_GetElapsedTime>:
 800b9e8:	b570      	push	{r4, r5, r6, lr}
 800b9ea:	4d06      	ldr	r5, [pc, #24]	; (800ba04 <UTIL_TIMER_GetElapsedTime+0x1c>)
 800b9ec:	69eb      	ldr	r3, [r5, #28]
 800b9ee:	4606      	mov	r6, r0
 800b9f0:	4798      	blx	r3
 800b9f2:	6a6b      	ldr	r3, [r5, #36]	; 0x24
 800b9f4:	4604      	mov	r4, r0
 800b9f6:	4630      	mov	r0, r6
 800b9f8:	4798      	blx	r3
 800b9fa:	6aab      	ldr	r3, [r5, #40]	; 0x28
 800b9fc:	1a20      	subs	r0, r4, r0
 800b9fe:	e8bd 4070 	ldmia.w	sp!, {r4, r5, r6, lr}
 800ba02:	4718      	bx	r3
 800ba04:	08010da0 	.word	0x08010da0

0800ba08 <TimerExists>:
 800ba08:	4a05      	ldr	r2, [pc, #20]	; (800ba20 <TimerExists+0x18>)
 800ba0a:	4603      	mov	r3, r0
 800ba0c:	6810      	ldr	r0, [r2, #0]
 800ba0e:	b900      	cbnz	r0, 800ba12 <TimerExists+0xa>
 800ba10:	4770      	bx	lr
 800ba12:	4298      	cmp	r0, r3
 800ba14:	d001      	beq.n	800ba1a <TimerExists+0x12>
 800ba16:	6940      	ldr	r0, [r0, #20]
 800ba18:	e7f9      	b.n	800ba0e <TimerExists+0x6>
 800ba1a:	2001      	movs	r0, #1
 800ba1c:	4770      	bx	lr
 800ba1e:	bf00      	nop
 800ba20:	20001200 	.word	0x20001200

0800ba24 <TimerSetTimeout>:
 800ba24:	e92d 41f3 	stmdb	sp!, {r0, r1, r4, r5, r6, r7, r8, lr}
 800ba28:	4e0b      	ldr	r6, [pc, #44]	; (800ba58 <TimerSetTimeout+0x34>)
 800ba2a:	6a33      	ldr	r3, [r6, #32]
 800ba2c:	4604      	mov	r4, r0
 800ba2e:	4798      	blx	r3
 800ba30:	2301      	movs	r3, #1
 800ba32:	69b7      	ldr	r7, [r6, #24]
 800ba34:	7223      	strb	r3, [r4, #8]
 800ba36:	f8d4 8000 	ldr.w	r8, [r4]
 800ba3a:	4605      	mov	r5, r0
 800ba3c:	47b8      	blx	r7
 800ba3e:	4428      	add	r0, r5
 800ba40:	4580      	cmp	r8, r0
 800ba42:	d202      	bcs.n	800ba4a <TimerSetTimeout+0x26>
 800ba44:	47b8      	blx	r7
 800ba46:	4405      	add	r5, r0
 800ba48:	6025      	str	r5, [r4, #0]
 800ba4a:	68b3      	ldr	r3, [r6, #8]
 800ba4c:	6820      	ldr	r0, [r4, #0]
 800ba4e:	9301      	str	r3, [sp, #4]
 800ba50:	b002      	add	sp, #8
 800ba52:	e8bd 41f0 	ldmia.w	sp!, {r4, r5, r6, r7, r8, lr}
 800ba56:	4718      	bx	r3
 800ba58:	08010da0 	.word	0x08010da0

0800ba5c <UTIL_TIMER_Stop>:
 800ba5c:	b570      	push	{r4, r5, r6, lr}
 800ba5e:	b320      	cbz	r0, 800baaa <UTIL_TIMER_Stop+0x4e>
 800ba60:	f3ef 8610 	mrs	r6, PRIMASK
 800ba64:	b672      	cpsid	i
 800ba66:	4d12      	ldr	r5, [pc, #72]	; (800bab0 <UTIL_TIMER_Stop+0x54>)
 800ba68:	682b      	ldr	r3, [r5, #0]
 800ba6a:	2201      	movs	r2, #1
 800ba6c:	7282      	strb	r2, [r0, #10]
 800ba6e:	b153      	cbz	r3, 800ba86 <UTIL_TIMER_Stop+0x2a>
 800ba70:	2200      	movs	r2, #0
 800ba72:	4298      	cmp	r0, r3
 800ba74:	7242      	strb	r2, [r0, #9]
 800ba76:	d10f      	bne.n	800ba98 <UTIL_TIMER_Stop+0x3c>
 800ba78:	6944      	ldr	r4, [r0, #20]
 800ba7a:	7202      	strb	r2, [r0, #8]
 800ba7c:	b13c      	cbz	r4, 800ba8e <UTIL_TIMER_Stop+0x32>
 800ba7e:	4620      	mov	r0, r4
 800ba80:	602c      	str	r4, [r5, #0]
 800ba82:	f7ff ffcf 	bl	800ba24 <TimerSetTimeout>
 800ba86:	f386 8810 	msr	PRIMASK, r6
 800ba8a:	2000      	movs	r0, #0
 800ba8c:	bd70      	pop	{r4, r5, r6, pc}
 800ba8e:	4b09      	ldr	r3, [pc, #36]	; (800bab4 <UTIL_TIMER_Stop+0x58>)
 800ba90:	68db      	ldr	r3, [r3, #12]
 800ba92:	4798      	blx	r3
 800ba94:	602c      	str	r4, [r5, #0]
 800ba96:	e7f6      	b.n	800ba86 <UTIL_TIMER_Stop+0x2a>
 800ba98:	461a      	mov	r2, r3
 800ba9a:	695b      	ldr	r3, [r3, #20]
 800ba9c:	2b00      	cmp	r3, #0
 800ba9e:	d0f2      	beq.n	800ba86 <UTIL_TIMER_Stop+0x2a>
 800baa0:	4298      	cmp	r0, r3
 800baa2:	d1f9      	bne.n	800ba98 <UTIL_TIMER_Stop+0x3c>
 800baa4:	6943      	ldr	r3, [r0, #20]
 800baa6:	6153      	str	r3, [r2, #20]
 800baa8:	e7ed      	b.n	800ba86 <UTIL_TIMER_Stop+0x2a>
 800baaa:	2001      	movs	r0, #1
 800baac:	e7ee      	b.n	800ba8c <UTIL_TIMER_Stop+0x30>
 800baae:	bf00      	nop
 800bab0:	20001200 	.word	0x20001200
 800bab4:	08010da0 	.word	0x08010da0

0800bab8 <TimerInsertTimer>:
 800bab8:	4b09      	ldr	r3, [pc, #36]	; (800bae0 <TimerInsertTimer+0x28>)
 800baba:	b510      	push	{r4, lr}
 800babc:	681b      	ldr	r3, [r3, #0]
 800babe:	695a      	ldr	r2, [r3, #20]
 800bac0:	6959      	ldr	r1, [r3, #20]
 800bac2:	b911      	cbnz	r1, 800baca <TimerInsertTimer+0x12>
 800bac4:	6158      	str	r0, [r3, #20]
 800bac6:	6141      	str	r1, [r0, #20]
 800bac8:	e008      	b.n	800badc <TimerInsertTimer+0x24>
 800baca:	6804      	ldr	r4, [r0, #0]
 800bacc:	6811      	ldr	r1, [r2, #0]
 800bace:	428c      	cmp	r4, r1
 800bad0:	d902      	bls.n	800bad8 <TimerInsertTimer+0x20>
 800bad2:	4613      	mov	r3, r2
 800bad4:	6952      	ldr	r2, [r2, #20]
 800bad6:	e7f3      	b.n	800bac0 <TimerInsertTimer+0x8>
 800bad8:	6158      	str	r0, [r3, #20]
 800bada:	6142      	str	r2, [r0, #20]
 800badc:	bd10      	pop	{r4, pc}
 800bade:	bf00      	nop
 800bae0:	20001200 	.word	0x20001200

0800bae4 <TimerInsertNewHeadTimer>:
 800bae4:	4a04      	ldr	r2, [pc, #16]	; (800baf8 <TimerInsertNewHeadTimer+0x14>)
 800bae6:	6813      	ldr	r3, [r2, #0]
 800bae8:	b10b      	cbz	r3, 800baee <TimerInsertNewHeadTimer+0xa>
 800baea:	2100      	movs	r1, #0
 800baec:	7219      	strb	r1, [r3, #8]
 800baee:	6143      	str	r3, [r0, #20]
 800baf0:	6010      	str	r0, [r2, #0]
 800baf2:	f7ff bf97 	b.w	800ba24 <TimerSetTimeout>
 800baf6:	bf00      	nop
 800baf8:	20001200 	.word	0x20001200

0800bafc <UTIL_TIMER_Start>:
 800bafc:	e92d 41f0 	stmdb	sp!, {r4, r5, r6, r7, r8, lr}
 800bb00:	4604      	mov	r4, r0
 800bb02:	2800      	cmp	r0, #0
 800bb04:	d02d      	beq.n	800bb62 <UTIL_TIMER_Start+0x66>
 800bb06:	f7ff ff7f 	bl	800ba08 <TimerExists>
 800bb0a:	bb50      	cbnz	r0, 800bb62 <UTIL_TIMER_Start+0x66>
 800bb0c:	7a65      	ldrb	r5, [r4, #9]
 800bb0e:	bb45      	cbnz	r5, 800bb62 <UTIL_TIMER_Start+0x66>
 800bb10:	f3ef 8810 	mrs	r8, PRIMASK
 800bb14:	b672      	cpsid	i
 800bb16:	4e14      	ldr	r6, [pc, #80]	; (800bb68 <UTIL_TIMER_Start+0x6c>)
 800bb18:	6867      	ldr	r7, [r4, #4]
 800bb1a:	6a33      	ldr	r3, [r6, #32]
 800bb1c:	4798      	blx	r3
 800bb1e:	4287      	cmp	r7, r0
 800bb20:	bf2c      	ite	cs
 800bb22:	6027      	strcs	r7, [r4, #0]
 800bb24:	6020      	strcc	r0, [r4, #0]
 800bb26:	4f11      	ldr	r7, [pc, #68]	; (800bb6c <UTIL_TIMER_Start+0x70>)
 800bb28:	72a5      	strb	r5, [r4, #10]
 800bb2a:	f44f 7380 	mov.w	r3, #256	; 0x100
 800bb2e:	8123      	strh	r3, [r4, #8]
 800bb30:	683b      	ldr	r3, [r7, #0]
 800bb32:	b94b      	cbnz	r3, 800bb48 <UTIL_TIMER_Start+0x4c>
 800bb34:	6933      	ldr	r3, [r6, #16]
 800bb36:	4798      	blx	r3
 800bb38:	4620      	mov	r0, r4
 800bb3a:	f7ff ffd3 	bl	800bae4 <TimerInsertNewHeadTimer>
 800bb3e:	f388 8810 	msr	PRIMASK, r8
 800bb42:	4628      	mov	r0, r5
 800bb44:	e8bd 81f0 	ldmia.w	sp!, {r4, r5, r6, r7, r8, pc}
 800bb48:	69b3      	ldr	r3, [r6, #24]
 800bb4a:	4798      	blx	r3
 800bb4c:	6823      	ldr	r3, [r4, #0]
 800bb4e:	4418      	add	r0, r3
 800bb50:	683b      	ldr	r3, [r7, #0]
 800bb52:	6020      	str	r0, [r4, #0]
 800bb54:	681b      	ldr	r3, [r3, #0]
 800bb56:	4298      	cmp	r0, r3
 800bb58:	4620      	mov	r0, r4
 800bb5a:	d3ee      	bcc.n	800bb3a <UTIL_TIMER_Start+0x3e>
 800bb5c:	f7ff ffac 	bl	800bab8 <TimerInsertTimer>
 800bb60:	e7ed      	b.n	800bb3e <UTIL_TIMER_Start+0x42>
 800bb62:	2501      	movs	r5, #1
 800bb64:	e7ed      	b.n	800bb42 <UTIL_TIMER_Start+0x46>
 800bb66:	bf00      	nop
 800bb68:	08010da0 	.word	0x08010da0
 800bb6c:	20001200 	.word	0x20001200

0800bb70 <UTIL_TIMER_SetPeriod>:
 800bb70:	b510      	push	{r4, lr}
 800bb72:	4604      	mov	r4, r0
 800bb74:	4608      	mov	r0, r1
 800bb76:	b17c      	cbz	r4, 800bb98 <UTIL_TIMER_SetPeriod+0x28>
 800bb78:	4b08      	ldr	r3, [pc, #32]	; (800bb9c <UTIL_TIMER_SetPeriod+0x2c>)
 800bb7a:	6a5b      	ldr	r3, [r3, #36]	; 0x24
 800bb7c:	4798      	blx	r3
 800bb7e:	6060      	str	r0, [r4, #4]
 800bb80:	4620      	mov	r0, r4
 800bb82:	f7ff ff41 	bl	800ba08 <TimerExists>
 800bb86:	b140      	cbz	r0, 800bb9a <UTIL_TIMER_SetPeriod+0x2a>
 800bb88:	4620      	mov	r0, r4
 800bb8a:	f7ff ff67 	bl	800ba5c <UTIL_TIMER_Stop>
 800bb8e:	4620      	mov	r0, r4
 800bb90:	e8bd 4010 	ldmia.w	sp!, {r4, lr}
 800bb94:	f7ff bfb2 	b.w	800bafc <UTIL_TIMER_Start>
 800bb98:	2001      	movs	r0, #1
 800bb9a:	bd10      	pop	{r4, pc}
 800bb9c:	08010da0 	.word	0x08010da0

0800bba0 <UTIL_TIMER_IRQ_Handler>:
 800bba0:	e92d 41f0 	stmdb	sp!, {r4, r5, r6, r7, r8, lr}
 800bba4:	f3ef 8710 	mrs	r7, PRIMASK
 800bba8:	b672      	cpsid	i
 800bbaa:	4e1d      	ldr	r6, [pc, #116]	; (800bc20 <UTIL_TIMER_IRQ_Handler+0x80>)
 800bbac:	4d1d      	ldr	r5, [pc, #116]	; (800bc24 <UTIL_TIMER_IRQ_Handler+0x84>)
 800bbae:	6973      	ldr	r3, [r6, #20]
 800bbb0:	4798      	blx	r3
 800bbb2:	6933      	ldr	r3, [r6, #16]
 800bbb4:	4604      	mov	r4, r0
 800bbb6:	4798      	blx	r3
 800bbb8:	682b      	ldr	r3, [r5, #0]
 800bbba:	b94b      	cbnz	r3, 800bbd0 <UTIL_TIMER_IRQ_Handler+0x30>
 800bbbc:	f04f 0800 	mov.w	r8, #0
 800bbc0:	682b      	ldr	r3, [r5, #0]
 800bbc2:	b98b      	cbnz	r3, 800bbe8 <UTIL_TIMER_IRQ_Handler+0x48>
 800bbc4:	6828      	ldr	r0, [r5, #0]
 800bbc6:	bb28      	cbnz	r0, 800bc14 <UTIL_TIMER_IRQ_Handler+0x74>
 800bbc8:	f387 8810 	msr	PRIMASK, r7
 800bbcc:	e8bd 81f0 	ldmia.w	sp!, {r4, r5, r6, r7, r8, pc}
 800bbd0:	1b01      	subs	r1, r0, r4
 800bbd2:	1a24      	subs	r4, r4, r0
 800bbd4:	681a      	ldr	r2, [r3, #0]
 800bbd6:	428a      	cmp	r2, r1
 800bbd8:	bf8c      	ite	hi
 800bbda:	1912      	addhi	r2, r2, r4
 800bbdc:	2200      	movls	r2, #0
 800bbde:	601a      	str	r2, [r3, #0]
 800bbe0:	695b      	ldr	r3, [r3, #20]
 800bbe2:	2b00      	cmp	r3, #0
 800bbe4:	d1f6      	bne.n	800bbd4 <UTIL_TIMER_IRQ_Handler+0x34>
 800bbe6:	e7e9      	b.n	800bbbc <UTIL_TIMER_IRQ_Handler+0x1c>
 800bbe8:	681c      	ldr	r4, [r3, #0]
 800bbea:	b11c      	cbz	r4, 800bbf4 <UTIL_TIMER_IRQ_Handler+0x54>
 800bbec:	69b3      	ldr	r3, [r6, #24]
 800bbee:	4798      	blx	r3
 800bbf0:	4284      	cmp	r4, r0
 800bbf2:	d2e7      	bcs.n	800bbc4 <UTIL_TIMER_IRQ_Handler+0x24>
 800bbf4:	682c      	ldr	r4, [r5, #0]
 800bbf6:	6963      	ldr	r3, [r4, #20]
 800bbf8:	602b      	str	r3, [r5, #0]
 800bbfa:	f8a4 8008 	strh.w	r8, [r4, #8]
 800bbfe:	e9d4 3003 	ldrd	r3, r0, [r4, #12]
 800bc02:	4798      	blx	r3
 800bc04:	8963      	ldrh	r3, [r4, #10]
 800bc06:	f5b3 7f80 	cmp.w	r3, #256	; 0x100
 800bc0a:	d1d9      	bne.n	800bbc0 <UTIL_TIMER_IRQ_Handler+0x20>
 800bc0c:	4620      	mov	r0, r4
 800bc0e:	f7ff ff75 	bl	800bafc <UTIL_TIMER_Start>
 800bc12:	e7d5      	b.n	800bbc0 <UTIL_TIMER_IRQ_Handler+0x20>
 800bc14:	7a03      	ldrb	r3, [r0, #8]
 800bc16:	2b00      	cmp	r3, #0
 800bc18:	d1d6      	bne.n	800bbc8 <UTIL_TIMER_IRQ_Handler+0x28>
 800bc1a:	f7ff ff03 	bl	800ba24 <TimerSetTimeout>
 800bc1e:	e7d3      	b.n	800bbc8 <UTIL_TIMER_IRQ_Handler+0x28>
 800bc20:	08010da0 	.word	0x08010da0
 800bc24:	20001200 	.word	0x20001200

0800bc28 <__libc_init_array>:
 800bc28:	b570      	push	{r4, r5, r6, lr}
 800bc2a:	4d0d      	ldr	r5, [pc, #52]	; (800bc60 <__libc_init_array+0x38>)
 800bc2c:	4c0d      	ldr	r4, [pc, #52]	; (800bc64 <__libc_init_array+0x3c>)
 800bc2e:	1b64      	subs	r4, r4, r5
 800bc30:	10a4      	asrs	r4, r4, #2
 800bc32:	2600      	movs	r6, #0
 800bc34:	42a6      	cmp	r6, r4
 800bc36:	d109      	bne.n	800bc4c <__libc_init_array+0x24>
 800bc38:	4d0b      	ldr	r5, [pc, #44]	; (800bc68 <__libc_init_array+0x40>)
 800bc3a:	4c0c      	ldr	r4, [pc, #48]	; (800bc6c <__libc_init_array+0x44>)
 800bc3c:	f002 fdf0 	bl	800e820 <_init>
 800bc40:	1b64      	subs	r4, r4, r5
 800bc42:	10a4      	asrs	r4, r4, #2
 800bc44:	2600      	movs	r6, #0
 800bc46:	42a6      	cmp	r6, r4
 800bc48:	d105      	bne.n	800bc56 <__libc_init_array+0x2e>
 800bc4a:	bd70      	pop	{r4, r5, r6, pc}
 800bc4c:	f855 3b04 	ldr.w	r3, [r5], #4
 800bc50:	4798      	blx	r3
 800bc52:	3601      	adds	r6, #1
 800bc54:	e7ee      	b.n	800bc34 <__libc_init_array+0xc>
 800bc56:	f855 3b04 	ldr.w	r3, [r5], #4
 800bc5a:	4798      	blx	r3
 800bc5c:	3601      	adds	r6, #1
 800bc5e:	e7f2      	b.n	800bc46 <__libc_init_array+0x1e>
 800bc60:	08011468 	.word	0x08011468
 800bc64:	08011468 	.word	0x08011468
 800bc68:	08011468 	.word	0x08011468
 800bc6c:	0801146c 	.word	0x0801146c

0800bc70 <memcpy>:
 800bc70:	440a      	add	r2, r1
 800bc72:	4291      	cmp	r1, r2
 800bc74:	f100 33ff 	add.w	r3, r0, #4294967295	; 0xffffffff
 800bc78:	d100      	bne.n	800bc7c <memcpy+0xc>
 800bc7a:	4770      	bx	lr
 800bc7c:	b510      	push	{r4, lr}
 800bc7e:	f811 4b01 	ldrb.w	r4, [r1], #1
 800bc82:	f803 4f01 	strb.w	r4, [r3, #1]!
 800bc86:	4291      	cmp	r1, r2
 800bc88:	d1f9      	bne.n	800bc7e <memcpy+0xe>
 800bc8a:	bd10      	pop	{r4, pc}

0800bc8c <memset>:
 800bc8c:	4402      	add	r2, r0
 800bc8e:	4603      	mov	r3, r0
 800bc90:	4293      	cmp	r3, r2
 800bc92:	d100      	bne.n	800bc96 <memset+0xa>
 800bc94:	4770      	bx	lr
 800bc96:	f803 1b01 	strb.w	r1, [r3], #1
 800bc9a:	e7f9      	b.n	800bc90 <memset+0x4>

0800bc9c <srand>:
 800bc9c:	b538      	push	{r3, r4, r5, lr}
 800bc9e:	4b10      	ldr	r3, [pc, #64]	; (800bce0 <srand+0x44>)
 800bca0:	681d      	ldr	r5, [r3, #0]
 800bca2:	6bab      	ldr	r3, [r5, #56]	; 0x38
 800bca4:	4604      	mov	r4, r0
 800bca6:	b9b3      	cbnz	r3, 800bcd6 <srand+0x3a>
 800bca8:	2018      	movs	r0, #24
 800bcaa:	f000 f975 	bl	800bf98 <malloc>
 800bcae:	4602      	mov	r2, r0
 800bcb0:	63a8      	str	r0, [r5, #56]	; 0x38
 800bcb2:	b920      	cbnz	r0, 800bcbe <srand+0x22>
 800bcb4:	4b0b      	ldr	r3, [pc, #44]	; (800bce4 <srand+0x48>)
 800bcb6:	480c      	ldr	r0, [pc, #48]	; (800bce8 <srand+0x4c>)
 800bcb8:	2142      	movs	r1, #66	; 0x42
 800bcba:	f000 f845 	bl	800bd48 <__assert_func>
 800bcbe:	490b      	ldr	r1, [pc, #44]	; (800bcec <srand+0x50>)
 800bcc0:	4b0b      	ldr	r3, [pc, #44]	; (800bcf0 <srand+0x54>)
 800bcc2:	e9c0 1300 	strd	r1, r3, [r0]
 800bcc6:	4b0b      	ldr	r3, [pc, #44]	; (800bcf4 <srand+0x58>)
 800bcc8:	6083      	str	r3, [r0, #8]
 800bcca:	230b      	movs	r3, #11
 800bccc:	8183      	strh	r3, [r0, #12]
 800bcce:	2100      	movs	r1, #0
 800bcd0:	2001      	movs	r0, #1
 800bcd2:	e9c2 0104 	strd	r0, r1, [r2, #16]
 800bcd6:	6bab      	ldr	r3, [r5, #56]	; 0x38
 800bcd8:	2200      	movs	r2, #0
 800bcda:	611c      	str	r4, [r3, #16]
 800bcdc:	615a      	str	r2, [r3, #20]
 800bcde:	bd38      	pop	{r3, r4, r5, pc}
 800bce0:	20000070 	.word	0x20000070
 800bce4:	080110d0 	.word	0x080110d0
 800bce8:	080110e7 	.word	0x080110e7
 800bcec:	abcd330e 	.word	0xabcd330e
 800bcf0:	e66d1234 	.word	0xe66d1234
 800bcf4:	0005deec 	.word	0x0005deec

0800bcf8 <siprintf>:
 800bcf8:	b40e      	push	{r1, r2, r3}
 800bcfa:	b500      	push	{lr}
 800bcfc:	b09c      	sub	sp, #112	; 0x70
 800bcfe:	ab1d      	add	r3, sp, #116	; 0x74
 800bd00:	9002      	str	r0, [sp, #8]
 800bd02:	9006      	str	r0, [sp, #24]
 800bd04:	f06f 4100 	mvn.w	r1, #2147483648	; 0x80000000
 800bd08:	4809      	ldr	r0, [pc, #36]	; (800bd30 <siprintf+0x38>)
 800bd0a:	9107      	str	r1, [sp, #28]
 800bd0c:	9104      	str	r1, [sp, #16]
 800bd0e:	4909      	ldr	r1, [pc, #36]	; (800bd34 <siprintf+0x3c>)
 800bd10:	f853 2b04 	ldr.w	r2, [r3], #4
 800bd14:	9105      	str	r1, [sp, #20]
 800bd16:	6800      	ldr	r0, [r0, #0]
 800bd18:	9301      	str	r3, [sp, #4]
 800bd1a:	a902      	add	r1, sp, #8
 800bd1c:	f000 fa7e 	bl	800c21c <_svfiprintf_r>
 800bd20:	9b02      	ldr	r3, [sp, #8]
 800bd22:	2200      	movs	r2, #0
 800bd24:	701a      	strb	r2, [r3, #0]
 800bd26:	b01c      	add	sp, #112	; 0x70
 800bd28:	f85d eb04 	ldr.w	lr, [sp], #4
 800bd2c:	b003      	add	sp, #12
 800bd2e:	4770      	bx	lr
 800bd30:	20000070 	.word	0x20000070
 800bd34:	ffff0208 	.word	0xffff0208

0800bd38 <strcpy>:
 800bd38:	4603      	mov	r3, r0
 800bd3a:	f811 2b01 	ldrb.w	r2, [r1], #1
 800bd3e:	f803 2b01 	strb.w	r2, [r3], #1
 800bd42:	2a00      	cmp	r2, #0
 800bd44:	d1f9      	bne.n	800bd3a <strcpy+0x2>
 800bd46:	4770      	bx	lr

0800bd48 <__assert_func>:
 800bd48:	b51f      	push	{r0, r1, r2, r3, r4, lr}
 800bd4a:	4614      	mov	r4, r2
 800bd4c:	461a      	mov	r2, r3
 800bd4e:	4b09      	ldr	r3, [pc, #36]	; (800bd74 <__assert_func+0x2c>)
 800bd50:	681b      	ldr	r3, [r3, #0]
 800bd52:	4605      	mov	r5, r0
 800bd54:	68d8      	ldr	r0, [r3, #12]
 800bd56:	b14c      	cbz	r4, 800bd6c <__assert_func+0x24>
 800bd58:	4b07      	ldr	r3, [pc, #28]	; (800bd78 <__assert_func+0x30>)
 800bd5a:	9100      	str	r1, [sp, #0]
 800bd5c:	e9cd 3401 	strd	r3, r4, [sp, #4]
 800bd60:	4906      	ldr	r1, [pc, #24]	; (800bd7c <__assert_func+0x34>)
 800bd62:	462b      	mov	r3, r5
 800bd64:	f000 f8e4 	bl	800bf30 <fiprintf>
 800bd68:	f000 ff6a 	bl	800cc40 <abort>
 800bd6c:	4b04      	ldr	r3, [pc, #16]	; (800bd80 <__assert_func+0x38>)
 800bd6e:	461c      	mov	r4, r3
 800bd70:	e7f3      	b.n	800bd5a <__assert_func+0x12>
 800bd72:	bf00      	nop
 800bd74:	20000070 	.word	0x20000070
 800bd78:	08011142 	.word	0x08011142
 800bd7c:	0801114f 	.word	0x0801114f
 800bd80:	0801117d 	.word	0x0801117d

0800bd84 <std>:
 800bd84:	2300      	movs	r3, #0
 800bd86:	b510      	push	{r4, lr}
 800bd88:	4604      	mov	r4, r0
 800bd8a:	e9c0 3300 	strd	r3, r3, [r0]
 800bd8e:	e9c0 3304 	strd	r3, r3, [r0, #16]
 800bd92:	6083      	str	r3, [r0, #8]
 800bd94:	8181      	strh	r1, [r0, #12]
 800bd96:	6643      	str	r3, [r0, #100]	; 0x64
 800bd98:	81c2      	strh	r2, [r0, #14]
 800bd9a:	6183      	str	r3, [r0, #24]
 800bd9c:	4619      	mov	r1, r3
 800bd9e:	2208      	movs	r2, #8
 800bda0:	305c      	adds	r0, #92	; 0x5c
 800bda2:	f7ff ff73 	bl	800bc8c <memset>
 800bda6:	4b05      	ldr	r3, [pc, #20]	; (800bdbc <std+0x38>)
 800bda8:	6263      	str	r3, [r4, #36]	; 0x24
 800bdaa:	4b05      	ldr	r3, [pc, #20]	; (800bdc0 <std+0x3c>)
 800bdac:	62a3      	str	r3, [r4, #40]	; 0x28
 800bdae:	4b05      	ldr	r3, [pc, #20]	; (800bdc4 <std+0x40>)
 800bdb0:	62e3      	str	r3, [r4, #44]	; 0x2c
 800bdb2:	4b05      	ldr	r3, [pc, #20]	; (800bdc8 <std+0x44>)
 800bdb4:	6224      	str	r4, [r4, #32]
 800bdb6:	6323      	str	r3, [r4, #48]	; 0x30
 800bdb8:	bd10      	pop	{r4, pc}
 800bdba:	bf00      	nop
 800bdbc:	0800ca15 	.word	0x0800ca15
 800bdc0:	0800ca37 	.word	0x0800ca37
 800bdc4:	0800ca6f 	.word	0x0800ca6f
 800bdc8:	0800ca93 	.word	0x0800ca93

0800bdcc <_cleanup_r>:
 800bdcc:	4901      	ldr	r1, [pc, #4]	; (800bdd4 <_cleanup_r+0x8>)
 800bdce:	f000 b8c1 	b.w	800bf54 <_fwalk_reent>
 800bdd2:	bf00      	nop
 800bdd4:	0800cd75 	.word	0x0800cd75

0800bdd8 <__sfmoreglue>:
 800bdd8:	b570      	push	{r4, r5, r6, lr}
 800bdda:	2268      	movs	r2, #104	; 0x68
 800bddc:	1e4d      	subs	r5, r1, #1
 800bdde:	4355      	muls	r5, r2
 800bde0:	460e      	mov	r6, r1
 800bde2:	f105 0174 	add.w	r1, r5, #116	; 0x74
 800bde6:	f000 f949 	bl	800c07c <_malloc_r>
 800bdea:	4604      	mov	r4, r0
 800bdec:	b140      	cbz	r0, 800be00 <__sfmoreglue+0x28>
 800bdee:	2100      	movs	r1, #0
 800bdf0:	e9c0 1600 	strd	r1, r6, [r0]
 800bdf4:	300c      	adds	r0, #12
 800bdf6:	60a0      	str	r0, [r4, #8]
 800bdf8:	f105 0268 	add.w	r2, r5, #104	; 0x68
 800bdfc:	f7ff ff46 	bl	800bc8c <memset>
 800be00:	4620      	mov	r0, r4
 800be02:	bd70      	pop	{r4, r5, r6, pc}

0800be04 <__sfp_lock_acquire>:
 800be04:	4801      	ldr	r0, [pc, #4]	; (800be0c <__sfp_lock_acquire+0x8>)
 800be06:	f000 b8c5 	b.w	800bf94 <__retarget_lock_acquire_recursive>
 800be0a:	bf00      	nop
 800be0c:	20001205 	.word	0x20001205

0800be10 <__sfp_lock_release>:
 800be10:	4801      	ldr	r0, [pc, #4]	; (800be18 <__sfp_lock_release+0x8>)
 800be12:	f000 b8c0 	b.w	800bf96 <__retarget_lock_release_recursive>
 800be16:	bf00      	nop
 800be18:	20001205 	.word	0x20001205

0800be1c <__sinit_lock_acquire>:
 800be1c:	4801      	ldr	r0, [pc, #4]	; (800be24 <__sinit_lock_acquire+0x8>)
 800be1e:	f000 b8b9 	b.w	800bf94 <__retarget_lock_acquire_recursive>
 800be22:	bf00      	nop
 800be24:	20001206 	.word	0x20001206

0800be28 <__sinit_lock_release>:
 800be28:	4801      	ldr	r0, [pc, #4]	; (800be30 <__sinit_lock_release+0x8>)
 800be2a:	f000 b8b4 	b.w	800bf96 <__retarget_lock_release_recursive>
 800be2e:	bf00      	nop
 800be30:	20001206 	.word	0x20001206

0800be34 <__sinit>:
 800be34:	b510      	push	{r4, lr}
 800be36:	4604      	mov	r4, r0
 800be38:	f7ff fff0 	bl	800be1c <__sinit_lock_acquire>
 800be3c:	69a3      	ldr	r3, [r4, #24]
 800be3e:	b11b      	cbz	r3, 800be48 <__sinit+0x14>
 800be40:	e8bd 4010 	ldmia.w	sp!, {r4, lr}
 800be44:	f7ff bff0 	b.w	800be28 <__sinit_lock_release>
 800be48:	e9c4 3312 	strd	r3, r3, [r4, #72]	; 0x48
 800be4c:	6523      	str	r3, [r4, #80]	; 0x50
 800be4e:	4b13      	ldr	r3, [pc, #76]	; (800be9c <__sinit+0x68>)
 800be50:	4a13      	ldr	r2, [pc, #76]	; (800bea0 <__sinit+0x6c>)
 800be52:	681b      	ldr	r3, [r3, #0]
 800be54:	62a2      	str	r2, [r4, #40]	; 0x28
 800be56:	42a3      	cmp	r3, r4
 800be58:	bf04      	itt	eq
 800be5a:	2301      	moveq	r3, #1
 800be5c:	61a3      	streq	r3, [r4, #24]
 800be5e:	4620      	mov	r0, r4
 800be60:	f000 f820 	bl	800bea4 <__sfp>
 800be64:	6060      	str	r0, [r4, #4]
 800be66:	4620      	mov	r0, r4
 800be68:	f000 f81c 	bl	800bea4 <__sfp>
 800be6c:	60a0      	str	r0, [r4, #8]
 800be6e:	4620      	mov	r0, r4
 800be70:	f000 f818 	bl	800bea4 <__sfp>
 800be74:	2200      	movs	r2, #0
 800be76:	60e0      	str	r0, [r4, #12]
 800be78:	2104      	movs	r1, #4
 800be7a:	6860      	ldr	r0, [r4, #4]
 800be7c:	f7ff ff82 	bl	800bd84 <std>
 800be80:	68a0      	ldr	r0, [r4, #8]
 800be82:	2201      	movs	r2, #1
 800be84:	2109      	movs	r1, #9
 800be86:	f7ff ff7d 	bl	800bd84 <std>
 800be8a:	68e0      	ldr	r0, [r4, #12]
 800be8c:	2202      	movs	r2, #2
 800be8e:	2112      	movs	r1, #18
 800be90:	f7ff ff78 	bl	800bd84 <std>
 800be94:	2301      	movs	r3, #1
 800be96:	61a3      	str	r3, [r4, #24]
 800be98:	e7d2      	b.n	800be40 <__sinit+0xc>
 800be9a:	bf00      	nop
 800be9c:	080110cc 	.word	0x080110cc
 800bea0:	0800bdcd 	.word	0x0800bdcd

0800bea4 <__sfp>:
 800bea4:	b5f8      	push	{r3, r4, r5, r6, r7, lr}
 800bea6:	4607      	mov	r7, r0
 800bea8:	f7ff ffac 	bl	800be04 <__sfp_lock_acquire>
 800beac:	4b1e      	ldr	r3, [pc, #120]	; (800bf28 <__sfp+0x84>)
 800beae:	681e      	ldr	r6, [r3, #0]
 800beb0:	69b3      	ldr	r3, [r6, #24]
 800beb2:	b913      	cbnz	r3, 800beba <__sfp+0x16>
 800beb4:	4630      	mov	r0, r6
 800beb6:	f7ff ffbd 	bl	800be34 <__sinit>
 800beba:	3648      	adds	r6, #72	; 0x48
 800bebc:	e9d6 3401 	ldrd	r3, r4, [r6, #4]
 800bec0:	3b01      	subs	r3, #1
 800bec2:	d503      	bpl.n	800becc <__sfp+0x28>
 800bec4:	6833      	ldr	r3, [r6, #0]
 800bec6:	b30b      	cbz	r3, 800bf0c <__sfp+0x68>
 800bec8:	6836      	ldr	r6, [r6, #0]
 800beca:	e7f7      	b.n	800bebc <__sfp+0x18>
 800becc:	f9b4 500c 	ldrsh.w	r5, [r4, #12]
 800bed0:	b9d5      	cbnz	r5, 800bf08 <__sfp+0x64>
 800bed2:	4b16      	ldr	r3, [pc, #88]	; (800bf2c <__sfp+0x88>)
 800bed4:	60e3      	str	r3, [r4, #12]
 800bed6:	f104 0058 	add.w	r0, r4, #88	; 0x58
 800beda:	6665      	str	r5, [r4, #100]	; 0x64
 800bedc:	f000 f859 	bl	800bf92 <__retarget_lock_init_recursive>
 800bee0:	f7ff ff96 	bl	800be10 <__sfp_lock_release>
 800bee4:	e9c4 5501 	strd	r5, r5, [r4, #4]
 800bee8:	e9c4 5504 	strd	r5, r5, [r4, #16]
 800beec:	6025      	str	r5, [r4, #0]
 800beee:	61a5      	str	r5, [r4, #24]
 800bef0:	2208      	movs	r2, #8
 800bef2:	4629      	mov	r1, r5
 800bef4:	f104 005c 	add.w	r0, r4, #92	; 0x5c
 800bef8:	f7ff fec8 	bl	800bc8c <memset>
 800befc:	e9c4 550d 	strd	r5, r5, [r4, #52]	; 0x34
 800bf00:	e9c4 5512 	strd	r5, r5, [r4, #72]	; 0x48
 800bf04:	4620      	mov	r0, r4
 800bf06:	bdf8      	pop	{r3, r4, r5, r6, r7, pc}
 800bf08:	3468      	adds	r4, #104	; 0x68
 800bf0a:	e7d9      	b.n	800bec0 <__sfp+0x1c>
 800bf0c:	2104      	movs	r1, #4
 800bf0e:	4638      	mov	r0, r7
 800bf10:	f7ff ff62 	bl	800bdd8 <__sfmoreglue>
 800bf14:	4604      	mov	r4, r0
 800bf16:	6030      	str	r0, [r6, #0]
 800bf18:	2800      	cmp	r0, #0
 800bf1a:	d1d5      	bne.n	800bec8 <__sfp+0x24>
 800bf1c:	f7ff ff78 	bl	800be10 <__sfp_lock_release>
 800bf20:	230c      	movs	r3, #12
 800bf22:	603b      	str	r3, [r7, #0]
 800bf24:	e7ee      	b.n	800bf04 <__sfp+0x60>
 800bf26:	bf00      	nop
 800bf28:	080110cc 	.word	0x080110cc
 800bf2c:	ffff0001 	.word	0xffff0001

0800bf30 <fiprintf>:
 800bf30:	b40e      	push	{r1, r2, r3}
 800bf32:	b503      	push	{r0, r1, lr}
 800bf34:	4601      	mov	r1, r0
 800bf36:	ab03      	add	r3, sp, #12
 800bf38:	4805      	ldr	r0, [pc, #20]	; (800bf50 <fiprintf+0x20>)
 800bf3a:	f853 2b04 	ldr.w	r2, [r3], #4
 800bf3e:	6800      	ldr	r0, [r0, #0]
 800bf40:	9301      	str	r3, [sp, #4]
 800bf42:	f000 fa93 	bl	800c46c <_vfiprintf_r>
 800bf46:	b002      	add	sp, #8
 800bf48:	f85d eb04 	ldr.w	lr, [sp], #4
 800bf4c:	b003      	add	sp, #12
 800bf4e:	4770      	bx	lr
 800bf50:	20000070 	.word	0x20000070

0800bf54 <_fwalk_reent>:
 800bf54:	e92d 43f8 	stmdb	sp!, {r3, r4, r5, r6, r7, r8, r9, lr}
 800bf58:	4606      	mov	r6, r0
 800bf5a:	4688      	mov	r8, r1
 800bf5c:	f100 0448 	add.w	r4, r0, #72	; 0x48
 800bf60:	2700      	movs	r7, #0
 800bf62:	e9d4 9501 	ldrd	r9, r5, [r4, #4]
 800bf66:	f1b9 0901 	subs.w	r9, r9, #1
 800bf6a:	d505      	bpl.n	800bf78 <_fwalk_reent+0x24>
 800bf6c:	6824      	ldr	r4, [r4, #0]
 800bf6e:	2c00      	cmp	r4, #0
 800bf70:	d1f7      	bne.n	800bf62 <_fwalk_reent+0xe>
 800bf72:	4638      	mov	r0, r7
 800bf74:	e8bd 83f8 	ldmia.w	sp!, {r3, r4, r5, r6, r7, r8, r9, pc}
 800bf78:	89ab      	ldrh	r3, [r5, #12]
 800bf7a:	2b01      	cmp	r3, #1
 800bf7c:	d907      	bls.n	800bf8e <_fwalk_reent+0x3a>
 800bf7e:	f9b5 300e 	ldrsh.w	r3, [r5, #14]
 800bf82:	3301      	adds	r3, #1
 800bf84:	d003      	beq.n	800bf8e <_fwalk_reent+0x3a>
 800bf86:	4629      	mov	r1, r5
 800bf88:	4630      	mov	r0, r6
 800bf8a:	47c0      	blx	r8
 800bf8c:	4307      	orrs	r7, r0
 800bf8e:	3568      	adds	r5, #104	; 0x68
 800bf90:	e7e9      	b.n	800bf66 <_fwalk_reent+0x12>

0800bf92 <__retarget_lock_init_recursive>:
 800bf92:	4770      	bx	lr

0800bf94 <__retarget_lock_acquire_recursive>:
 800bf94:	4770      	bx	lr

0800bf96 <__retarget_lock_release_recursive>:
 800bf96:	4770      	bx	lr

0800bf98 <malloc>:
 800bf98:	4b02      	ldr	r3, [pc, #8]	; (800bfa4 <malloc+0xc>)
 800bf9a:	4601      	mov	r1, r0
 800bf9c:	6818      	ldr	r0, [r3, #0]
 800bf9e:	f000 b86d 	b.w	800c07c <_malloc_r>
 800bfa2:	bf00      	nop
 800bfa4:	20000070 	.word	0x20000070

0800bfa8 <_free_r>:
 800bfa8:	b538      	push	{r3, r4, r5, lr}
 800bfaa:	4605      	mov	r5, r0
 800bfac:	2900      	cmp	r1, #0
 800bfae:	d041      	beq.n	800c034 <_free_r+0x8c>
 800bfb0:	f851 3c04 	ldr.w	r3, [r1, #-4]
 800bfb4:	1f0c      	subs	r4, r1, #4
 800bfb6:	2b00      	cmp	r3, #0
 800bfb8:	bfb8      	it	lt
 800bfba:	18e4      	addlt	r4, r4, r3
 800bfbc:	f000 ffa8 	bl	800cf10 <__malloc_lock>
 800bfc0:	4a1d      	ldr	r2, [pc, #116]	; (800c038 <_free_r+0x90>)
 800bfc2:	6813      	ldr	r3, [r2, #0]
 800bfc4:	b933      	cbnz	r3, 800bfd4 <_free_r+0x2c>
 800bfc6:	6063      	str	r3, [r4, #4]
 800bfc8:	6014      	str	r4, [r2, #0]
 800bfca:	4628      	mov	r0, r5
 800bfcc:	e8bd 4038 	ldmia.w	sp!, {r3, r4, r5, lr}
 800bfd0:	f000 bfa4 	b.w	800cf1c <__malloc_unlock>
 800bfd4:	42a3      	cmp	r3, r4
 800bfd6:	d908      	bls.n	800bfea <_free_r+0x42>
 800bfd8:	6820      	ldr	r0, [r4, #0]
 800bfda:	1821      	adds	r1, r4, r0
 800bfdc:	428b      	cmp	r3, r1
 800bfde:	bf01      	itttt	eq
 800bfe0:	6819      	ldreq	r1, [r3, #0]
 800bfe2:	685b      	ldreq	r3, [r3, #4]
 800bfe4:	1809      	addeq	r1, r1, r0
 800bfe6:	6021      	streq	r1, [r4, #0]
 800bfe8:	e7ed      	b.n	800bfc6 <_free_r+0x1e>
 800bfea:	461a      	mov	r2, r3
 800bfec:	685b      	ldr	r3, [r3, #4]
 800bfee:	b10b      	cbz	r3, 800bff4 <_free_r+0x4c>
 800bff0:	42a3      	cmp	r3, r4
 800bff2:	d9fa      	bls.n	800bfea <_free_r+0x42>
 800bff4:	6811      	ldr	r1, [r2, #0]
 800bff6:	1850      	adds	r0, r2, r1
 800bff8:	42a0      	cmp	r0, r4
 800bffa:	d10b      	bne.n	800c014 <_free_r+0x6c>
 800bffc:	6820      	ldr	r0, [r4, #0]
 800bffe:	4401      	add	r1, r0
 800c000:	1850      	adds	r0, r2, r1
 800c002:	4283      	cmp	r3, r0
 800c004:	6011      	str	r1, [r2, #0]
 800c006:	d1e0      	bne.n	800bfca <_free_r+0x22>
 800c008:	6818      	ldr	r0, [r3, #0]
 800c00a:	685b      	ldr	r3, [r3, #4]
 800c00c:	6053      	str	r3, [r2, #4]
 800c00e:	4401      	add	r1, r0
 800c010:	6011      	str	r1, [r2, #0]
 800c012:	e7da      	b.n	800bfca <_free_r+0x22>
 800c014:	d902      	bls.n	800c01c <_free_r+0x74>
 800c016:	230c      	movs	r3, #12
 800c018:	602b      	str	r3, [r5, #0]
 800c01a:	e7d6      	b.n	800bfca <_free_r+0x22>
 800c01c:	6820      	ldr	r0, [r4, #0]
 800c01e:	1821      	adds	r1, r4, r0
 800c020:	428b      	cmp	r3, r1
 800c022:	bf04      	itt	eq
 800c024:	6819      	ldreq	r1, [r3, #0]
 800c026:	685b      	ldreq	r3, [r3, #4]
 800c028:	6063      	str	r3, [r4, #4]
 800c02a:	bf04      	itt	eq
 800c02c:	1809      	addeq	r1, r1, r0
 800c02e:	6021      	streq	r1, [r4, #0]
 800c030:	6054      	str	r4, [r2, #4]
 800c032:	e7ca      	b.n	800bfca <_free_r+0x22>
 800c034:	bd38      	pop	{r3, r4, r5, pc}
 800c036:	bf00      	nop
 800c038:	20001208 	.word	0x20001208

0800c03c <sbrk_aligned>:
 800c03c:	b570      	push	{r4, r5, r6, lr}
 800c03e:	4e0e      	ldr	r6, [pc, #56]	; (800c078 <sbrk_aligned+0x3c>)
 800c040:	460c      	mov	r4, r1
 800c042:	6831      	ldr	r1, [r6, #0]
 800c044:	4605      	mov	r5, r0
 800c046:	b911      	cbnz	r1, 800c04e <sbrk_aligned+0x12>
 800c048:	f000 fcd4 	bl	800c9f4 <_sbrk_r>
 800c04c:	6030      	str	r0, [r6, #0]
 800c04e:	4621      	mov	r1, r4
 800c050:	4628      	mov	r0, r5
 800c052:	f000 fccf 	bl	800c9f4 <_sbrk_r>
 800c056:	1c43      	adds	r3, r0, #1
 800c058:	d00a      	beq.n	800c070 <sbrk_aligned+0x34>
 800c05a:	1cc4      	adds	r4, r0, #3
 800c05c:	f024 0403 	bic.w	r4, r4, #3
 800c060:	42a0      	cmp	r0, r4
 800c062:	d007      	beq.n	800c074 <sbrk_aligned+0x38>
 800c064:	1a21      	subs	r1, r4, r0
 800c066:	4628      	mov	r0, r5
 800c068:	f000 fcc4 	bl	800c9f4 <_sbrk_r>
 800c06c:	3001      	adds	r0, #1
 800c06e:	d101      	bne.n	800c074 <sbrk_aligned+0x38>
 800c070:	f04f 34ff 	mov.w	r4, #4294967295	; 0xffffffff
 800c074:	4620      	mov	r0, r4
 800c076:	bd70      	pop	{r4, r5, r6, pc}
 800c078:	2000120c 	.word	0x2000120c

0800c07c <_malloc_r>:
 800c07c:	e92d 41f0 	stmdb	sp!, {r4, r5, r6, r7, r8, lr}
 800c080:	1ccd      	adds	r5, r1, #3
 800c082:	f025 0503 	bic.w	r5, r5, #3
 800c086:	3508      	adds	r5, #8
 800c088:	2d0c      	cmp	r5, #12
 800c08a:	bf38      	it	cc
 800c08c:	250c      	movcc	r5, #12
 800c08e:	2d00      	cmp	r5, #0
 800c090:	4607      	mov	r7, r0
 800c092:	db01      	blt.n	800c098 <_malloc_r+0x1c>
 800c094:	42a9      	cmp	r1, r5
 800c096:	d905      	bls.n	800c0a4 <_malloc_r+0x28>
 800c098:	230c      	movs	r3, #12
 800c09a:	603b      	str	r3, [r7, #0]
 800c09c:	2600      	movs	r6, #0
 800c09e:	4630      	mov	r0, r6
 800c0a0:	e8bd 81f0 	ldmia.w	sp!, {r4, r5, r6, r7, r8, pc}
 800c0a4:	4e2e      	ldr	r6, [pc, #184]	; (800c160 <_malloc_r+0xe4>)
 800c0a6:	f000 ff33 	bl	800cf10 <__malloc_lock>
 800c0aa:	6833      	ldr	r3, [r6, #0]
 800c0ac:	461c      	mov	r4, r3
 800c0ae:	bb34      	cbnz	r4, 800c0fe <_malloc_r+0x82>
 800c0b0:	4629      	mov	r1, r5
 800c0b2:	4638      	mov	r0, r7
 800c0b4:	f7ff ffc2 	bl	800c03c <sbrk_aligned>
 800c0b8:	1c43      	adds	r3, r0, #1
 800c0ba:	4604      	mov	r4, r0
 800c0bc:	d14d      	bne.n	800c15a <_malloc_r+0xde>
 800c0be:	6834      	ldr	r4, [r6, #0]
 800c0c0:	4626      	mov	r6, r4
 800c0c2:	2e00      	cmp	r6, #0
 800c0c4:	d140      	bne.n	800c148 <_malloc_r+0xcc>
 800c0c6:	6823      	ldr	r3, [r4, #0]
 800c0c8:	4631      	mov	r1, r6
 800c0ca:	4638      	mov	r0, r7
 800c0cc:	eb04 0803 	add.w	r8, r4, r3
 800c0d0:	f000 fc90 	bl	800c9f4 <_sbrk_r>
 800c0d4:	4580      	cmp	r8, r0
 800c0d6:	d13a      	bne.n	800c14e <_malloc_r+0xd2>
 800c0d8:	6821      	ldr	r1, [r4, #0]
 800c0da:	3503      	adds	r5, #3
 800c0dc:	1a6d      	subs	r5, r5, r1
 800c0de:	f025 0503 	bic.w	r5, r5, #3
 800c0e2:	3508      	adds	r5, #8
 800c0e4:	2d0c      	cmp	r5, #12
 800c0e6:	bf38      	it	cc
 800c0e8:	250c      	movcc	r5, #12
 800c0ea:	4629      	mov	r1, r5
 800c0ec:	4638      	mov	r0, r7
 800c0ee:	f7ff ffa5 	bl	800c03c <sbrk_aligned>
 800c0f2:	3001      	adds	r0, #1
 800c0f4:	d02b      	beq.n	800c14e <_malloc_r+0xd2>
 800c0f6:	6823      	ldr	r3, [r4, #0]
 800c0f8:	442b      	add	r3, r5
 800c0fa:	6023      	str	r3, [r4, #0]
 800c0fc:	e00e      	b.n	800c11c <_malloc_r+0xa0>
 800c0fe:	6822      	ldr	r2, [r4, #0]
 800c100:	1b52      	subs	r2, r2, r5
 800c102:	d41e      	bmi.n	800c142 <_malloc_r+0xc6>
 800c104:	2a0b      	cmp	r2, #11
 800c106:	d916      	bls.n	800c136 <_malloc_r+0xba>
 800c108:	1961      	adds	r1, r4, r5
 800c10a:	42a3      	cmp	r3, r4
 800c10c:	6025      	str	r5, [r4, #0]
 800c10e:	bf18      	it	ne
 800c110:	6059      	strne	r1, [r3, #4]
 800c112:	6863      	ldr	r3, [r4, #4]
 800c114:	bf08      	it	eq
 800c116:	6031      	streq	r1, [r6, #0]
 800c118:	5162      	str	r2, [r4, r5]
 800c11a:	604b      	str	r3, [r1, #4]
 800c11c:	4638      	mov	r0, r7
 800c11e:	f104 060b 	add.w	r6, r4, #11
 800c122:	f000 fefb 	bl	800cf1c <__malloc_unlock>
 800c126:	f026 0607 	bic.w	r6, r6, #7
 800c12a:	1d23      	adds	r3, r4, #4
 800c12c:	1af2      	subs	r2, r6, r3
 800c12e:	d0b6      	beq.n	800c09e <_malloc_r+0x22>
 800c130:	1b9b      	subs	r3, r3, r6
 800c132:	50a3      	str	r3, [r4, r2]
 800c134:	e7b3      	b.n	800c09e <_malloc_r+0x22>
 800c136:	6862      	ldr	r2, [r4, #4]
 800c138:	42a3      	cmp	r3, r4
 800c13a:	bf0c      	ite	eq
 800c13c:	6032      	streq	r2, [r6, #0]
 800c13e:	605a      	strne	r2, [r3, #4]
 800c140:	e7ec      	b.n	800c11c <_malloc_r+0xa0>
 800c142:	4623      	mov	r3, r4
 800c144:	6864      	ldr	r4, [r4, #4]
 800c146:	e7b2      	b.n	800c0ae <_malloc_r+0x32>
 800c148:	4634      	mov	r4, r6
 800c14a:	6876      	ldr	r6, [r6, #4]
 800c14c:	e7b9      	b.n	800c0c2 <_malloc_r+0x46>
 800c14e:	230c      	movs	r3, #12
 800c150:	603b      	str	r3, [r7, #0]
 800c152:	4638      	mov	r0, r7
 800c154:	f000 fee2 	bl	800cf1c <__malloc_unlock>
 800c158:	e7a1      	b.n	800c09e <_malloc_r+0x22>
 800c15a:	6025      	str	r5, [r4, #0]
 800c15c:	e7de      	b.n	800c11c <_malloc_r+0xa0>
 800c15e:	bf00      	nop
 800c160:	20001208 	.word	0x20001208

0800c164 <__ssputs_r>:
 800c164:	e92d 47f0 	stmdb	sp!, {r4, r5, r6, r7, r8, r9, sl, lr}
 800c168:	688e      	ldr	r6, [r1, #8]
 800c16a:	429e      	cmp	r6, r3
 800c16c:	4682      	mov	sl, r0
 800c16e:	460c      	mov	r4, r1
 800c170:	4690      	mov	r8, r2
 800c172:	461f      	mov	r7, r3
 800c174:	d838      	bhi.n	800c1e8 <__ssputs_r+0x84>
 800c176:	898a      	ldrh	r2, [r1, #12]
 800c178:	f412 6f90 	tst.w	r2, #1152	; 0x480
 800c17c:	d032      	beq.n	800c1e4 <__ssputs_r+0x80>
 800c17e:	6825      	ldr	r5, [r4, #0]
 800c180:	6909      	ldr	r1, [r1, #16]
 800c182:	eba5 0901 	sub.w	r9, r5, r1
 800c186:	6965      	ldr	r5, [r4, #20]
 800c188:	eb05 0545 	add.w	r5, r5, r5, lsl #1
 800c18c:	eb05 75d5 	add.w	r5, r5, r5, lsr #31
 800c190:	3301      	adds	r3, #1
 800c192:	444b      	add	r3, r9
 800c194:	106d      	asrs	r5, r5, #1
 800c196:	429d      	cmp	r5, r3
 800c198:	bf38      	it	cc
 800c19a:	461d      	movcc	r5, r3
 800c19c:	0553      	lsls	r3, r2, #21
 800c19e:	d531      	bpl.n	800c204 <__ssputs_r+0xa0>
 800c1a0:	4629      	mov	r1, r5
 800c1a2:	f7ff ff6b 	bl	800c07c <_malloc_r>
 800c1a6:	4606      	mov	r6, r0
 800c1a8:	b950      	cbnz	r0, 800c1c0 <__ssputs_r+0x5c>
 800c1aa:	230c      	movs	r3, #12
 800c1ac:	f8ca 3000 	str.w	r3, [sl]
 800c1b0:	89a3      	ldrh	r3, [r4, #12]
 800c1b2:	f043 0340 	orr.w	r3, r3, #64	; 0x40
 800c1b6:	81a3      	strh	r3, [r4, #12]
 800c1b8:	f04f 30ff 	mov.w	r0, #4294967295	; 0xffffffff
 800c1bc:	e8bd 87f0 	ldmia.w	sp!, {r4, r5, r6, r7, r8, r9, sl, pc}
 800c1c0:	6921      	ldr	r1, [r4, #16]
 800c1c2:	464a      	mov	r2, r9
 800c1c4:	f7ff fd54 	bl	800bc70 <memcpy>
 800c1c8:	89a3      	ldrh	r3, [r4, #12]
 800c1ca:	f423 6390 	bic.w	r3, r3, #1152	; 0x480
 800c1ce:	f043 0380 	orr.w	r3, r3, #128	; 0x80
 800c1d2:	81a3      	strh	r3, [r4, #12]
 800c1d4:	6126      	str	r6, [r4, #16]
 800c1d6:	6165      	str	r5, [r4, #20]
 800c1d8:	444e      	add	r6, r9
 800c1da:	eba5 0509 	sub.w	r5, r5, r9
 800c1de:	6026      	str	r6, [r4, #0]
 800c1e0:	60a5      	str	r5, [r4, #8]
 800c1e2:	463e      	mov	r6, r7
 800c1e4:	42be      	cmp	r6, r7
 800c1e6:	d900      	bls.n	800c1ea <__ssputs_r+0x86>
 800c1e8:	463e      	mov	r6, r7
 800c1ea:	6820      	ldr	r0, [r4, #0]
 800c1ec:	4632      	mov	r2, r6
 800c1ee:	4641      	mov	r1, r8
 800c1f0:	f000 fe74 	bl	800cedc <memmove>
 800c1f4:	68a3      	ldr	r3, [r4, #8]
 800c1f6:	1b9b      	subs	r3, r3, r6
 800c1f8:	60a3      	str	r3, [r4, #8]
 800c1fa:	6823      	ldr	r3, [r4, #0]
 800c1fc:	4433      	add	r3, r6
 800c1fe:	6023      	str	r3, [r4, #0]
 800c200:	2000      	movs	r0, #0
 800c202:	e7db      	b.n	800c1bc <__ssputs_r+0x58>
 800c204:	462a      	mov	r2, r5
 800c206:	f000 fe8f 	bl	800cf28 <_realloc_r>
 800c20a:	4606      	mov	r6, r0
 800c20c:	2800      	cmp	r0, #0
 800c20e:	d1e1      	bne.n	800c1d4 <__ssputs_r+0x70>
 800c210:	6921      	ldr	r1, [r4, #16]
 800c212:	4650      	mov	r0, sl
 800c214:	f7ff fec8 	bl	800bfa8 <_free_r>
 800c218:	e7c7      	b.n	800c1aa <__ssputs_r+0x46>
	...

0800c21c <_svfiprintf_r>:
 800c21c:	e92d 4ff0 	stmdb	sp!, {r4, r5, r6, r7, r8, r9, sl, fp, lr}
 800c220:	4698      	mov	r8, r3
 800c222:	898b      	ldrh	r3, [r1, #12]
 800c224:	061b      	lsls	r3, r3, #24
 800c226:	b09d      	sub	sp, #116	; 0x74
 800c228:	4607      	mov	r7, r0
 800c22a:	460d      	mov	r5, r1
 800c22c:	4614      	mov	r4, r2
 800c22e:	d50e      	bpl.n	800c24e <_svfiprintf_r+0x32>
 800c230:	690b      	ldr	r3, [r1, #16]
 800c232:	b963      	cbnz	r3, 800c24e <_svfiprintf_r+0x32>
 800c234:	2140      	movs	r1, #64	; 0x40
 800c236:	f7ff ff21 	bl	800c07c <_malloc_r>
 800c23a:	6028      	str	r0, [r5, #0]
 800c23c:	6128      	str	r0, [r5, #16]
 800c23e:	b920      	cbnz	r0, 800c24a <_svfiprintf_r+0x2e>
 800c240:	230c      	movs	r3, #12
 800c242:	603b      	str	r3, [r7, #0]
 800c244:	f04f 30ff 	mov.w	r0, #4294967295	; 0xffffffff
 800c248:	e0d1      	b.n	800c3ee <_svfiprintf_r+0x1d2>
 800c24a:	2340      	movs	r3, #64	; 0x40
 800c24c:	616b      	str	r3, [r5, #20]
 800c24e:	2300      	movs	r3, #0
 800c250:	9309      	str	r3, [sp, #36]	; 0x24
 800c252:	2320      	movs	r3, #32
 800c254:	f88d 3029 	strb.w	r3, [sp, #41]	; 0x29
 800c258:	f8cd 800c 	str.w	r8, [sp, #12]
 800c25c:	2330      	movs	r3, #48	; 0x30
 800c25e:	f8df 81a8 	ldr.w	r8, [pc, #424]	; 800c408 <_svfiprintf_r+0x1ec>
 800c262:	f88d 302a 	strb.w	r3, [sp, #42]	; 0x2a
 800c266:	f04f 0901 	mov.w	r9, #1
 800c26a:	4623      	mov	r3, r4
 800c26c:	469a      	mov	sl, r3
 800c26e:	f813 2b01 	ldrb.w	r2, [r3], #1
 800c272:	b10a      	cbz	r2, 800c278 <_svfiprintf_r+0x5c>
 800c274:	2a25      	cmp	r2, #37	; 0x25
 800c276:	d1f9      	bne.n	800c26c <_svfiprintf_r+0x50>
 800c278:	ebba 0b04 	subs.w	fp, sl, r4
 800c27c:	d00b      	beq.n	800c296 <_svfiprintf_r+0x7a>
 800c27e:	465b      	mov	r3, fp
 800c280:	4622      	mov	r2, r4
 800c282:	4629      	mov	r1, r5
 800c284:	4638      	mov	r0, r7
 800c286:	f7ff ff6d 	bl	800c164 <__ssputs_r>
 800c28a:	3001      	adds	r0, #1
 800c28c:	f000 80aa 	beq.w	800c3e4 <_svfiprintf_r+0x1c8>
 800c290:	9a09      	ldr	r2, [sp, #36]	; 0x24
 800c292:	445a      	add	r2, fp
 800c294:	9209      	str	r2, [sp, #36]	; 0x24
 800c296:	f89a 3000 	ldrb.w	r3, [sl]
 800c29a:	2b00      	cmp	r3, #0
 800c29c:	f000 80a2 	beq.w	800c3e4 <_svfiprintf_r+0x1c8>
 800c2a0:	2300      	movs	r3, #0
 800c2a2:	f04f 32ff 	mov.w	r2, #4294967295	; 0xffffffff
 800c2a6:	e9cd 2305 	strd	r2, r3, [sp, #20]
 800c2aa:	f10a 0a01 	add.w	sl, sl, #1
 800c2ae:	9304      	str	r3, [sp, #16]
 800c2b0:	9307      	str	r3, [sp, #28]
 800c2b2:	f88d 3053 	strb.w	r3, [sp, #83]	; 0x53
 800c2b6:	931a      	str	r3, [sp, #104]	; 0x68
 800c2b8:	4654      	mov	r4, sl
 800c2ba:	2205      	movs	r2, #5
 800c2bc:	f814 1b01 	ldrb.w	r1, [r4], #1
 800c2c0:	4851      	ldr	r0, [pc, #324]	; (800c408 <_svfiprintf_r+0x1ec>)
 800c2c2:	f7f3 ff5d 	bl	8000180 <memchr>
 800c2c6:	9a04      	ldr	r2, [sp, #16]
 800c2c8:	b9d8      	cbnz	r0, 800c302 <_svfiprintf_r+0xe6>
 800c2ca:	06d0      	lsls	r0, r2, #27
 800c2cc:	bf44      	itt	mi
 800c2ce:	2320      	movmi	r3, #32
 800c2d0:	f88d 3053 	strbmi.w	r3, [sp, #83]	; 0x53
 800c2d4:	0711      	lsls	r1, r2, #28
 800c2d6:	bf44      	itt	mi
 800c2d8:	232b      	movmi	r3, #43	; 0x2b
 800c2da:	f88d 3053 	strbmi.w	r3, [sp, #83]	; 0x53
 800c2de:	f89a 3000 	ldrb.w	r3, [sl]
 800c2e2:	2b2a      	cmp	r3, #42	; 0x2a
 800c2e4:	d015      	beq.n	800c312 <_svfiprintf_r+0xf6>
 800c2e6:	9a07      	ldr	r2, [sp, #28]
 800c2e8:	4654      	mov	r4, sl
 800c2ea:	2000      	movs	r0, #0
 800c2ec:	f04f 0c0a 	mov.w	ip, #10
 800c2f0:	4621      	mov	r1, r4
 800c2f2:	f811 3b01 	ldrb.w	r3, [r1], #1
 800c2f6:	3b30      	subs	r3, #48	; 0x30
 800c2f8:	2b09      	cmp	r3, #9
 800c2fa:	d94e      	bls.n	800c39a <_svfiprintf_r+0x17e>
 800c2fc:	b1b0      	cbz	r0, 800c32c <_svfiprintf_r+0x110>
 800c2fe:	9207      	str	r2, [sp, #28]
 800c300:	e014      	b.n	800c32c <_svfiprintf_r+0x110>
 800c302:	eba0 0308 	sub.w	r3, r0, r8
 800c306:	fa09 f303 	lsl.w	r3, r9, r3
 800c30a:	4313      	orrs	r3, r2
 800c30c:	9304      	str	r3, [sp, #16]
 800c30e:	46a2      	mov	sl, r4
 800c310:	e7d2      	b.n	800c2b8 <_svfiprintf_r+0x9c>
 800c312:	9b03      	ldr	r3, [sp, #12]
 800c314:	1d19      	adds	r1, r3, #4
 800c316:	681b      	ldr	r3, [r3, #0]
 800c318:	9103      	str	r1, [sp, #12]
 800c31a:	2b00      	cmp	r3, #0
 800c31c:	bfbb      	ittet	lt
 800c31e:	425b      	neglt	r3, r3
 800c320:	f042 0202 	orrlt.w	r2, r2, #2
 800c324:	9307      	strge	r3, [sp, #28]
 800c326:	9307      	strlt	r3, [sp, #28]
 800c328:	bfb8      	it	lt
 800c32a:	9204      	strlt	r2, [sp, #16]
 800c32c:	7823      	ldrb	r3, [r4, #0]
 800c32e:	2b2e      	cmp	r3, #46	; 0x2e
 800c330:	d10c      	bne.n	800c34c <_svfiprintf_r+0x130>
 800c332:	7863      	ldrb	r3, [r4, #1]
 800c334:	2b2a      	cmp	r3, #42	; 0x2a
 800c336:	d135      	bne.n	800c3a4 <_svfiprintf_r+0x188>
 800c338:	9b03      	ldr	r3, [sp, #12]
 800c33a:	1d1a      	adds	r2, r3, #4
 800c33c:	681b      	ldr	r3, [r3, #0]
 800c33e:	9203      	str	r2, [sp, #12]
 800c340:	2b00      	cmp	r3, #0
 800c342:	bfb8      	it	lt
 800c344:	f04f 33ff 	movlt.w	r3, #4294967295	; 0xffffffff
 800c348:	3402      	adds	r4, #2
 800c34a:	9305      	str	r3, [sp, #20]
 800c34c:	f8df a0bc 	ldr.w	sl, [pc, #188]	; 800c40c <_svfiprintf_r+0x1f0>
 800c350:	7821      	ldrb	r1, [r4, #0]
 800c352:	2203      	movs	r2, #3
 800c354:	4650      	mov	r0, sl
 800c356:	f7f3 ff13 	bl	8000180 <memchr>
 800c35a:	b140      	cbz	r0, 800c36e <_svfiprintf_r+0x152>
 800c35c:	2340      	movs	r3, #64	; 0x40
 800c35e:	eba0 000a 	sub.w	r0, r0, sl
 800c362:	fa03 f000 	lsl.w	r0, r3, r0
 800c366:	9b04      	ldr	r3, [sp, #16]
 800c368:	4303      	orrs	r3, r0
 800c36a:	3401      	adds	r4, #1
 800c36c:	9304      	str	r3, [sp, #16]
 800c36e:	f814 1b01 	ldrb.w	r1, [r4], #1
 800c372:	4827      	ldr	r0, [pc, #156]	; (800c410 <_svfiprintf_r+0x1f4>)
 800c374:	f88d 1028 	strb.w	r1, [sp, #40]	; 0x28
 800c378:	2206      	movs	r2, #6
 800c37a:	f7f3 ff01 	bl	8000180 <memchr>
 800c37e:	2800      	cmp	r0, #0
 800c380:	d038      	beq.n	800c3f4 <_svfiprintf_r+0x1d8>
 800c382:	4b24      	ldr	r3, [pc, #144]	; (800c414 <_svfiprintf_r+0x1f8>)
 800c384:	bb1b      	cbnz	r3, 800c3ce <_svfiprintf_r+0x1b2>
 800c386:	9b03      	ldr	r3, [sp, #12]
 800c388:	3307      	adds	r3, #7
 800c38a:	f023 0307 	bic.w	r3, r3, #7
 800c38e:	3308      	adds	r3, #8
 800c390:	9303      	str	r3, [sp, #12]
 800c392:	9b09      	ldr	r3, [sp, #36]	; 0x24
 800c394:	4433      	add	r3, r6
 800c396:	9309      	str	r3, [sp, #36]	; 0x24
 800c398:	e767      	b.n	800c26a <_svfiprintf_r+0x4e>
 800c39a:	fb0c 3202 	mla	r2, ip, r2, r3
 800c39e:	460c      	mov	r4, r1
 800c3a0:	2001      	movs	r0, #1
 800c3a2:	e7a5      	b.n	800c2f0 <_svfiprintf_r+0xd4>
 800c3a4:	2300      	movs	r3, #0
 800c3a6:	3401      	adds	r4, #1
 800c3a8:	9305      	str	r3, [sp, #20]
 800c3aa:	4619      	mov	r1, r3
 800c3ac:	f04f 0c0a 	mov.w	ip, #10
 800c3b0:	4620      	mov	r0, r4
 800c3b2:	f810 2b01 	ldrb.w	r2, [r0], #1
 800c3b6:	3a30      	subs	r2, #48	; 0x30
 800c3b8:	2a09      	cmp	r2, #9
 800c3ba:	d903      	bls.n	800c3c4 <_svfiprintf_r+0x1a8>
 800c3bc:	2b00      	cmp	r3, #0
 800c3be:	d0c5      	beq.n	800c34c <_svfiprintf_r+0x130>
 800c3c0:	9105      	str	r1, [sp, #20]
 800c3c2:	e7c3      	b.n	800c34c <_svfiprintf_r+0x130>
 800c3c4:	fb0c 2101 	mla	r1, ip, r1, r2
 800c3c8:	4604      	mov	r4, r0
 800c3ca:	2301      	movs	r3, #1
 800c3cc:	e7f0      	b.n	800c3b0 <_svfiprintf_r+0x194>
 800c3ce:	ab03      	add	r3, sp, #12
 800c3d0:	9300      	str	r3, [sp, #0]
 800c3d2:	462a      	mov	r2, r5
 800c3d4:	4b10      	ldr	r3, [pc, #64]	; (800c418 <_svfiprintf_r+0x1fc>)
 800c3d6:	a904      	add	r1, sp, #16
 800c3d8:	4638      	mov	r0, r7
 800c3da:	f3af 8000 	nop.w
 800c3de:	1c42      	adds	r2, r0, #1
 800c3e0:	4606      	mov	r6, r0
 800c3e2:	d1d6      	bne.n	800c392 <_svfiprintf_r+0x176>
 800c3e4:	89ab      	ldrh	r3, [r5, #12]
 800c3e6:	065b      	lsls	r3, r3, #25
 800c3e8:	f53f af2c 	bmi.w	800c244 <_svfiprintf_r+0x28>
 800c3ec:	9809      	ldr	r0, [sp, #36]	; 0x24
 800c3ee:	b01d      	add	sp, #116	; 0x74
 800c3f0:	e8bd 8ff0 	ldmia.w	sp!, {r4, r5, r6, r7, r8, r9, sl, fp, pc}
 800c3f4:	ab03      	add	r3, sp, #12
 800c3f6:	9300      	str	r3, [sp, #0]
 800c3f8:	462a      	mov	r2, r5
 800c3fa:	4b07      	ldr	r3, [pc, #28]	; (800c418 <_svfiprintf_r+0x1fc>)
 800c3fc:	a904      	add	r1, sp, #16
 800c3fe:	4638      	mov	r0, r7
 800c400:	f000 f9d2 	bl	800c7a8 <_printf_i>
 800c404:	e7eb      	b.n	800c3de <_svfiprintf_r+0x1c2>
 800c406:	bf00      	nop
 800c408:	080111e0 	.word	0x080111e0
 800c40c:	080111e6 	.word	0x080111e6
 800c410:	080111ea 	.word	0x080111ea
 800c414:	00000000 	.word	0x00000000
 800c418:	0800c165 	.word	0x0800c165

0800c41c <__sfputc_r>:
 800c41c:	6893      	ldr	r3, [r2, #8]
 800c41e:	3b01      	subs	r3, #1
 800c420:	2b00      	cmp	r3, #0
 800c422:	b410      	push	{r4}
 800c424:	6093      	str	r3, [r2, #8]
 800c426:	da07      	bge.n	800c438 <__sfputc_r+0x1c>
 800c428:	6994      	ldr	r4, [r2, #24]
 800c42a:	42a3      	cmp	r3, r4
 800c42c:	db01      	blt.n	800c432 <__sfputc_r+0x16>
 800c42e:	290a      	cmp	r1, #10
 800c430:	d102      	bne.n	800c438 <__sfputc_r+0x1c>
 800c432:	bc10      	pop	{r4}
 800c434:	f000 bb32 	b.w	800ca9c <__swbuf_r>
 800c438:	6813      	ldr	r3, [r2, #0]
 800c43a:	1c58      	adds	r0, r3, #1
 800c43c:	6010      	str	r0, [r2, #0]
 800c43e:	7019      	strb	r1, [r3, #0]
 800c440:	4608      	mov	r0, r1
 800c442:	bc10      	pop	{r4}
 800c444:	4770      	bx	lr

0800c446 <__sfputs_r>:
 800c446:	b5f8      	push	{r3, r4, r5, r6, r7, lr}
 800c448:	4606      	mov	r6, r0
 800c44a:	460f      	mov	r7, r1
 800c44c:	4614      	mov	r4, r2
 800c44e:	18d5      	adds	r5, r2, r3
 800c450:	42ac      	cmp	r4, r5
 800c452:	d101      	bne.n	800c458 <__sfputs_r+0x12>
 800c454:	2000      	movs	r0, #0
 800c456:	e007      	b.n	800c468 <__sfputs_r+0x22>
 800c458:	f814 1b01 	ldrb.w	r1, [r4], #1
 800c45c:	463a      	mov	r2, r7
 800c45e:	4630      	mov	r0, r6
 800c460:	f7ff ffdc 	bl	800c41c <__sfputc_r>
 800c464:	1c43      	adds	r3, r0, #1
 800c466:	d1f3      	bne.n	800c450 <__sfputs_r+0xa>
 800c468:	bdf8      	pop	{r3, r4, r5, r6, r7, pc}
	...

0800c46c <_vfiprintf_r>:
 800c46c:	e92d 4ff0 	stmdb	sp!, {r4, r5, r6, r7, r8, r9, sl, fp, lr}
 800c470:	460d      	mov	r5, r1
 800c472:	b09d      	sub	sp, #116	; 0x74
 800c474:	4614      	mov	r4, r2
 800c476:	4698      	mov	r8, r3
 800c478:	4606      	mov	r6, r0
 800c47a:	b118      	cbz	r0, 800c484 <_vfiprintf_r+0x18>
 800c47c:	6983      	ldr	r3, [r0, #24]
 800c47e:	b90b      	cbnz	r3, 800c484 <_vfiprintf_r+0x18>
 800c480:	f7ff fcd8 	bl	800be34 <__sinit>
 800c484:	4b89      	ldr	r3, [pc, #548]	; (800c6ac <_vfiprintf_r+0x240>)
 800c486:	429d      	cmp	r5, r3
 800c488:	d11b      	bne.n	800c4c2 <_vfiprintf_r+0x56>
 800c48a:	6875      	ldr	r5, [r6, #4]
 800c48c:	6e6b      	ldr	r3, [r5, #100]	; 0x64
 800c48e:	07d9      	lsls	r1, r3, #31
 800c490:	d405      	bmi.n	800c49e <_vfiprintf_r+0x32>
 800c492:	89ab      	ldrh	r3, [r5, #12]
 800c494:	059a      	lsls	r2, r3, #22
 800c496:	d402      	bmi.n	800c49e <_vfiprintf_r+0x32>
 800c498:	6da8      	ldr	r0, [r5, #88]	; 0x58
 800c49a:	f7ff fd7b 	bl	800bf94 <__retarget_lock_acquire_recursive>
 800c49e:	89ab      	ldrh	r3, [r5, #12]
 800c4a0:	071b      	lsls	r3, r3, #28
 800c4a2:	d501      	bpl.n	800c4a8 <_vfiprintf_r+0x3c>
 800c4a4:	692b      	ldr	r3, [r5, #16]
 800c4a6:	b9eb      	cbnz	r3, 800c4e4 <_vfiprintf_r+0x78>
 800c4a8:	4629      	mov	r1, r5
 800c4aa:	4630      	mov	r0, r6
 800c4ac:	f000 fb5a 	bl	800cb64 <__swsetup_r>
 800c4b0:	b1c0      	cbz	r0, 800c4e4 <_vfiprintf_r+0x78>
 800c4b2:	6e6b      	ldr	r3, [r5, #100]	; 0x64
 800c4b4:	07dc      	lsls	r4, r3, #31
 800c4b6:	d50e      	bpl.n	800c4d6 <_vfiprintf_r+0x6a>
 800c4b8:	f04f 30ff 	mov.w	r0, #4294967295	; 0xffffffff
 800c4bc:	b01d      	add	sp, #116	; 0x74
 800c4be:	e8bd 8ff0 	ldmia.w	sp!, {r4, r5, r6, r7, r8, r9, sl, fp, pc}
 800c4c2:	4b7b      	ldr	r3, [pc, #492]	; (800c6b0 <_vfiprintf_r+0x244>)
 800c4c4:	429d      	cmp	r5, r3
 800c4c6:	d101      	bne.n	800c4cc <_vfiprintf_r+0x60>
 800c4c8:	68b5      	ldr	r5, [r6, #8]
 800c4ca:	e7df      	b.n	800c48c <_vfiprintf_r+0x20>
 800c4cc:	4b79      	ldr	r3, [pc, #484]	; (800c6b4 <_vfiprintf_r+0x248>)
 800c4ce:	429d      	cmp	r5, r3
 800c4d0:	bf08      	it	eq
 800c4d2:	68f5      	ldreq	r5, [r6, #12]
 800c4d4:	e7da      	b.n	800c48c <_vfiprintf_r+0x20>
 800c4d6:	89ab      	ldrh	r3, [r5, #12]
 800c4d8:	0598      	lsls	r0, r3, #22
 800c4da:	d4ed      	bmi.n	800c4b8 <_vfiprintf_r+0x4c>
 800c4dc:	6da8      	ldr	r0, [r5, #88]	; 0x58
 800c4de:	f7ff fd5a 	bl	800bf96 <__retarget_lock_release_recursive>
 800c4e2:	e7e9      	b.n	800c4b8 <_vfiprintf_r+0x4c>
 800c4e4:	2300      	movs	r3, #0
 800c4e6:	9309      	str	r3, [sp, #36]	; 0x24
 800c4e8:	2320      	movs	r3, #32
 800c4ea:	f88d 3029 	strb.w	r3, [sp, #41]	; 0x29
 800c4ee:	f8cd 800c 	str.w	r8, [sp, #12]
 800c4f2:	2330      	movs	r3, #48	; 0x30
 800c4f4:	f8df 81c0 	ldr.w	r8, [pc, #448]	; 800c6b8 <_vfiprintf_r+0x24c>
 800c4f8:	f88d 302a 	strb.w	r3, [sp, #42]	; 0x2a
 800c4fc:	f04f 0901 	mov.w	r9, #1
 800c500:	4623      	mov	r3, r4
 800c502:	469a      	mov	sl, r3
 800c504:	f813 2b01 	ldrb.w	r2, [r3], #1
 800c508:	b10a      	cbz	r2, 800c50e <_vfiprintf_r+0xa2>
 800c50a:	2a25      	cmp	r2, #37	; 0x25
 800c50c:	d1f9      	bne.n	800c502 <_vfiprintf_r+0x96>
 800c50e:	ebba 0b04 	subs.w	fp, sl, r4
 800c512:	d00b      	beq.n	800c52c <_vfiprintf_r+0xc0>
 800c514:	465b      	mov	r3, fp
 800c516:	4622      	mov	r2, r4
 800c518:	4629      	mov	r1, r5
 800c51a:	4630      	mov	r0, r6
 800c51c:	f7ff ff93 	bl	800c446 <__sfputs_r>
 800c520:	3001      	adds	r0, #1
 800c522:	f000 80aa 	beq.w	800c67a <_vfiprintf_r+0x20e>
 800c526:	9a09      	ldr	r2, [sp, #36]	; 0x24
 800c528:	445a      	add	r2, fp
 800c52a:	9209      	str	r2, [sp, #36]	; 0x24
 800c52c:	f89a 3000 	ldrb.w	r3, [sl]
 800c530:	2b00      	cmp	r3, #0
 800c532:	f000 80a2 	beq.w	800c67a <_vfiprintf_r+0x20e>
 800c536:	2300      	movs	r3, #0
 800c538:	f04f 32ff 	mov.w	r2, #4294967295	; 0xffffffff
 800c53c:	e9cd 2305 	strd	r2, r3, [sp, #20]
 800c540:	f10a 0a01 	add.w	sl, sl, #1
 800c544:	9304      	str	r3, [sp, #16]
 800c546:	9307      	str	r3, [sp, #28]
 800c548:	f88d 3053 	strb.w	r3, [sp, #83]	; 0x53
 800c54c:	931a      	str	r3, [sp, #104]	; 0x68
 800c54e:	4654      	mov	r4, sl
 800c550:	2205      	movs	r2, #5
 800c552:	f814 1b01 	ldrb.w	r1, [r4], #1
 800c556:	4858      	ldr	r0, [pc, #352]	; (800c6b8 <_vfiprintf_r+0x24c>)
 800c558:	f7f3 fe12 	bl	8000180 <memchr>
 800c55c:	9a04      	ldr	r2, [sp, #16]
 800c55e:	b9d8      	cbnz	r0, 800c598 <_vfiprintf_r+0x12c>
 800c560:	06d1      	lsls	r1, r2, #27
 800c562:	bf44      	itt	mi
 800c564:	2320      	movmi	r3, #32
 800c566:	f88d 3053 	strbmi.w	r3, [sp, #83]	; 0x53
 800c56a:	0713      	lsls	r3, r2, #28
 800c56c:	bf44      	itt	mi
 800c56e:	232b      	movmi	r3, #43	; 0x2b
 800c570:	f88d 3053 	strbmi.w	r3, [sp, #83]	; 0x53
 800c574:	f89a 3000 	ldrb.w	r3, [sl]
 800c578:	2b2a      	cmp	r3, #42	; 0x2a
 800c57a:	d015      	beq.n	800c5a8 <_vfiprintf_r+0x13c>
 800c57c:	9a07      	ldr	r2, [sp, #28]
 800c57e:	4654      	mov	r4, sl
 800c580:	2000      	movs	r0, #0
 800c582:	f04f 0c0a 	mov.w	ip, #10
 800c586:	4621      	mov	r1, r4
 800c588:	f811 3b01 	ldrb.w	r3, [r1], #1
 800c58c:	3b30      	subs	r3, #48	; 0x30
 800c58e:	2b09      	cmp	r3, #9
 800c590:	d94e      	bls.n	800c630 <_vfiprintf_r+0x1c4>
 800c592:	b1b0      	cbz	r0, 800c5c2 <_vfiprintf_r+0x156>
 800c594:	9207      	str	r2, [sp, #28]
 800c596:	e014      	b.n	800c5c2 <_vfiprintf_r+0x156>
 800c598:	eba0 0308 	sub.w	r3, r0, r8
 800c59c:	fa09 f303 	lsl.w	r3, r9, r3
 800c5a0:	4313      	orrs	r3, r2
 800c5a2:	9304      	str	r3, [sp, #16]
 800c5a4:	46a2      	mov	sl, r4
 800c5a6:	e7d2      	b.n	800c54e <_vfiprintf_r+0xe2>
 800c5a8:	9b03      	ldr	r3, [sp, #12]
 800c5aa:	1d19      	adds	r1, r3, #4
 800c5ac:	681b      	ldr	r3, [r3, #0]
 800c5ae:	9103      	str	r1, [sp, #12]
 800c5b0:	2b00      	cmp	r3, #0
 800c5b2:	bfbb      	ittet	lt
 800c5b4:	425b      	neglt	r3, r3
 800c5b6:	f042 0202 	orrlt.w	r2, r2, #2
 800c5ba:	9307      	strge	r3, [sp, #28]
 800c5bc:	9307      	strlt	r3, [sp, #28]
 800c5be:	bfb8      	it	lt
 800c5c0:	9204      	strlt	r2, [sp, #16]
 800c5c2:	7823      	ldrb	r3, [r4, #0]
 800c5c4:	2b2e      	cmp	r3, #46	; 0x2e
 800c5c6:	d10c      	bne.n	800c5e2 <_vfiprintf_r+0x176>
 800c5c8:	7863      	ldrb	r3, [r4, #1]
 800c5ca:	2b2a      	cmp	r3, #42	; 0x2a
 800c5cc:	d135      	bne.n	800c63a <_vfiprintf_r+0x1ce>
 800c5ce:	9b03      	ldr	r3, [sp, #12]
 800c5d0:	1d1a      	adds	r2, r3, #4
 800c5d2:	681b      	ldr	r3, [r3, #0]
 800c5d4:	9203      	str	r2, [sp, #12]
 800c5d6:	2b00      	cmp	r3, #0
 800c5d8:	bfb8      	it	lt
 800c5da:	f04f 33ff 	movlt.w	r3, #4294967295	; 0xffffffff
 800c5de:	3402      	adds	r4, #2
 800c5e0:	9305      	str	r3, [sp, #20]
 800c5e2:	f8df a0d8 	ldr.w	sl, [pc, #216]	; 800c6bc <_vfiprintf_r+0x250>
 800c5e6:	7821      	ldrb	r1, [r4, #0]
 800c5e8:	2203      	movs	r2, #3
 800c5ea:	4650      	mov	r0, sl
 800c5ec:	f7f3 fdc8 	bl	8000180 <memchr>
 800c5f0:	b140      	cbz	r0, 800c604 <_vfiprintf_r+0x198>
 800c5f2:	2340      	movs	r3, #64	; 0x40
 800c5f4:	eba0 000a 	sub.w	r0, r0, sl
 800c5f8:	fa03 f000 	lsl.w	r0, r3, r0
 800c5fc:	9b04      	ldr	r3, [sp, #16]
 800c5fe:	4303      	orrs	r3, r0
 800c600:	3401      	adds	r4, #1
 800c602:	9304      	str	r3, [sp, #16]
 800c604:	f814 1b01 	ldrb.w	r1, [r4], #1
 800c608:	482d      	ldr	r0, [pc, #180]	; (800c6c0 <_vfiprintf_r+0x254>)
 800c60a:	f88d 1028 	strb.w	r1, [sp, #40]	; 0x28
 800c60e:	2206      	movs	r2, #6
 800c610:	f7f3 fdb6 	bl	8000180 <memchr>
 800c614:	2800      	cmp	r0, #0
 800c616:	d03f      	beq.n	800c698 <_vfiprintf_r+0x22c>
 800c618:	4b2a      	ldr	r3, [pc, #168]	; (800c6c4 <_vfiprintf_r+0x258>)
 800c61a:	bb1b      	cbnz	r3, 800c664 <_vfiprintf_r+0x1f8>
 800c61c:	9b03      	ldr	r3, [sp, #12]
 800c61e:	3307      	adds	r3, #7
 800c620:	f023 0307 	bic.w	r3, r3, #7
 800c624:	3308      	adds	r3, #8
 800c626:	9303      	str	r3, [sp, #12]
 800c628:	9b09      	ldr	r3, [sp, #36]	; 0x24
 800c62a:	443b      	add	r3, r7
 800c62c:	9309      	str	r3, [sp, #36]	; 0x24
 800c62e:	e767      	b.n	800c500 <_vfiprintf_r+0x94>
 800c630:	fb0c 3202 	mla	r2, ip, r2, r3
 800c634:	460c      	mov	r4, r1
 800c636:	2001      	movs	r0, #1
 800c638:	e7a5      	b.n	800c586 <_vfiprintf_r+0x11a>
 800c63a:	2300      	movs	r3, #0
 800c63c:	3401      	adds	r4, #1
 800c63e:	9305      	str	r3, [sp, #20]
 800c640:	4619      	mov	r1, r3
 800c642:	f04f 0c0a 	mov.w	ip, #10
 800c646:	4620      	mov	r0, r4
 800c648:	f810 2b01 	ldrb.w	r2, [r0], #1
 800c64c:	3a30      	subs	r2, #48	; 0x30
 800c64e:	2a09      	cmp	r2, #9
 800c650:	d903      	bls.n	800c65a <_vfiprintf_r+0x1ee>
 800c652:	2b00      	cmp	r3, #0
 800c654:	d0c5      	beq.n	800c5e2 <_vfiprintf_r+0x176>
 800c656:	9105      	str	r1, [sp, #20]
 800c658:	e7c3      	b.n	800c5e2 <_vfiprintf_r+0x176>
 800c65a:	fb0c 2101 	mla	r1, ip, r1, r2
 800c65e:	4604      	mov	r4, r0
 800c660:	2301      	movs	r3, #1
 800c662:	e7f0      	b.n	800c646 <_vfiprintf_r+0x1da>
 800c664:	ab03      	add	r3, sp, #12
 800c666:	9300      	str	r3, [sp, #0]
 800c668:	462a      	mov	r2, r5
 800c66a:	4b17      	ldr	r3, [pc, #92]	; (800c6c8 <_vfiprintf_r+0x25c>)
 800c66c:	a904      	add	r1, sp, #16
 800c66e:	4630      	mov	r0, r6
 800c670:	f3af 8000 	nop.w
 800c674:	4607      	mov	r7, r0
 800c676:	1c78      	adds	r0, r7, #1
 800c678:	d1d6      	bne.n	800c628 <_vfiprintf_r+0x1bc>
 800c67a:	6e6b      	ldr	r3, [r5, #100]	; 0x64
 800c67c:	07d9      	lsls	r1, r3, #31
 800c67e:	d405      	bmi.n	800c68c <_vfiprintf_r+0x220>
 800c680:	89ab      	ldrh	r3, [r5, #12]
 800c682:	059a      	lsls	r2, r3, #22
 800c684:	d402      	bmi.n	800c68c <_vfiprintf_r+0x220>
 800c686:	6da8      	ldr	r0, [r5, #88]	; 0x58
 800c688:	f7ff fc85 	bl	800bf96 <__retarget_lock_release_recursive>
 800c68c:	89ab      	ldrh	r3, [r5, #12]
 800c68e:	065b      	lsls	r3, r3, #25
 800c690:	f53f af12 	bmi.w	800c4b8 <_vfiprintf_r+0x4c>
 800c694:	9809      	ldr	r0, [sp, #36]	; 0x24
 800c696:	e711      	b.n	800c4bc <_vfiprintf_r+0x50>
 800c698:	ab03      	add	r3, sp, #12
 800c69a:	9300      	str	r3, [sp, #0]
 800c69c:	462a      	mov	r2, r5
 800c69e:	4b0a      	ldr	r3, [pc, #40]	; (800c6c8 <_vfiprintf_r+0x25c>)
 800c6a0:	a904      	add	r1, sp, #16
 800c6a2:	4630      	mov	r0, r6
 800c6a4:	f000 f880 	bl	800c7a8 <_printf_i>
 800c6a8:	e7e4      	b.n	800c674 <_vfiprintf_r+0x208>
 800c6aa:	bf00      	nop
 800c6ac:	080111a0 	.word	0x080111a0
 800c6b0:	080111c0 	.word	0x080111c0
 800c6b4:	08011180 	.word	0x08011180
 800c6b8:	080111e0 	.word	0x080111e0
 800c6bc:	080111e6 	.word	0x080111e6
 800c6c0:	080111ea 	.word	0x080111ea
 800c6c4:	00000000 	.word	0x00000000
 800c6c8:	0800c447 	.word	0x0800c447

0800c6cc <_printf_common>:
 800c6cc:	e92d 47f0 	stmdb	sp!, {r4, r5, r6, r7, r8, r9, sl, lr}
 800c6d0:	4616      	mov	r6, r2
 800c6d2:	4699      	mov	r9, r3
 800c6d4:	688a      	ldr	r2, [r1, #8]
 800c6d6:	690b      	ldr	r3, [r1, #16]
 800c6d8:	f8dd 8020 	ldr.w	r8, [sp, #32]
 800c6dc:	4293      	cmp	r3, r2
 800c6de:	bfb8      	it	lt
 800c6e0:	4613      	movlt	r3, r2
 800c6e2:	6033      	str	r3, [r6, #0]
 800c6e4:	f891 2043 	ldrb.w	r2, [r1, #67]	; 0x43
 800c6e8:	4607      	mov	r7, r0
 800c6ea:	460c      	mov	r4, r1
 800c6ec:	b10a      	cbz	r2, 800c6f2 <_printf_common+0x26>
 800c6ee:	3301      	adds	r3, #1
 800c6f0:	6033      	str	r3, [r6, #0]
 800c6f2:	6823      	ldr	r3, [r4, #0]
 800c6f4:	0699      	lsls	r1, r3, #26
 800c6f6:	bf42      	ittt	mi
 800c6f8:	6833      	ldrmi	r3, [r6, #0]
 800c6fa:	3302      	addmi	r3, #2
 800c6fc:	6033      	strmi	r3, [r6, #0]
 800c6fe:	6825      	ldr	r5, [r4, #0]
 800c700:	f015 0506 	ands.w	r5, r5, #6
 800c704:	d106      	bne.n	800c714 <_printf_common+0x48>
 800c706:	f104 0a19 	add.w	sl, r4, #25
 800c70a:	68e3      	ldr	r3, [r4, #12]
 800c70c:	6832      	ldr	r2, [r6, #0]
 800c70e:	1a9b      	subs	r3, r3, r2
 800c710:	42ab      	cmp	r3, r5
 800c712:	dc26      	bgt.n	800c762 <_printf_common+0x96>
 800c714:	f894 2043 	ldrb.w	r2, [r4, #67]	; 0x43
 800c718:	1e13      	subs	r3, r2, #0
 800c71a:	6822      	ldr	r2, [r4, #0]
 800c71c:	bf18      	it	ne
 800c71e:	2301      	movne	r3, #1
 800c720:	0692      	lsls	r2, r2, #26
 800c722:	d42b      	bmi.n	800c77c <_printf_common+0xb0>
 800c724:	f104 0243 	add.w	r2, r4, #67	; 0x43
 800c728:	4649      	mov	r1, r9
 800c72a:	4638      	mov	r0, r7
 800c72c:	47c0      	blx	r8
 800c72e:	3001      	adds	r0, #1
 800c730:	d01e      	beq.n	800c770 <_printf_common+0xa4>
 800c732:	6823      	ldr	r3, [r4, #0]
 800c734:	68e5      	ldr	r5, [r4, #12]
 800c736:	6832      	ldr	r2, [r6, #0]
 800c738:	f003 0306 	and.w	r3, r3, #6
 800c73c:	2b04      	cmp	r3, #4
 800c73e:	bf08      	it	eq
 800c740:	1aad      	subeq	r5, r5, r2
 800c742:	68a3      	ldr	r3, [r4, #8]
 800c744:	6922      	ldr	r2, [r4, #16]
 800c746:	bf0c      	ite	eq
 800c748:	ea25 75e5 	biceq.w	r5, r5, r5, asr #31
 800c74c:	2500      	movne	r5, #0
 800c74e:	4293      	cmp	r3, r2
 800c750:	bfc4      	itt	gt
 800c752:	1a9b      	subgt	r3, r3, r2
 800c754:	18ed      	addgt	r5, r5, r3
 800c756:	2600      	movs	r6, #0
 800c758:	341a      	adds	r4, #26
 800c75a:	42b5      	cmp	r5, r6
 800c75c:	d11a      	bne.n	800c794 <_printf_common+0xc8>
 800c75e:	2000      	movs	r0, #0
 800c760:	e008      	b.n	800c774 <_printf_common+0xa8>
 800c762:	2301      	movs	r3, #1
 800c764:	4652      	mov	r2, sl
 800c766:	4649      	mov	r1, r9
 800c768:	4638      	mov	r0, r7
 800c76a:	47c0      	blx	r8
 800c76c:	3001      	adds	r0, #1
 800c76e:	d103      	bne.n	800c778 <_printf_common+0xac>
 800c770:	f04f 30ff 	mov.w	r0, #4294967295	; 0xffffffff
 800c774:	e8bd 87f0 	ldmia.w	sp!, {r4, r5, r6, r7, r8, r9, sl, pc}
 800c778:	3501      	adds	r5, #1
 800c77a:	e7c6      	b.n	800c70a <_printf_common+0x3e>
 800c77c:	18e1      	adds	r1, r4, r3
 800c77e:	1c5a      	adds	r2, r3, #1
 800c780:	2030      	movs	r0, #48	; 0x30
 800c782:	f881 0043 	strb.w	r0, [r1, #67]	; 0x43
 800c786:	4422      	add	r2, r4
 800c788:	f894 1045 	ldrb.w	r1, [r4, #69]	; 0x45
 800c78c:	f882 1043 	strb.w	r1, [r2, #67]	; 0x43
 800c790:	3302      	adds	r3, #2
 800c792:	e7c7      	b.n	800c724 <_printf_common+0x58>
 800c794:	2301      	movs	r3, #1
 800c796:	4622      	mov	r2, r4
 800c798:	4649      	mov	r1, r9
 800c79a:	4638      	mov	r0, r7
 800c79c:	47c0      	blx	r8
 800c79e:	3001      	adds	r0, #1
 800c7a0:	d0e6      	beq.n	800c770 <_printf_common+0xa4>
 800c7a2:	3601      	adds	r6, #1
 800c7a4:	e7d9      	b.n	800c75a <_printf_common+0x8e>
	...

0800c7a8 <_printf_i>:
 800c7a8:	e92d 47ff 	stmdb	sp!, {r0, r1, r2, r3, r4, r5, r6, r7, r8, r9, sl, lr}
 800c7ac:	7e0f      	ldrb	r7, [r1, #24]
 800c7ae:	9d0c      	ldr	r5, [sp, #48]	; 0x30
 800c7b0:	2f78      	cmp	r7, #120	; 0x78
 800c7b2:	4691      	mov	r9, r2
 800c7b4:	4680      	mov	r8, r0
 800c7b6:	460c      	mov	r4, r1
 800c7b8:	469a      	mov	sl, r3
 800c7ba:	f101 0243 	add.w	r2, r1, #67	; 0x43
 800c7be:	d807      	bhi.n	800c7d0 <_printf_i+0x28>
 800c7c0:	2f62      	cmp	r7, #98	; 0x62
 800c7c2:	d80a      	bhi.n	800c7da <_printf_i+0x32>
 800c7c4:	2f00      	cmp	r7, #0
 800c7c6:	f000 80d8 	beq.w	800c97a <_printf_i+0x1d2>
 800c7ca:	2f58      	cmp	r7, #88	; 0x58
 800c7cc:	f000 80a3 	beq.w	800c916 <_printf_i+0x16e>
 800c7d0:	f104 0542 	add.w	r5, r4, #66	; 0x42
 800c7d4:	f884 7042 	strb.w	r7, [r4, #66]	; 0x42
 800c7d8:	e03a      	b.n	800c850 <_printf_i+0xa8>
 800c7da:	f1a7 0363 	sub.w	r3, r7, #99	; 0x63
 800c7de:	2b15      	cmp	r3, #21
 800c7e0:	d8f6      	bhi.n	800c7d0 <_printf_i+0x28>
 800c7e2:	a101      	add	r1, pc, #4	; (adr r1, 800c7e8 <_printf_i+0x40>)
 800c7e4:	f851 f023 	ldr.w	pc, [r1, r3, lsl #2]
 800c7e8:	0800c841 	.word	0x0800c841
 800c7ec:	0800c855 	.word	0x0800c855
 800c7f0:	0800c7d1 	.word	0x0800c7d1
 800c7f4:	0800c7d1 	.word	0x0800c7d1
 800c7f8:	0800c7d1 	.word	0x0800c7d1
 800c7fc:	0800c7d1 	.word	0x0800c7d1
 800c800:	0800c855 	.word	0x0800c855
 800c804:	0800c7d1 	.word	0x0800c7d1
 800c808:	0800c7d1 	.word	0x0800c7d1
 800c80c:	0800c7d1 	.word	0x0800c7d1
 800c810:	0800c7d1 	.word	0x0800c7d1
 800c814:	0800c961 	.word	0x0800c961
 800c818:	0800c885 	.word	0x0800c885
 800c81c:	0800c943 	.word	0x0800c943
 800c820:	0800c7d1 	.word	0x0800c7d1
 800c824:	0800c7d1 	.word	0x0800c7d1
 800c828:	0800c983 	.word	0x0800c983
 800c82c:	0800c7d1 	.word	0x0800c7d1
 800c830:	0800c885 	.word	0x0800c885
 800c834:	0800c7d1 	.word	0x0800c7d1
 800c838:	0800c7d1 	.word	0x0800c7d1
 800c83c:	0800c94b 	.word	0x0800c94b
 800c840:	682b      	ldr	r3, [r5, #0]
 800c842:	1d1a      	adds	r2, r3, #4
 800c844:	681b      	ldr	r3, [r3, #0]
 800c846:	602a      	str	r2, [r5, #0]
 800c848:	f104 0542 	add.w	r5, r4, #66	; 0x42
 800c84c:	f884 3042 	strb.w	r3, [r4, #66]	; 0x42
 800c850:	2301      	movs	r3, #1
 800c852:	e0a3      	b.n	800c99c <_printf_i+0x1f4>
 800c854:	6820      	ldr	r0, [r4, #0]
 800c856:	6829      	ldr	r1, [r5, #0]
 800c858:	0606      	lsls	r6, r0, #24
 800c85a:	f101 0304 	add.w	r3, r1, #4
 800c85e:	d50a      	bpl.n	800c876 <_printf_i+0xce>
 800c860:	680e      	ldr	r6, [r1, #0]
 800c862:	602b      	str	r3, [r5, #0]
 800c864:	2e00      	cmp	r6, #0
 800c866:	da03      	bge.n	800c870 <_printf_i+0xc8>
 800c868:	232d      	movs	r3, #45	; 0x2d
 800c86a:	4276      	negs	r6, r6
 800c86c:	f884 3043 	strb.w	r3, [r4, #67]	; 0x43
 800c870:	485e      	ldr	r0, [pc, #376]	; (800c9ec <_printf_i+0x244>)
 800c872:	230a      	movs	r3, #10
 800c874:	e019      	b.n	800c8aa <_printf_i+0x102>
 800c876:	680e      	ldr	r6, [r1, #0]
 800c878:	602b      	str	r3, [r5, #0]
 800c87a:	f010 0f40 	tst.w	r0, #64	; 0x40
 800c87e:	bf18      	it	ne
 800c880:	b236      	sxthne	r6, r6
 800c882:	e7ef      	b.n	800c864 <_printf_i+0xbc>
 800c884:	682b      	ldr	r3, [r5, #0]
 800c886:	6820      	ldr	r0, [r4, #0]
 800c888:	1d19      	adds	r1, r3, #4
 800c88a:	6029      	str	r1, [r5, #0]
 800c88c:	0601      	lsls	r1, r0, #24
 800c88e:	d501      	bpl.n	800c894 <_printf_i+0xec>
 800c890:	681e      	ldr	r6, [r3, #0]
 800c892:	e002      	b.n	800c89a <_printf_i+0xf2>
 800c894:	0646      	lsls	r6, r0, #25
 800c896:	d5fb      	bpl.n	800c890 <_printf_i+0xe8>
 800c898:	881e      	ldrh	r6, [r3, #0]
 800c89a:	4854      	ldr	r0, [pc, #336]	; (800c9ec <_printf_i+0x244>)
 800c89c:	2f6f      	cmp	r7, #111	; 0x6f
 800c89e:	bf0c      	ite	eq
 800c8a0:	2308      	moveq	r3, #8
 800c8a2:	230a      	movne	r3, #10
 800c8a4:	2100      	movs	r1, #0
 800c8a6:	f884 1043 	strb.w	r1, [r4, #67]	; 0x43
 800c8aa:	6865      	ldr	r5, [r4, #4]
 800c8ac:	60a5      	str	r5, [r4, #8]
 800c8ae:	2d00      	cmp	r5, #0
 800c8b0:	bfa2      	ittt	ge
 800c8b2:	6821      	ldrge	r1, [r4, #0]
 800c8b4:	f021 0104 	bicge.w	r1, r1, #4
 800c8b8:	6021      	strge	r1, [r4, #0]
 800c8ba:	b90e      	cbnz	r6, 800c8c0 <_printf_i+0x118>
 800c8bc:	2d00      	cmp	r5, #0
 800c8be:	d04d      	beq.n	800c95c <_printf_i+0x1b4>
 800c8c0:	4615      	mov	r5, r2
 800c8c2:	fbb6 f1f3 	udiv	r1, r6, r3
 800c8c6:	fb03 6711 	mls	r7, r3, r1, r6
 800c8ca:	5dc7      	ldrb	r7, [r0, r7]
 800c8cc:	f805 7d01 	strb.w	r7, [r5, #-1]!
 800c8d0:	4637      	mov	r7, r6
 800c8d2:	42bb      	cmp	r3, r7
 800c8d4:	460e      	mov	r6, r1
 800c8d6:	d9f4      	bls.n	800c8c2 <_printf_i+0x11a>
 800c8d8:	2b08      	cmp	r3, #8
 800c8da:	d10b      	bne.n	800c8f4 <_printf_i+0x14c>
 800c8dc:	6823      	ldr	r3, [r4, #0]
 800c8de:	07de      	lsls	r6, r3, #31
 800c8e0:	d508      	bpl.n	800c8f4 <_printf_i+0x14c>
 800c8e2:	6923      	ldr	r3, [r4, #16]
 800c8e4:	6861      	ldr	r1, [r4, #4]
 800c8e6:	4299      	cmp	r1, r3
 800c8e8:	bfde      	ittt	le
 800c8ea:	2330      	movle	r3, #48	; 0x30
 800c8ec:	f805 3c01 	strble.w	r3, [r5, #-1]
 800c8f0:	f105 35ff 	addle.w	r5, r5, #4294967295	; 0xffffffff
 800c8f4:	1b52      	subs	r2, r2, r5
 800c8f6:	6122      	str	r2, [r4, #16]
 800c8f8:	f8cd a000 	str.w	sl, [sp]
 800c8fc:	464b      	mov	r3, r9
 800c8fe:	aa03      	add	r2, sp, #12
 800c900:	4621      	mov	r1, r4
 800c902:	4640      	mov	r0, r8
 800c904:	f7ff fee2 	bl	800c6cc <_printf_common>
 800c908:	3001      	adds	r0, #1
 800c90a:	d14c      	bne.n	800c9a6 <_printf_i+0x1fe>
 800c90c:	f04f 30ff 	mov.w	r0, #4294967295	; 0xffffffff
 800c910:	b004      	add	sp, #16
 800c912:	e8bd 87f0 	ldmia.w	sp!, {r4, r5, r6, r7, r8, r9, sl, pc}
 800c916:	4835      	ldr	r0, [pc, #212]	; (800c9ec <_printf_i+0x244>)
 800c918:	f881 7045 	strb.w	r7, [r1, #69]	; 0x45
 800c91c:	6829      	ldr	r1, [r5, #0]
 800c91e:	6823      	ldr	r3, [r4, #0]
 800c920:	f851 6b04 	ldr.w	r6, [r1], #4
 800c924:	6029      	str	r1, [r5, #0]
 800c926:	061d      	lsls	r5, r3, #24
 800c928:	d514      	bpl.n	800c954 <_printf_i+0x1ac>
 800c92a:	07df      	lsls	r7, r3, #31
 800c92c:	bf44      	itt	mi
 800c92e:	f043 0320 	orrmi.w	r3, r3, #32
 800c932:	6023      	strmi	r3, [r4, #0]
 800c934:	b91e      	cbnz	r6, 800c93e <_printf_i+0x196>
 800c936:	6823      	ldr	r3, [r4, #0]
 800c938:	f023 0320 	bic.w	r3, r3, #32
 800c93c:	6023      	str	r3, [r4, #0]
 800c93e:	2310      	movs	r3, #16
 800c940:	e7b0      	b.n	800c8a4 <_printf_i+0xfc>
 800c942:	6823      	ldr	r3, [r4, #0]
 800c944:	f043 0320 	orr.w	r3, r3, #32
 800c948:	6023      	str	r3, [r4, #0]
 800c94a:	2378      	movs	r3, #120	; 0x78
 800c94c:	4828      	ldr	r0, [pc, #160]	; (800c9f0 <_printf_i+0x248>)
 800c94e:	f884 3045 	strb.w	r3, [r4, #69]	; 0x45
 800c952:	e7e3      	b.n	800c91c <_printf_i+0x174>
 800c954:	0659      	lsls	r1, r3, #25
 800c956:	bf48      	it	mi
 800c958:	b2b6      	uxthmi	r6, r6
 800c95a:	e7e6      	b.n	800c92a <_printf_i+0x182>
 800c95c:	4615      	mov	r5, r2
 800c95e:	e7bb      	b.n	800c8d8 <_printf_i+0x130>
 800c960:	682b      	ldr	r3, [r5, #0]
 800c962:	6826      	ldr	r6, [r4, #0]
 800c964:	6961      	ldr	r1, [r4, #20]
 800c966:	1d18      	adds	r0, r3, #4
 800c968:	6028      	str	r0, [r5, #0]
 800c96a:	0635      	lsls	r5, r6, #24
 800c96c:	681b      	ldr	r3, [r3, #0]
 800c96e:	d501      	bpl.n	800c974 <_printf_i+0x1cc>
 800c970:	6019      	str	r1, [r3, #0]
 800c972:	e002      	b.n	800c97a <_printf_i+0x1d2>
 800c974:	0670      	lsls	r0, r6, #25
 800c976:	d5fb      	bpl.n	800c970 <_printf_i+0x1c8>
 800c978:	8019      	strh	r1, [r3, #0]
 800c97a:	2300      	movs	r3, #0
 800c97c:	6123      	str	r3, [r4, #16]
 800c97e:	4615      	mov	r5, r2
 800c980:	e7ba      	b.n	800c8f8 <_printf_i+0x150>
 800c982:	682b      	ldr	r3, [r5, #0]
 800c984:	1d1a      	adds	r2, r3, #4
 800c986:	602a      	str	r2, [r5, #0]
 800c988:	681d      	ldr	r5, [r3, #0]
 800c98a:	6862      	ldr	r2, [r4, #4]
 800c98c:	2100      	movs	r1, #0
 800c98e:	4628      	mov	r0, r5
 800c990:	f7f3 fbf6 	bl	8000180 <memchr>
 800c994:	b108      	cbz	r0, 800c99a <_printf_i+0x1f2>
 800c996:	1b40      	subs	r0, r0, r5
 800c998:	6060      	str	r0, [r4, #4]
 800c99a:	6863      	ldr	r3, [r4, #4]
 800c99c:	6123      	str	r3, [r4, #16]
 800c99e:	2300      	movs	r3, #0
 800c9a0:	f884 3043 	strb.w	r3, [r4, #67]	; 0x43
 800c9a4:	e7a8      	b.n	800c8f8 <_printf_i+0x150>
 800c9a6:	6923      	ldr	r3, [r4, #16]
 800c9a8:	462a      	mov	r2, r5
 800c9aa:	4649      	mov	r1, r9
 800c9ac:	4640      	mov	r0, r8
 800c9ae:	47d0      	blx	sl
 800c9b0:	3001      	adds	r0, #1
 800c9b2:	d0ab      	beq.n	800c90c <_printf_i+0x164>
 800c9b4:	6823      	ldr	r3, [r4, #0]
 800c9b6:	079b      	lsls	r3, r3, #30
 800c9b8:	d413      	bmi.n	800c9e2 <_printf_i+0x23a>
 800c9ba:	68e0      	ldr	r0, [r4, #12]
 800c9bc:	9b03      	ldr	r3, [sp, #12]
 800c9be:	4298      	cmp	r0, r3
 800c9c0:	bfb8      	it	lt
 800c9c2:	4618      	movlt	r0, r3
 800c9c4:	e7a4      	b.n	800c910 <_printf_i+0x168>
 800c9c6:	2301      	movs	r3, #1
 800c9c8:	4632      	mov	r2, r6
 800c9ca:	4649      	mov	r1, r9
 800c9cc:	4640      	mov	r0, r8
 800c9ce:	47d0      	blx	sl
 800c9d0:	3001      	adds	r0, #1
 800c9d2:	d09b      	beq.n	800c90c <_printf_i+0x164>
 800c9d4:	3501      	adds	r5, #1
 800c9d6:	68e3      	ldr	r3, [r4, #12]
 800c9d8:	9903      	ldr	r1, [sp, #12]
 800c9da:	1a5b      	subs	r3, r3, r1
 800c9dc:	42ab      	cmp	r3, r5
 800c9de:	dcf2      	bgt.n	800c9c6 <_printf_i+0x21e>
 800c9e0:	e7eb      	b.n	800c9ba <_printf_i+0x212>
 800c9e2:	2500      	movs	r5, #0
 800c9e4:	f104 0619 	add.w	r6, r4, #25
 800c9e8:	e7f5      	b.n	800c9d6 <_printf_i+0x22e>
 800c9ea:	bf00      	nop
 800c9ec:	080111f1 	.word	0x080111f1
 800c9f0:	08011202 	.word	0x08011202

0800c9f4 <_sbrk_r>:
 800c9f4:	b538      	push	{r3, r4, r5, lr}
 800c9f6:	4d06      	ldr	r5, [pc, #24]	; (800ca10 <_sbrk_r+0x1c>)
 800c9f8:	2300      	movs	r3, #0
 800c9fa:	4604      	mov	r4, r0
 800c9fc:	4608      	mov	r0, r1
 800c9fe:	602b      	str	r3, [r5, #0]
 800ca00:	f001 fef6 	bl	800e7f0 <_sbrk>
 800ca04:	1c43      	adds	r3, r0, #1
 800ca06:	d102      	bne.n	800ca0e <_sbrk_r+0x1a>
 800ca08:	682b      	ldr	r3, [r5, #0]
 800ca0a:	b103      	cbz	r3, 800ca0e <_sbrk_r+0x1a>
 800ca0c:	6023      	str	r3, [r4, #0]
 800ca0e:	bd38      	pop	{r3, r4, r5, pc}
 800ca10:	20001210 	.word	0x20001210

0800ca14 <__sread>:
 800ca14:	b510      	push	{r4, lr}
 800ca16:	460c      	mov	r4, r1
 800ca18:	f9b1 100e 	ldrsh.w	r1, [r1, #14]
 800ca1c:	f000 fab4 	bl	800cf88 <_read_r>
 800ca20:	2800      	cmp	r0, #0
 800ca22:	bfab      	itete	ge
 800ca24:	6d63      	ldrge	r3, [r4, #84]	; 0x54
 800ca26:	89a3      	ldrhlt	r3, [r4, #12]
 800ca28:	181b      	addge	r3, r3, r0
 800ca2a:	f423 5380 	biclt.w	r3, r3, #4096	; 0x1000
 800ca2e:	bfac      	ite	ge
 800ca30:	6563      	strge	r3, [r4, #84]	; 0x54
 800ca32:	81a3      	strhlt	r3, [r4, #12]
 800ca34:	bd10      	pop	{r4, pc}

0800ca36 <__swrite>:
 800ca36:	e92d 41f0 	stmdb	sp!, {r4, r5, r6, r7, r8, lr}
 800ca3a:	461f      	mov	r7, r3
 800ca3c:	898b      	ldrh	r3, [r1, #12]
 800ca3e:	05db      	lsls	r3, r3, #23
 800ca40:	4605      	mov	r5, r0
 800ca42:	460c      	mov	r4, r1
 800ca44:	4616      	mov	r6, r2
 800ca46:	d505      	bpl.n	800ca54 <__swrite+0x1e>
 800ca48:	f9b1 100e 	ldrsh.w	r1, [r1, #14]
 800ca4c:	2302      	movs	r3, #2
 800ca4e:	2200      	movs	r2, #0
 800ca50:	f000 f9cc 	bl	800cdec <_lseek_r>
 800ca54:	89a3      	ldrh	r3, [r4, #12]
 800ca56:	f9b4 100e 	ldrsh.w	r1, [r4, #14]
 800ca5a:	f423 5380 	bic.w	r3, r3, #4096	; 0x1000
 800ca5e:	81a3      	strh	r3, [r4, #12]
 800ca60:	4632      	mov	r2, r6
 800ca62:	463b      	mov	r3, r7
 800ca64:	4628      	mov	r0, r5
 800ca66:	e8bd 41f0 	ldmia.w	sp!, {r4, r5, r6, r7, r8, lr}
 800ca6a:	f000 b869 	b.w	800cb40 <_write_r>

0800ca6e <__sseek>:
 800ca6e:	b510      	push	{r4, lr}
 800ca70:	460c      	mov	r4, r1
 800ca72:	f9b1 100e 	ldrsh.w	r1, [r1, #14]
 800ca76:	f000 f9b9 	bl	800cdec <_lseek_r>
 800ca7a:	1c43      	adds	r3, r0, #1
 800ca7c:	89a3      	ldrh	r3, [r4, #12]
 800ca7e:	bf15      	itete	ne
 800ca80:	6560      	strne	r0, [r4, #84]	; 0x54
 800ca82:	f423 5380 	biceq.w	r3, r3, #4096	; 0x1000
 800ca86:	f443 5380 	orrne.w	r3, r3, #4096	; 0x1000
 800ca8a:	81a3      	strheq	r3, [r4, #12]
 800ca8c:	bf18      	it	ne
 800ca8e:	81a3      	strhne	r3, [r4, #12]
 800ca90:	bd10      	pop	{r4, pc}

0800ca92 <__sclose>:
 800ca92:	f9b1 100e 	ldrsh.w	r1, [r1, #14]
 800ca96:	f000 b8db 	b.w	800cc50 <_close_r>
	...

0800ca9c <__swbuf_r>:
 800ca9c:	b5f8      	push	{r3, r4, r5, r6, r7, lr}
 800ca9e:	460e      	mov	r6, r1
 800caa0:	4614      	mov	r4, r2
 800caa2:	4605      	mov	r5, r0
 800caa4:	b118      	cbz	r0, 800caae <__swbuf_r+0x12>
 800caa6:	6983      	ldr	r3, [r0, #24]
 800caa8:	b90b      	cbnz	r3, 800caae <__swbuf_r+0x12>
 800caaa:	f7ff f9c3 	bl	800be34 <__sinit>
 800caae:	4b21      	ldr	r3, [pc, #132]	; (800cb34 <__swbuf_r+0x98>)
 800cab0:	429c      	cmp	r4, r3
 800cab2:	d12b      	bne.n	800cb0c <__swbuf_r+0x70>
 800cab4:	686c      	ldr	r4, [r5, #4]
 800cab6:	69a3      	ldr	r3, [r4, #24]
 800cab8:	60a3      	str	r3, [r4, #8]
 800caba:	89a3      	ldrh	r3, [r4, #12]
 800cabc:	071a      	lsls	r2, r3, #28
 800cabe:	d52f      	bpl.n	800cb20 <__swbuf_r+0x84>
 800cac0:	6923      	ldr	r3, [r4, #16]
 800cac2:	b36b      	cbz	r3, 800cb20 <__swbuf_r+0x84>
 800cac4:	6923      	ldr	r3, [r4, #16]
 800cac6:	6820      	ldr	r0, [r4, #0]
 800cac8:	1ac0      	subs	r0, r0, r3
 800caca:	6963      	ldr	r3, [r4, #20]
 800cacc:	b2f6      	uxtb	r6, r6
 800cace:	4283      	cmp	r3, r0
 800cad0:	4637      	mov	r7, r6
 800cad2:	dc04      	bgt.n	800cade <__swbuf_r+0x42>
 800cad4:	4621      	mov	r1, r4
 800cad6:	4628      	mov	r0, r5
 800cad8:	f000 f94c 	bl	800cd74 <_fflush_r>
 800cadc:	bb30      	cbnz	r0, 800cb2c <__swbuf_r+0x90>
 800cade:	68a3      	ldr	r3, [r4, #8]
 800cae0:	3b01      	subs	r3, #1
 800cae2:	60a3      	str	r3, [r4, #8]
 800cae4:	6823      	ldr	r3, [r4, #0]
 800cae6:	1c5a      	adds	r2, r3, #1
 800cae8:	6022      	str	r2, [r4, #0]
 800caea:	701e      	strb	r6, [r3, #0]
 800caec:	6963      	ldr	r3, [r4, #20]
 800caee:	3001      	adds	r0, #1
 800caf0:	4283      	cmp	r3, r0
 800caf2:	d004      	beq.n	800cafe <__swbuf_r+0x62>
 800caf4:	89a3      	ldrh	r3, [r4, #12]
 800caf6:	07db      	lsls	r3, r3, #31
 800caf8:	d506      	bpl.n	800cb08 <__swbuf_r+0x6c>
 800cafa:	2e0a      	cmp	r6, #10
 800cafc:	d104      	bne.n	800cb08 <__swbuf_r+0x6c>
 800cafe:	4621      	mov	r1, r4
 800cb00:	4628      	mov	r0, r5
 800cb02:	f000 f937 	bl	800cd74 <_fflush_r>
 800cb06:	b988      	cbnz	r0, 800cb2c <__swbuf_r+0x90>
 800cb08:	4638      	mov	r0, r7
 800cb0a:	bdf8      	pop	{r3, r4, r5, r6, r7, pc}
 800cb0c:	4b0a      	ldr	r3, [pc, #40]	; (800cb38 <__swbuf_r+0x9c>)
 800cb0e:	429c      	cmp	r4, r3
 800cb10:	d101      	bne.n	800cb16 <__swbuf_r+0x7a>
 800cb12:	68ac      	ldr	r4, [r5, #8]
 800cb14:	e7cf      	b.n	800cab6 <__swbuf_r+0x1a>
 800cb16:	4b09      	ldr	r3, [pc, #36]	; (800cb3c <__swbuf_r+0xa0>)
 800cb18:	429c      	cmp	r4, r3
 800cb1a:	bf08      	it	eq
 800cb1c:	68ec      	ldreq	r4, [r5, #12]
 800cb1e:	e7ca      	b.n	800cab6 <__swbuf_r+0x1a>
 800cb20:	4621      	mov	r1, r4
 800cb22:	4628      	mov	r0, r5
 800cb24:	f000 f81e 	bl	800cb64 <__swsetup_r>
 800cb28:	2800      	cmp	r0, #0
 800cb2a:	d0cb      	beq.n	800cac4 <__swbuf_r+0x28>
 800cb2c:	f04f 37ff 	mov.w	r7, #4294967295	; 0xffffffff
 800cb30:	e7ea      	b.n	800cb08 <__swbuf_r+0x6c>
 800cb32:	bf00      	nop
 800cb34:	080111a0 	.word	0x080111a0
 800cb38:	080111c0 	.word	0x080111c0
 800cb3c:	08011180 	.word	0x08011180

0800cb40 <_write_r>:
 800cb40:	b538      	push	{r3, r4, r5, lr}
 800cb42:	4d07      	ldr	r5, [pc, #28]	; (800cb60 <_write_r+0x20>)
 800cb44:	4604      	mov	r4, r0
 800cb46:	4608      	mov	r0, r1
 800cb48:	4611      	mov	r1, r2
 800cb4a:	2200      	movs	r2, #0
 800cb4c:	602a      	str	r2, [r5, #0]
 800cb4e:	461a      	mov	r2, r3
 800cb50:	f001 fe5c 	bl	800e80c <_write>
 800cb54:	1c43      	adds	r3, r0, #1
 800cb56:	d102      	bne.n	800cb5e <_write_r+0x1e>
 800cb58:	682b      	ldr	r3, [r5, #0]
 800cb5a:	b103      	cbz	r3, 800cb5e <_write_r+0x1e>
 800cb5c:	6023      	str	r3, [r4, #0]
 800cb5e:	bd38      	pop	{r3, r4, r5, pc}
 800cb60:	20001210 	.word	0x20001210

0800cb64 <__swsetup_r>:
 800cb64:	4b32      	ldr	r3, [pc, #200]	; (800cc30 <__swsetup_r+0xcc>)
 800cb66:	b570      	push	{r4, r5, r6, lr}
 800cb68:	681d      	ldr	r5, [r3, #0]
 800cb6a:	4606      	mov	r6, r0
 800cb6c:	460c      	mov	r4, r1
 800cb6e:	b125      	cbz	r5, 800cb7a <__swsetup_r+0x16>
 800cb70:	69ab      	ldr	r3, [r5, #24]
 800cb72:	b913      	cbnz	r3, 800cb7a <__swsetup_r+0x16>
 800cb74:	4628      	mov	r0, r5
 800cb76:	f7ff f95d 	bl	800be34 <__sinit>
 800cb7a:	4b2e      	ldr	r3, [pc, #184]	; (800cc34 <__swsetup_r+0xd0>)
 800cb7c:	429c      	cmp	r4, r3
 800cb7e:	d10f      	bne.n	800cba0 <__swsetup_r+0x3c>
 800cb80:	686c      	ldr	r4, [r5, #4]
 800cb82:	89a3      	ldrh	r3, [r4, #12]
 800cb84:	f9b4 200c 	ldrsh.w	r2, [r4, #12]
 800cb88:	0719      	lsls	r1, r3, #28
 800cb8a:	d42c      	bmi.n	800cbe6 <__swsetup_r+0x82>
 800cb8c:	06dd      	lsls	r5, r3, #27
 800cb8e:	d411      	bmi.n	800cbb4 <__swsetup_r+0x50>
 800cb90:	2309      	movs	r3, #9
 800cb92:	6033      	str	r3, [r6, #0]
 800cb94:	f042 0340 	orr.w	r3, r2, #64	; 0x40
 800cb98:	81a3      	strh	r3, [r4, #12]
 800cb9a:	f04f 30ff 	mov.w	r0, #4294967295	; 0xffffffff
 800cb9e:	e03e      	b.n	800cc1e <__swsetup_r+0xba>
 800cba0:	4b25      	ldr	r3, [pc, #148]	; (800cc38 <__swsetup_r+0xd4>)
 800cba2:	429c      	cmp	r4, r3
 800cba4:	d101      	bne.n	800cbaa <__swsetup_r+0x46>
 800cba6:	68ac      	ldr	r4, [r5, #8]
 800cba8:	e7eb      	b.n	800cb82 <__swsetup_r+0x1e>
 800cbaa:	4b24      	ldr	r3, [pc, #144]	; (800cc3c <__swsetup_r+0xd8>)
 800cbac:	429c      	cmp	r4, r3
 800cbae:	bf08      	it	eq
 800cbb0:	68ec      	ldreq	r4, [r5, #12]
 800cbb2:	e7e6      	b.n	800cb82 <__swsetup_r+0x1e>
 800cbb4:	0758      	lsls	r0, r3, #29
 800cbb6:	d512      	bpl.n	800cbde <__swsetup_r+0x7a>
 800cbb8:	6b61      	ldr	r1, [r4, #52]	; 0x34
 800cbba:	b141      	cbz	r1, 800cbce <__swsetup_r+0x6a>
 800cbbc:	f104 0344 	add.w	r3, r4, #68	; 0x44
 800cbc0:	4299      	cmp	r1, r3
 800cbc2:	d002      	beq.n	800cbca <__swsetup_r+0x66>
 800cbc4:	4630      	mov	r0, r6
 800cbc6:	f7ff f9ef 	bl	800bfa8 <_free_r>
 800cbca:	2300      	movs	r3, #0
 800cbcc:	6363      	str	r3, [r4, #52]	; 0x34
 800cbce:	89a3      	ldrh	r3, [r4, #12]
 800cbd0:	f023 0324 	bic.w	r3, r3, #36	; 0x24
 800cbd4:	81a3      	strh	r3, [r4, #12]
 800cbd6:	2300      	movs	r3, #0
 800cbd8:	6063      	str	r3, [r4, #4]
 800cbda:	6923      	ldr	r3, [r4, #16]
 800cbdc:	6023      	str	r3, [r4, #0]
 800cbde:	89a3      	ldrh	r3, [r4, #12]
 800cbe0:	f043 0308 	orr.w	r3, r3, #8
 800cbe4:	81a3      	strh	r3, [r4, #12]
 800cbe6:	6923      	ldr	r3, [r4, #16]
 800cbe8:	b94b      	cbnz	r3, 800cbfe <__swsetup_r+0x9a>
 800cbea:	89a3      	ldrh	r3, [r4, #12]
 800cbec:	f403 7320 	and.w	r3, r3, #640	; 0x280
 800cbf0:	f5b3 7f00 	cmp.w	r3, #512	; 0x200
 800cbf4:	d003      	beq.n	800cbfe <__swsetup_r+0x9a>
 800cbf6:	4621      	mov	r1, r4
 800cbf8:	4630      	mov	r0, r6
 800cbfa:	f000 f92f 	bl	800ce5c <__smakebuf_r>
 800cbfe:	89a0      	ldrh	r0, [r4, #12]
 800cc00:	f9b4 200c 	ldrsh.w	r2, [r4, #12]
 800cc04:	f010 0301 	ands.w	r3, r0, #1
 800cc08:	d00a      	beq.n	800cc20 <__swsetup_r+0xbc>
 800cc0a:	2300      	movs	r3, #0
 800cc0c:	60a3      	str	r3, [r4, #8]
 800cc0e:	6963      	ldr	r3, [r4, #20]
 800cc10:	425b      	negs	r3, r3
 800cc12:	61a3      	str	r3, [r4, #24]
 800cc14:	6923      	ldr	r3, [r4, #16]
 800cc16:	b943      	cbnz	r3, 800cc2a <__swsetup_r+0xc6>
 800cc18:	f010 0080 	ands.w	r0, r0, #128	; 0x80
 800cc1c:	d1ba      	bne.n	800cb94 <__swsetup_r+0x30>
 800cc1e:	bd70      	pop	{r4, r5, r6, pc}
 800cc20:	0781      	lsls	r1, r0, #30
 800cc22:	bf58      	it	pl
 800cc24:	6963      	ldrpl	r3, [r4, #20]
 800cc26:	60a3      	str	r3, [r4, #8]
 800cc28:	e7f4      	b.n	800cc14 <__swsetup_r+0xb0>
 800cc2a:	2000      	movs	r0, #0
 800cc2c:	e7f7      	b.n	800cc1e <__swsetup_r+0xba>
 800cc2e:	bf00      	nop
 800cc30:	20000070 	.word	0x20000070
 800cc34:	080111a0 	.word	0x080111a0
 800cc38:	080111c0 	.word	0x080111c0
 800cc3c:	08011180 	.word	0x08011180

0800cc40 <abort>:
 800cc40:	b508      	push	{r3, lr}
 800cc42:	2006      	movs	r0, #6
 800cc44:	f000 f9da 	bl	800cffc <raise>
 800cc48:	2001      	movs	r0, #1
 800cc4a:	f001 fde7 	bl	800e81c <_exit>
	...

0800cc50 <_close_r>:
 800cc50:	b538      	push	{r3, r4, r5, lr}
 800cc52:	4d06      	ldr	r5, [pc, #24]	; (800cc6c <_close_r+0x1c>)
 800cc54:	2300      	movs	r3, #0
 800cc56:	4604      	mov	r4, r0
 800cc58:	4608      	mov	r0, r1
 800cc5a:	602b      	str	r3, [r5, #0]
 800cc5c:	f001 fd90 	bl	800e780 <_close>
 800cc60:	1c43      	adds	r3, r0, #1
 800cc62:	d102      	bne.n	800cc6a <_close_r+0x1a>
 800cc64:	682b      	ldr	r3, [r5, #0]
 800cc66:	b103      	cbz	r3, 800cc6a <_close_r+0x1a>
 800cc68:	6023      	str	r3, [r4, #0]
 800cc6a:	bd38      	pop	{r3, r4, r5, pc}
 800cc6c:	20001210 	.word	0x20001210

0800cc70 <__sflush_r>:
 800cc70:	898a      	ldrh	r2, [r1, #12]
 800cc72:	b5f8      	push	{r3, r4, r5, r6, r7, lr}
 800cc74:	4605      	mov	r5, r0
 800cc76:	0710      	lsls	r0, r2, #28
 800cc78:	460c      	mov	r4, r1
 800cc7a:	d457      	bmi.n	800cd2c <__sflush_r+0xbc>
 800cc7c:	684b      	ldr	r3, [r1, #4]
 800cc7e:	2b00      	cmp	r3, #0
 800cc80:	dc04      	bgt.n	800cc8c <__sflush_r+0x1c>
 800cc82:	6c0b      	ldr	r3, [r1, #64]	; 0x40
 800cc84:	2b00      	cmp	r3, #0
 800cc86:	dc01      	bgt.n	800cc8c <__sflush_r+0x1c>
 800cc88:	2000      	movs	r0, #0
 800cc8a:	bdf8      	pop	{r3, r4, r5, r6, r7, pc}
 800cc8c:	6ae6      	ldr	r6, [r4, #44]	; 0x2c
 800cc8e:	2e00      	cmp	r6, #0
 800cc90:	d0fa      	beq.n	800cc88 <__sflush_r+0x18>
 800cc92:	2300      	movs	r3, #0
 800cc94:	f412 5280 	ands.w	r2, r2, #4096	; 0x1000
 800cc98:	682f      	ldr	r7, [r5, #0]
 800cc9a:	602b      	str	r3, [r5, #0]
 800cc9c:	d032      	beq.n	800cd04 <__sflush_r+0x94>
 800cc9e:	6d60      	ldr	r0, [r4, #84]	; 0x54
 800cca0:	89a3      	ldrh	r3, [r4, #12]
 800cca2:	075a      	lsls	r2, r3, #29
 800cca4:	d505      	bpl.n	800ccb2 <__sflush_r+0x42>
 800cca6:	6863      	ldr	r3, [r4, #4]
 800cca8:	1ac0      	subs	r0, r0, r3
 800ccaa:	6b63      	ldr	r3, [r4, #52]	; 0x34
 800ccac:	b10b      	cbz	r3, 800ccb2 <__sflush_r+0x42>
 800ccae:	6c23      	ldr	r3, [r4, #64]	; 0x40
 800ccb0:	1ac0      	subs	r0, r0, r3
 800ccb2:	2300      	movs	r3, #0
 800ccb4:	4602      	mov	r2, r0
 800ccb6:	6ae6      	ldr	r6, [r4, #44]	; 0x2c
 800ccb8:	6a21      	ldr	r1, [r4, #32]
 800ccba:	4628      	mov	r0, r5
 800ccbc:	47b0      	blx	r6
 800ccbe:	1c43      	adds	r3, r0, #1
 800ccc0:	89a3      	ldrh	r3, [r4, #12]
 800ccc2:	d106      	bne.n	800ccd2 <__sflush_r+0x62>
 800ccc4:	6829      	ldr	r1, [r5, #0]
 800ccc6:	291d      	cmp	r1, #29
 800ccc8:	d82c      	bhi.n	800cd24 <__sflush_r+0xb4>
 800ccca:	4a29      	ldr	r2, [pc, #164]	; (800cd70 <__sflush_r+0x100>)
 800cccc:	40ca      	lsrs	r2, r1
 800ccce:	07d6      	lsls	r6, r2, #31
 800ccd0:	d528      	bpl.n	800cd24 <__sflush_r+0xb4>
 800ccd2:	2200      	movs	r2, #0
 800ccd4:	6062      	str	r2, [r4, #4]
 800ccd6:	04d9      	lsls	r1, r3, #19
 800ccd8:	6922      	ldr	r2, [r4, #16]
 800ccda:	6022      	str	r2, [r4, #0]
 800ccdc:	d504      	bpl.n	800cce8 <__sflush_r+0x78>
 800ccde:	1c42      	adds	r2, r0, #1
 800cce0:	d101      	bne.n	800cce6 <__sflush_r+0x76>
 800cce2:	682b      	ldr	r3, [r5, #0]
 800cce4:	b903      	cbnz	r3, 800cce8 <__sflush_r+0x78>
 800cce6:	6560      	str	r0, [r4, #84]	; 0x54
 800cce8:	6b61      	ldr	r1, [r4, #52]	; 0x34
 800ccea:	602f      	str	r7, [r5, #0]
 800ccec:	2900      	cmp	r1, #0
 800ccee:	d0cb      	beq.n	800cc88 <__sflush_r+0x18>
 800ccf0:	f104 0344 	add.w	r3, r4, #68	; 0x44
 800ccf4:	4299      	cmp	r1, r3
 800ccf6:	d002      	beq.n	800ccfe <__sflush_r+0x8e>
 800ccf8:	4628      	mov	r0, r5
 800ccfa:	f7ff f955 	bl	800bfa8 <_free_r>
 800ccfe:	2000      	movs	r0, #0
 800cd00:	6360      	str	r0, [r4, #52]	; 0x34
 800cd02:	e7c2      	b.n	800cc8a <__sflush_r+0x1a>
 800cd04:	6a21      	ldr	r1, [r4, #32]
 800cd06:	2301      	movs	r3, #1
 800cd08:	4628      	mov	r0, r5
 800cd0a:	47b0      	blx	r6
 800cd0c:	1c41      	adds	r1, r0, #1
 800cd0e:	d1c7      	bne.n	800cca0 <__sflush_r+0x30>
 800cd10:	682b      	ldr	r3, [r5, #0]
 800cd12:	2b00      	cmp	r3, #0
 800cd14:	d0c4      	beq.n	800cca0 <__sflush_r+0x30>
 800cd16:	2b1d      	cmp	r3, #29
 800cd18:	d001      	beq.n	800cd1e <__sflush_r+0xae>
 800cd1a:	2b16      	cmp	r3, #22
 800cd1c:	d101      	bne.n	800cd22 <__sflush_r+0xb2>
 800cd1e:	602f      	str	r7, [r5, #0]
 800cd20:	e7b2      	b.n	800cc88 <__sflush_r+0x18>
 800cd22:	89a3      	ldrh	r3, [r4, #12]
 800cd24:	f043 0340 	orr.w	r3, r3, #64	; 0x40
 800cd28:	81a3      	strh	r3, [r4, #12]
 800cd2a:	e7ae      	b.n	800cc8a <__sflush_r+0x1a>
 800cd2c:	690f      	ldr	r7, [r1, #16]
 800cd2e:	2f00      	cmp	r7, #0
 800cd30:	d0aa      	beq.n	800cc88 <__sflush_r+0x18>
 800cd32:	0793      	lsls	r3, r2, #30
 800cd34:	680e      	ldr	r6, [r1, #0]
 800cd36:	bf08      	it	eq
 800cd38:	694b      	ldreq	r3, [r1, #20]
 800cd3a:	600f      	str	r7, [r1, #0]
 800cd3c:	bf18      	it	ne
 800cd3e:	2300      	movne	r3, #0
 800cd40:	1bf6      	subs	r6, r6, r7
 800cd42:	608b      	str	r3, [r1, #8]
 800cd44:	2e00      	cmp	r6, #0
 800cd46:	dd9f      	ble.n	800cc88 <__sflush_r+0x18>
 800cd48:	6a21      	ldr	r1, [r4, #32]
 800cd4a:	f8d4 c028 	ldr.w	ip, [r4, #40]	; 0x28
 800cd4e:	4633      	mov	r3, r6
 800cd50:	463a      	mov	r2, r7
 800cd52:	4628      	mov	r0, r5
 800cd54:	47e0      	blx	ip
 800cd56:	2800      	cmp	r0, #0
 800cd58:	dc06      	bgt.n	800cd68 <__sflush_r+0xf8>
 800cd5a:	89a3      	ldrh	r3, [r4, #12]
 800cd5c:	f043 0340 	orr.w	r3, r3, #64	; 0x40
 800cd60:	81a3      	strh	r3, [r4, #12]
 800cd62:	f04f 30ff 	mov.w	r0, #4294967295	; 0xffffffff
 800cd66:	e790      	b.n	800cc8a <__sflush_r+0x1a>
 800cd68:	4407      	add	r7, r0
 800cd6a:	1a36      	subs	r6, r6, r0
 800cd6c:	e7ea      	b.n	800cd44 <__sflush_r+0xd4>
 800cd6e:	bf00      	nop
 800cd70:	20400001 	.word	0x20400001

0800cd74 <_fflush_r>:
 800cd74:	b538      	push	{r3, r4, r5, lr}
 800cd76:	690b      	ldr	r3, [r1, #16]
 800cd78:	4605      	mov	r5, r0
 800cd7a:	460c      	mov	r4, r1
 800cd7c:	b913      	cbnz	r3, 800cd84 <_fflush_r+0x10>
 800cd7e:	2500      	movs	r5, #0
 800cd80:	4628      	mov	r0, r5
 800cd82:	bd38      	pop	{r3, r4, r5, pc}
 800cd84:	b118      	cbz	r0, 800cd8e <_fflush_r+0x1a>
 800cd86:	6983      	ldr	r3, [r0, #24]
 800cd88:	b90b      	cbnz	r3, 800cd8e <_fflush_r+0x1a>
 800cd8a:	f7ff f853 	bl	800be34 <__sinit>
 800cd8e:	4b14      	ldr	r3, [pc, #80]	; (800cde0 <_fflush_r+0x6c>)
 800cd90:	429c      	cmp	r4, r3
 800cd92:	d11b      	bne.n	800cdcc <_fflush_r+0x58>
 800cd94:	686c      	ldr	r4, [r5, #4]
 800cd96:	f9b4 300c 	ldrsh.w	r3, [r4, #12]
 800cd9a:	2b00      	cmp	r3, #0
 800cd9c:	d0ef      	beq.n	800cd7e <_fflush_r+0xa>
 800cd9e:	6e62      	ldr	r2, [r4, #100]	; 0x64
 800cda0:	07d0      	lsls	r0, r2, #31
 800cda2:	d404      	bmi.n	800cdae <_fflush_r+0x3a>
 800cda4:	0599      	lsls	r1, r3, #22
 800cda6:	d402      	bmi.n	800cdae <_fflush_r+0x3a>
 800cda8:	6da0      	ldr	r0, [r4, #88]	; 0x58
 800cdaa:	f7ff f8f3 	bl	800bf94 <__retarget_lock_acquire_recursive>
 800cdae:	4628      	mov	r0, r5
 800cdb0:	4621      	mov	r1, r4
 800cdb2:	f7ff ff5d 	bl	800cc70 <__sflush_r>
 800cdb6:	6e63      	ldr	r3, [r4, #100]	; 0x64
 800cdb8:	07da      	lsls	r2, r3, #31
 800cdba:	4605      	mov	r5, r0
 800cdbc:	d4e0      	bmi.n	800cd80 <_fflush_r+0xc>
 800cdbe:	89a3      	ldrh	r3, [r4, #12]
 800cdc0:	059b      	lsls	r3, r3, #22
 800cdc2:	d4dd      	bmi.n	800cd80 <_fflush_r+0xc>
 800cdc4:	6da0      	ldr	r0, [r4, #88]	; 0x58
 800cdc6:	f7ff f8e6 	bl	800bf96 <__retarget_lock_release_recursive>
 800cdca:	e7d9      	b.n	800cd80 <_fflush_r+0xc>
 800cdcc:	4b05      	ldr	r3, [pc, #20]	; (800cde4 <_fflush_r+0x70>)
 800cdce:	429c      	cmp	r4, r3
 800cdd0:	d101      	bne.n	800cdd6 <_fflush_r+0x62>
 800cdd2:	68ac      	ldr	r4, [r5, #8]
 800cdd4:	e7df      	b.n	800cd96 <_fflush_r+0x22>
 800cdd6:	4b04      	ldr	r3, [pc, #16]	; (800cde8 <_fflush_r+0x74>)
 800cdd8:	429c      	cmp	r4, r3
 800cdda:	bf08      	it	eq
 800cddc:	68ec      	ldreq	r4, [r5, #12]
 800cdde:	e7da      	b.n	800cd96 <_fflush_r+0x22>
 800cde0:	080111a0 	.word	0x080111a0
 800cde4:	080111c0 	.word	0x080111c0
 800cde8:	08011180 	.word	0x08011180

0800cdec <_lseek_r>:
 800cdec:	b538      	push	{r3, r4, r5, lr}
 800cdee:	4d07      	ldr	r5, [pc, #28]	; (800ce0c <_lseek_r+0x20>)
 800cdf0:	4604      	mov	r4, r0
 800cdf2:	4608      	mov	r0, r1
 800cdf4:	4611      	mov	r1, r2
 800cdf6:	2200      	movs	r2, #0
 800cdf8:	602a      	str	r2, [r5, #0]
 800cdfa:	461a      	mov	r2, r3
 800cdfc:	f001 fce8 	bl	800e7d0 <_lseek>
 800ce00:	1c43      	adds	r3, r0, #1
 800ce02:	d102      	bne.n	800ce0a <_lseek_r+0x1e>
 800ce04:	682b      	ldr	r3, [r5, #0]
 800ce06:	b103      	cbz	r3, 800ce0a <_lseek_r+0x1e>
 800ce08:	6023      	str	r3, [r4, #0]
 800ce0a:	bd38      	pop	{r3, r4, r5, pc}
 800ce0c:	20001210 	.word	0x20001210

0800ce10 <__swhatbuf_r>:
 800ce10:	b570      	push	{r4, r5, r6, lr}
 800ce12:	460e      	mov	r6, r1
 800ce14:	f9b1 100e 	ldrsh.w	r1, [r1, #14]
 800ce18:	2900      	cmp	r1, #0
 800ce1a:	b096      	sub	sp, #88	; 0x58
 800ce1c:	4614      	mov	r4, r2
 800ce1e:	461d      	mov	r5, r3
 800ce20:	da08      	bge.n	800ce34 <__swhatbuf_r+0x24>
 800ce22:	f9b6 300c 	ldrsh.w	r3, [r6, #12]
 800ce26:	2200      	movs	r2, #0
 800ce28:	602a      	str	r2, [r5, #0]
 800ce2a:	061a      	lsls	r2, r3, #24
 800ce2c:	d410      	bmi.n	800ce50 <__swhatbuf_r+0x40>
 800ce2e:	f44f 6380 	mov.w	r3, #1024	; 0x400
 800ce32:	e00e      	b.n	800ce52 <__swhatbuf_r+0x42>
 800ce34:	466a      	mov	r2, sp
 800ce36:	f000 f8fd 	bl	800d034 <_fstat_r>
 800ce3a:	2800      	cmp	r0, #0
 800ce3c:	dbf1      	blt.n	800ce22 <__swhatbuf_r+0x12>
 800ce3e:	9a01      	ldr	r2, [sp, #4]
 800ce40:	f402 4270 	and.w	r2, r2, #61440	; 0xf000
 800ce44:	f5a2 5300 	sub.w	r3, r2, #8192	; 0x2000
 800ce48:	425a      	negs	r2, r3
 800ce4a:	415a      	adcs	r2, r3
 800ce4c:	602a      	str	r2, [r5, #0]
 800ce4e:	e7ee      	b.n	800ce2e <__swhatbuf_r+0x1e>
 800ce50:	2340      	movs	r3, #64	; 0x40
 800ce52:	2000      	movs	r0, #0
 800ce54:	6023      	str	r3, [r4, #0]
 800ce56:	b016      	add	sp, #88	; 0x58
 800ce58:	bd70      	pop	{r4, r5, r6, pc}
	...

0800ce5c <__smakebuf_r>:
 800ce5c:	898b      	ldrh	r3, [r1, #12]
 800ce5e:	b573      	push	{r0, r1, r4, r5, r6, lr}
 800ce60:	079d      	lsls	r5, r3, #30
 800ce62:	4606      	mov	r6, r0
 800ce64:	460c      	mov	r4, r1
 800ce66:	d507      	bpl.n	800ce78 <__smakebuf_r+0x1c>
 800ce68:	f104 0347 	add.w	r3, r4, #71	; 0x47
 800ce6c:	6023      	str	r3, [r4, #0]
 800ce6e:	6123      	str	r3, [r4, #16]
 800ce70:	2301      	movs	r3, #1
 800ce72:	6163      	str	r3, [r4, #20]
 800ce74:	b002      	add	sp, #8
 800ce76:	bd70      	pop	{r4, r5, r6, pc}
 800ce78:	ab01      	add	r3, sp, #4
 800ce7a:	466a      	mov	r2, sp
 800ce7c:	f7ff ffc8 	bl	800ce10 <__swhatbuf_r>
 800ce80:	9900      	ldr	r1, [sp, #0]
 800ce82:	4605      	mov	r5, r0
 800ce84:	4630      	mov	r0, r6
 800ce86:	f7ff f8f9 	bl	800c07c <_malloc_r>
 800ce8a:	b948      	cbnz	r0, 800cea0 <__smakebuf_r+0x44>
 800ce8c:	f9b4 300c 	ldrsh.w	r3, [r4, #12]
 800ce90:	059a      	lsls	r2, r3, #22
 800ce92:	d4ef      	bmi.n	800ce74 <__smakebuf_r+0x18>
 800ce94:	f023 0303 	bic.w	r3, r3, #3
 800ce98:	f043 0302 	orr.w	r3, r3, #2
 800ce9c:	81a3      	strh	r3, [r4, #12]
 800ce9e:	e7e3      	b.n	800ce68 <__smakebuf_r+0xc>
 800cea0:	4b0d      	ldr	r3, [pc, #52]	; (800ced8 <__smakebuf_r+0x7c>)
 800cea2:	62b3      	str	r3, [r6, #40]	; 0x28
 800cea4:	89a3      	ldrh	r3, [r4, #12]
 800cea6:	6020      	str	r0, [r4, #0]
 800cea8:	f043 0380 	orr.w	r3, r3, #128	; 0x80
 800ceac:	81a3      	strh	r3, [r4, #12]
 800ceae:	9b00      	ldr	r3, [sp, #0]
 800ceb0:	6163      	str	r3, [r4, #20]
 800ceb2:	9b01      	ldr	r3, [sp, #4]
 800ceb4:	6120      	str	r0, [r4, #16]
 800ceb6:	b15b      	cbz	r3, 800ced0 <__smakebuf_r+0x74>
 800ceb8:	f9b4 100e 	ldrsh.w	r1, [r4, #14]
 800cebc:	4630      	mov	r0, r6
 800cebe:	f000 f8cb 	bl	800d058 <_isatty_r>
 800cec2:	b128      	cbz	r0, 800ced0 <__smakebuf_r+0x74>
 800cec4:	89a3      	ldrh	r3, [r4, #12]
 800cec6:	f023 0303 	bic.w	r3, r3, #3
 800ceca:	f043 0301 	orr.w	r3, r3, #1
 800cece:	81a3      	strh	r3, [r4, #12]
 800ced0:	89a0      	ldrh	r0, [r4, #12]
 800ced2:	4305      	orrs	r5, r0
 800ced4:	81a5      	strh	r5, [r4, #12]
 800ced6:	e7cd      	b.n	800ce74 <__smakebuf_r+0x18>
 800ced8:	0800bdcd 	.word	0x0800bdcd

0800cedc <memmove>:
 800cedc:	4288      	cmp	r0, r1
 800cede:	b510      	push	{r4, lr}
 800cee0:	eb01 0402 	add.w	r4, r1, r2
 800cee4:	d902      	bls.n	800ceec <memmove+0x10>
 800cee6:	4284      	cmp	r4, r0
 800cee8:	4623      	mov	r3, r4
 800ceea:	d807      	bhi.n	800cefc <memmove+0x20>
 800ceec:	1e43      	subs	r3, r0, #1
 800ceee:	42a1      	cmp	r1, r4
 800cef0:	d008      	beq.n	800cf04 <memmove+0x28>
 800cef2:	f811 2b01 	ldrb.w	r2, [r1], #1
 800cef6:	f803 2f01 	strb.w	r2, [r3, #1]!
 800cefa:	e7f8      	b.n	800ceee <memmove+0x12>
 800cefc:	4402      	add	r2, r0
 800cefe:	4601      	mov	r1, r0
 800cf00:	428a      	cmp	r2, r1
 800cf02:	d100      	bne.n	800cf06 <memmove+0x2a>
 800cf04:	bd10      	pop	{r4, pc}
 800cf06:	f813 4d01 	ldrb.w	r4, [r3, #-1]!
 800cf0a:	f802 4d01 	strb.w	r4, [r2, #-1]!
 800cf0e:	e7f7      	b.n	800cf00 <memmove+0x24>

0800cf10 <__malloc_lock>:
 800cf10:	4801      	ldr	r0, [pc, #4]	; (800cf18 <__malloc_lock+0x8>)
 800cf12:	f7ff b83f 	b.w	800bf94 <__retarget_lock_acquire_recursive>
 800cf16:	bf00      	nop
 800cf18:	20001204 	.word	0x20001204

0800cf1c <__malloc_unlock>:
 800cf1c:	4801      	ldr	r0, [pc, #4]	; (800cf24 <__malloc_unlock+0x8>)
 800cf1e:	f7ff b83a 	b.w	800bf96 <__retarget_lock_release_recursive>
 800cf22:	bf00      	nop
 800cf24:	20001204 	.word	0x20001204

0800cf28 <_realloc_r>:
 800cf28:	e92d 41f0 	stmdb	sp!, {r4, r5, r6, r7, r8, lr}
 800cf2c:	4680      	mov	r8, r0
 800cf2e:	4614      	mov	r4, r2
 800cf30:	460e      	mov	r6, r1
 800cf32:	b921      	cbnz	r1, 800cf3e <_realloc_r+0x16>
 800cf34:	e8bd 41f0 	ldmia.w	sp!, {r4, r5, r6, r7, r8, lr}
 800cf38:	4611      	mov	r1, r2
 800cf3a:	f7ff b89f 	b.w	800c07c <_malloc_r>
 800cf3e:	b92a      	cbnz	r2, 800cf4c <_realloc_r+0x24>
 800cf40:	f7ff f832 	bl	800bfa8 <_free_r>
 800cf44:	4625      	mov	r5, r4
 800cf46:	4628      	mov	r0, r5
 800cf48:	e8bd 81f0 	ldmia.w	sp!, {r4, r5, r6, r7, r8, pc}
 800cf4c:	f000 f894 	bl	800d078 <_malloc_usable_size_r>
 800cf50:	4284      	cmp	r4, r0
 800cf52:	4607      	mov	r7, r0
 800cf54:	d802      	bhi.n	800cf5c <_realloc_r+0x34>
 800cf56:	ebb4 0f50 	cmp.w	r4, r0, lsr #1
 800cf5a:	d812      	bhi.n	800cf82 <_realloc_r+0x5a>
 800cf5c:	4621      	mov	r1, r4
 800cf5e:	4640      	mov	r0, r8
 800cf60:	f7ff f88c 	bl	800c07c <_malloc_r>
 800cf64:	4605      	mov	r5, r0
 800cf66:	2800      	cmp	r0, #0
 800cf68:	d0ed      	beq.n	800cf46 <_realloc_r+0x1e>
 800cf6a:	42bc      	cmp	r4, r7
 800cf6c:	4622      	mov	r2, r4
 800cf6e:	4631      	mov	r1, r6
 800cf70:	bf28      	it	cs
 800cf72:	463a      	movcs	r2, r7
 800cf74:	f7fe fe7c 	bl	800bc70 <memcpy>
 800cf78:	4631      	mov	r1, r6
 800cf7a:	4640      	mov	r0, r8
 800cf7c:	f7ff f814 	bl	800bfa8 <_free_r>
 800cf80:	e7e1      	b.n	800cf46 <_realloc_r+0x1e>
 800cf82:	4635      	mov	r5, r6
 800cf84:	e7df      	b.n	800cf46 <_realloc_r+0x1e>
	...

0800cf88 <_read_r>:
 800cf88:	b538      	push	{r3, r4, r5, lr}
 800cf8a:	4d07      	ldr	r5, [pc, #28]	; (800cfa8 <_read_r+0x20>)
 800cf8c:	4604      	mov	r4, r0
 800cf8e:	4608      	mov	r0, r1
 800cf90:	4611      	mov	r1, r2
 800cf92:	2200      	movs	r2, #0
 800cf94:	602a      	str	r2, [r5, #0]
 800cf96:	461a      	mov	r2, r3
 800cf98:	f001 fc22 	bl	800e7e0 <_read>
 800cf9c:	1c43      	adds	r3, r0, #1
 800cf9e:	d102      	bne.n	800cfa6 <_read_r+0x1e>
 800cfa0:	682b      	ldr	r3, [r5, #0]
 800cfa2:	b103      	cbz	r3, 800cfa6 <_read_r+0x1e>
 800cfa4:	6023      	str	r3, [r4, #0]
 800cfa6:	bd38      	pop	{r3, r4, r5, pc}
 800cfa8:	20001210 	.word	0x20001210

0800cfac <_raise_r>:
 800cfac:	291f      	cmp	r1, #31
 800cfae:	b538      	push	{r3, r4, r5, lr}
 800cfb0:	4604      	mov	r4, r0
 800cfb2:	460d      	mov	r5, r1
 800cfb4:	d904      	bls.n	800cfc0 <_raise_r+0x14>
 800cfb6:	2316      	movs	r3, #22
 800cfb8:	6003      	str	r3, [r0, #0]
 800cfba:	f04f 30ff 	mov.w	r0, #4294967295	; 0xffffffff
 800cfbe:	bd38      	pop	{r3, r4, r5, pc}
 800cfc0:	6c42      	ldr	r2, [r0, #68]	; 0x44
 800cfc2:	b112      	cbz	r2, 800cfca <_raise_r+0x1e>
 800cfc4:	f852 3021 	ldr.w	r3, [r2, r1, lsl #2]
 800cfc8:	b94b      	cbnz	r3, 800cfde <_raise_r+0x32>
 800cfca:	4620      	mov	r0, r4
 800cfcc:	f000 f830 	bl	800d030 <_getpid_r>
 800cfd0:	462a      	mov	r2, r5
 800cfd2:	4601      	mov	r1, r0
 800cfd4:	4620      	mov	r0, r4
 800cfd6:	e8bd 4038 	ldmia.w	sp!, {r3, r4, r5, lr}
 800cfda:	f000 b817 	b.w	800d00c <_kill_r>
 800cfde:	2b01      	cmp	r3, #1
 800cfe0:	d00a      	beq.n	800cff8 <_raise_r+0x4c>
 800cfe2:	1c59      	adds	r1, r3, #1
 800cfe4:	d103      	bne.n	800cfee <_raise_r+0x42>
 800cfe6:	2316      	movs	r3, #22
 800cfe8:	6003      	str	r3, [r0, #0]
 800cfea:	2001      	movs	r0, #1
 800cfec:	e7e7      	b.n	800cfbe <_raise_r+0x12>
 800cfee:	2400      	movs	r4, #0
 800cff0:	f842 4025 	str.w	r4, [r2, r5, lsl #2]
 800cff4:	4628      	mov	r0, r5
 800cff6:	4798      	blx	r3
 800cff8:	2000      	movs	r0, #0
 800cffa:	e7e0      	b.n	800cfbe <_raise_r+0x12>

0800cffc <raise>:
 800cffc:	4b02      	ldr	r3, [pc, #8]	; (800d008 <raise+0xc>)
 800cffe:	4601      	mov	r1, r0
 800d000:	6818      	ldr	r0, [r3, #0]
 800d002:	f7ff bfd3 	b.w	800cfac <_raise_r>
 800d006:	bf00      	nop
 800d008:	20000070 	.word	0x20000070

0800d00c <_kill_r>:
 800d00c:	b538      	push	{r3, r4, r5, lr}
 800d00e:	4d07      	ldr	r5, [pc, #28]	; (800d02c <_kill_r+0x20>)
 800d010:	2300      	movs	r3, #0
 800d012:	4604      	mov	r4, r0
 800d014:	4608      	mov	r0, r1
 800d016:	4611      	mov	r1, r2
 800d018:	602b      	str	r3, [r5, #0]
 800d01a:	f001 fbd1 	bl	800e7c0 <_kill>
 800d01e:	1c43      	adds	r3, r0, #1
 800d020:	d102      	bne.n	800d028 <_kill_r+0x1c>
 800d022:	682b      	ldr	r3, [r5, #0]
 800d024:	b103      	cbz	r3, 800d028 <_kill_r+0x1c>
 800d026:	6023      	str	r3, [r4, #0]
 800d028:	bd38      	pop	{r3, r4, r5, pc}
 800d02a:	bf00      	nop
 800d02c:	20001210 	.word	0x20001210

0800d030 <_getpid_r>:
 800d030:	f001 bbb6 	b.w	800e7a0 <_getpid>

0800d034 <_fstat_r>:
 800d034:	b538      	push	{r3, r4, r5, lr}
 800d036:	4d07      	ldr	r5, [pc, #28]	; (800d054 <_fstat_r+0x20>)
 800d038:	2300      	movs	r3, #0
 800d03a:	4604      	mov	r4, r0
 800d03c:	4608      	mov	r0, r1
 800d03e:	4611      	mov	r1, r2
 800d040:	602b      	str	r3, [r5, #0]
 800d042:	f001 fba5 	bl	800e790 <_fstat>
 800d046:	1c43      	adds	r3, r0, #1
 800d048:	d102      	bne.n	800d050 <_fstat_r+0x1c>
 800d04a:	682b      	ldr	r3, [r5, #0]
 800d04c:	b103      	cbz	r3, 800d050 <_fstat_r+0x1c>
 800d04e:	6023      	str	r3, [r4, #0]
 800d050:	bd38      	pop	{r3, r4, r5, pc}
 800d052:	bf00      	nop
 800d054:	20001210 	.word	0x20001210

0800d058 <_isatty_r>:
 800d058:	b538      	push	{r3, r4, r5, lr}
 800d05a:	4d06      	ldr	r5, [pc, #24]	; (800d074 <_isatty_r+0x1c>)
 800d05c:	2300      	movs	r3, #0
 800d05e:	4604      	mov	r4, r0
 800d060:	4608      	mov	r0, r1
 800d062:	602b      	str	r3, [r5, #0]
 800d064:	f001 fba4 	bl	800e7b0 <_isatty>
 800d068:	1c43      	adds	r3, r0, #1
 800d06a:	d102      	bne.n	800d072 <_isatty_r+0x1a>
 800d06c:	682b      	ldr	r3, [r5, #0]
 800d06e:	b103      	cbz	r3, 800d072 <_isatty_r+0x1a>
 800d070:	6023      	str	r3, [r4, #0]
 800d072:	bd38      	pop	{r3, r4, r5, pc}
 800d074:	20001210 	.word	0x20001210

0800d078 <_malloc_usable_size_r>:
 800d078:	f851 3c04 	ldr.w	r3, [r1, #-4]
 800d07c:	1f18      	subs	r0, r3, #4
 800d07e:	2b00      	cmp	r3, #0
 800d080:	bfbc      	itt	lt
 800d082:	580b      	ldrlt	r3, [r1, r0]
 800d084:	18c0      	addlt	r0, r0, r3
 800d086:	4770      	bx	lr

0800d088 <cos>:
 800d088:	b530      	push	{r4, r5, lr}
 800d08a:	4a20      	ldr	r2, [pc, #128]	; (800d10c <cos+0x84>)
 800d08c:	f021 4300 	bic.w	r3, r1, #2147483648	; 0x80000000
 800d090:	4293      	cmp	r3, r2
 800d092:	b087      	sub	sp, #28
 800d094:	dc06      	bgt.n	800d0a4 <cos+0x1c>
 800d096:	2200      	movs	r2, #0
 800d098:	2300      	movs	r3, #0
 800d09a:	b007      	add	sp, #28
 800d09c:	e8bd 4030 	ldmia.w	sp!, {r4, r5, lr}
 800d0a0:	f000 bc22 	b.w	800d8e8 <__kernel_cos>
 800d0a4:	4a1a      	ldr	r2, [pc, #104]	; (800d110 <cos+0x88>)
 800d0a6:	4293      	cmp	r3, r2
 800d0a8:	dd05      	ble.n	800d0b6 <cos+0x2e>
 800d0aa:	4602      	mov	r2, r0
 800d0ac:	460b      	mov	r3, r1
 800d0ae:	f7f3 f8bb 	bl	8000228 <__aeabi_dsub>
 800d0b2:	b007      	add	sp, #28
 800d0b4:	bd30      	pop	{r4, r5, pc}
 800d0b6:	aa02      	add	r2, sp, #8
 800d0b8:	f000 f96e 	bl	800d398 <__ieee754_rem_pio2>
 800d0bc:	f000 0003 	and.w	r0, r0, #3
 800d0c0:	2801      	cmp	r0, #1
 800d0c2:	d009      	beq.n	800d0d8 <cos+0x50>
 800d0c4:	2802      	cmp	r0, #2
 800d0c6:	d011      	beq.n	800d0ec <cos+0x64>
 800d0c8:	b9b8      	cbnz	r0, 800d0fa <cos+0x72>
 800d0ca:	e9dd 2304 	ldrd	r2, r3, [sp, #16]
 800d0ce:	e9dd 0102 	ldrd	r0, r1, [sp, #8]
 800d0d2:	f000 fc09 	bl	800d8e8 <__kernel_cos>
 800d0d6:	e7ec      	b.n	800d0b2 <cos+0x2a>
 800d0d8:	9000      	str	r0, [sp, #0]
 800d0da:	e9dd 2304 	ldrd	r2, r3, [sp, #16]
 800d0de:	e9dd 0102 	ldrd	r0, r1, [sp, #8]
 800d0e2:	f001 f801 	bl	800e0e8 <__kernel_sin>
 800d0e6:	f101 4100 	add.w	r1, r1, #2147483648	; 0x80000000
 800d0ea:	e7e2      	b.n	800d0b2 <cos+0x2a>
 800d0ec:	e9dd 2304 	ldrd	r2, r3, [sp, #16]
 800d0f0:	e9dd 0102 	ldrd	r0, r1, [sp, #8]
 800d0f4:	f000 fbf8 	bl	800d8e8 <__kernel_cos>
 800d0f8:	e7f5      	b.n	800d0e6 <cos+0x5e>
 800d0fa:	2301      	movs	r3, #1
 800d0fc:	9300      	str	r3, [sp, #0]
 800d0fe:	e9dd 0102 	ldrd	r0, r1, [sp, #8]
 800d102:	e9dd 2304 	ldrd	r2, r3, [sp, #16]
 800d106:	f000 ffef 	bl	800e0e8 <__kernel_sin>
 800d10a:	e7d2      	b.n	800d0b2 <cos+0x2a>
 800d10c:	3fe921fb 	.word	0x3fe921fb
 800d110:	7fefffff 	.word	0x7fefffff

0800d114 <sin>:
 800d114:	b530      	push	{r4, r5, lr}
 800d116:	4a20      	ldr	r2, [pc, #128]	; (800d198 <sin+0x84>)
 800d118:	f021 4300 	bic.w	r3, r1, #2147483648	; 0x80000000
 800d11c:	4293      	cmp	r3, r2
 800d11e:	b087      	sub	sp, #28
 800d120:	dc06      	bgt.n	800d130 <sin+0x1c>
 800d122:	2300      	movs	r3, #0
 800d124:	9300      	str	r3, [sp, #0]
 800d126:	2200      	movs	r2, #0
 800d128:	2300      	movs	r3, #0
 800d12a:	f000 ffdd 	bl	800e0e8 <__kernel_sin>
 800d12e:	e006      	b.n	800d13e <sin+0x2a>
 800d130:	4a1a      	ldr	r2, [pc, #104]	; (800d19c <sin+0x88>)
 800d132:	4293      	cmp	r3, r2
 800d134:	dd05      	ble.n	800d142 <sin+0x2e>
 800d136:	4602      	mov	r2, r0
 800d138:	460b      	mov	r3, r1
 800d13a:	f7f3 f875 	bl	8000228 <__aeabi_dsub>
 800d13e:	b007      	add	sp, #28
 800d140:	bd30      	pop	{r4, r5, pc}
 800d142:	aa02      	add	r2, sp, #8
 800d144:	f000 f928 	bl	800d398 <__ieee754_rem_pio2>
 800d148:	f000 0003 	and.w	r0, r0, #3
 800d14c:	2801      	cmp	r0, #1
 800d14e:	d009      	beq.n	800d164 <sin+0x50>
 800d150:	2802      	cmp	r0, #2
 800d152:	d00e      	beq.n	800d172 <sin+0x5e>
 800d154:	b9c0      	cbnz	r0, 800d188 <sin+0x74>
 800d156:	2301      	movs	r3, #1
 800d158:	9300      	str	r3, [sp, #0]
 800d15a:	e9dd 0102 	ldrd	r0, r1, [sp, #8]
 800d15e:	e9dd 2304 	ldrd	r2, r3, [sp, #16]
 800d162:	e7e2      	b.n	800d12a <sin+0x16>
 800d164:	e9dd 2304 	ldrd	r2, r3, [sp, #16]
 800d168:	e9dd 0102 	ldrd	r0, r1, [sp, #8]
 800d16c:	f000 fbbc 	bl	800d8e8 <__kernel_cos>
 800d170:	e7e5      	b.n	800d13e <sin+0x2a>
 800d172:	2301      	movs	r3, #1
 800d174:	9300      	str	r3, [sp, #0]
 800d176:	e9dd 0102 	ldrd	r0, r1, [sp, #8]
 800d17a:	e9dd 2304 	ldrd	r2, r3, [sp, #16]
 800d17e:	f000 ffb3 	bl	800e0e8 <__kernel_sin>
 800d182:	f101 4100 	add.w	r1, r1, #2147483648	; 0x80000000
 800d186:	e7da      	b.n	800d13e <sin+0x2a>
 800d188:	e9dd 2304 	ldrd	r2, r3, [sp, #16]
 800d18c:	e9dd 0102 	ldrd	r0, r1, [sp, #8]
 800d190:	f000 fbaa 	bl	800d8e8 <__kernel_cos>
 800d194:	e7f5      	b.n	800d182 <sin+0x6e>
 800d196:	bf00      	nop
 800d198:	3fe921fb 	.word	0x3fe921fb
 800d19c:	7fefffff 	.word	0x7fefffff

0800d1a0 <atan2>:
 800d1a0:	f000 b826 	b.w	800d1f0 <__ieee754_atan2>

0800d1a4 <sqrt>:
 800d1a4:	b5f8      	push	{r3, r4, r5, r6, r7, lr}
 800d1a6:	4606      	mov	r6, r0
 800d1a8:	460f      	mov	r7, r1
 800d1aa:	f000 faed 	bl	800d788 <__ieee754_sqrt>
 800d1ae:	4632      	mov	r2, r6
 800d1b0:	4604      	mov	r4, r0
 800d1b2:	460d      	mov	r5, r1
 800d1b4:	463b      	mov	r3, r7
 800d1b6:	4630      	mov	r0, r6
 800d1b8:	4639      	mov	r1, r7
 800d1ba:	f7f3 fc87 	bl	8000acc <__aeabi_dcmpun>
 800d1be:	b990      	cbnz	r0, 800d1e6 <sqrt+0x42>
 800d1c0:	2200      	movs	r2, #0
 800d1c2:	2300      	movs	r3, #0
 800d1c4:	4630      	mov	r0, r6
 800d1c6:	4639      	mov	r1, r7
 800d1c8:	f7f3 fc58 	bl	8000a7c <__aeabi_dcmplt>
 800d1cc:	b158      	cbz	r0, 800d1e6 <sqrt+0x42>
 800d1ce:	f001 fad1 	bl	800e774 <__errno>
 800d1d2:	2321      	movs	r3, #33	; 0x21
 800d1d4:	6003      	str	r3, [r0, #0]
 800d1d6:	2200      	movs	r2, #0
 800d1d8:	2300      	movs	r3, #0
 800d1da:	4610      	mov	r0, r2
 800d1dc:	4619      	mov	r1, r3
 800d1de:	f7f3 fb05 	bl	80007ec <__aeabi_ddiv>
 800d1e2:	4604      	mov	r4, r0
 800d1e4:	460d      	mov	r5, r1
 800d1e6:	4620      	mov	r0, r4
 800d1e8:	4629      	mov	r1, r5
 800d1ea:	bdf8      	pop	{r3, r4, r5, r6, r7, pc}
 800d1ec:	0000      	movs	r0, r0
	...

0800d1f0 <__ieee754_atan2>:
 800d1f0:	e92d 4ff8 	stmdb	sp!, {r3, r4, r5, r6, r7, r8, r9, sl, fp, lr}
 800d1f4:	4692      	mov	sl, r2
 800d1f6:	4699      	mov	r9, r3
 800d1f8:	f023 4200 	bic.w	r2, r3, #2147483648	; 0x80000000
 800d1fc:	461f      	mov	r7, r3
 800d1fe:	f1ca 0300 	rsb	r3, sl, #0
 800d202:	f8df e184 	ldr.w	lr, [pc, #388]	; 800d388 <__ieee754_atan2+0x198>
 800d206:	ea43 030a 	orr.w	r3, r3, sl
 800d20a:	ea42 73d3 	orr.w	r3, r2, r3, lsr #31
 800d20e:	4573      	cmp	r3, lr
 800d210:	4604      	mov	r4, r0
 800d212:	460d      	mov	r5, r1
 800d214:	d808      	bhi.n	800d228 <__ieee754_atan2+0x38>
 800d216:	4246      	negs	r6, r0
 800d218:	f021 4300 	bic.w	r3, r1, #2147483648	; 0x80000000
 800d21c:	4306      	orrs	r6, r0
 800d21e:	ea43 76d6 	orr.w	r6, r3, r6, lsr #31
 800d222:	4576      	cmp	r6, lr
 800d224:	468c      	mov	ip, r1
 800d226:	d908      	bls.n	800d23a <__ieee754_atan2+0x4a>
 800d228:	4652      	mov	r2, sl
 800d22a:	464b      	mov	r3, r9
 800d22c:	4620      	mov	r0, r4
 800d22e:	4629      	mov	r1, r5
 800d230:	f7f2 fffc 	bl	800022c <__adddf3>
 800d234:	4604      	mov	r4, r0
 800d236:	460d      	mov	r5, r1
 800d238:	e019      	b.n	800d26e <__ieee754_atan2+0x7e>
 800d23a:	f109 4640 	add.w	r6, r9, #3221225472	; 0xc0000000
 800d23e:	f506 1680 	add.w	r6, r6, #1048576	; 0x100000
 800d242:	ea56 060a 	orrs.w	r6, r6, sl
 800d246:	d103      	bne.n	800d250 <__ieee754_atan2+0x60>
 800d248:	e8bd 4ff8 	ldmia.w	sp!, {r3, r4, r5, r6, r7, r8, r9, sl, fp, lr}
 800d24c:	f001 b804 	b.w	800e258 <atan>
 800d250:	17be      	asrs	r6, r7, #30
 800d252:	f006 0602 	and.w	r6, r6, #2
 800d256:	ea46 76d1 	orr.w	r6, r6, r1, lsr #31
 800d25a:	ea53 0100 	orrs.w	r1, r3, r0
 800d25e:	d10a      	bne.n	800d276 <__ieee754_atan2+0x86>
 800d260:	2e02      	cmp	r6, #2
 800d262:	d067      	beq.n	800d334 <__ieee754_atan2+0x144>
 800d264:	2e03      	cmp	r6, #3
 800d266:	d102      	bne.n	800d26e <__ieee754_atan2+0x7e>
 800d268:	a53b      	add	r5, pc, #236	; (adr r5, 800d358 <__ieee754_atan2+0x168>)
 800d26a:	e9d5 4500 	ldrd	r4, r5, [r5]
 800d26e:	4620      	mov	r0, r4
 800d270:	4629      	mov	r1, r5
 800d272:	e8bd 8ff8 	ldmia.w	sp!, {r3, r4, r5, r6, r7, r8, r9, sl, fp, pc}
 800d276:	ea52 010a 	orrs.w	r1, r2, sl
 800d27a:	d106      	bne.n	800d28a <__ieee754_atan2+0x9a>
 800d27c:	f1bc 0f00 	cmp.w	ip, #0
 800d280:	da63      	bge.n	800d34a <__ieee754_atan2+0x15a>
 800d282:	a537      	add	r5, pc, #220	; (adr r5, 800d360 <__ieee754_atan2+0x170>)
 800d284:	e9d5 4500 	ldrd	r4, r5, [r5]
 800d288:	e7f1      	b.n	800d26e <__ieee754_atan2+0x7e>
 800d28a:	4572      	cmp	r2, lr
 800d28c:	d10f      	bne.n	800d2ae <__ieee754_atan2+0xbe>
 800d28e:	4293      	cmp	r3, r2
 800d290:	f106 36ff 	add.w	r6, r6, #4294967295	; 0xffffffff
 800d294:	d107      	bne.n	800d2a6 <__ieee754_atan2+0xb6>
 800d296:	2e02      	cmp	r6, #2
 800d298:	d850      	bhi.n	800d33c <__ieee754_atan2+0x14c>
 800d29a:	4b3c      	ldr	r3, [pc, #240]	; (800d38c <__ieee754_atan2+0x19c>)
 800d29c:	eb03 06c6 	add.w	r6, r3, r6, lsl #3
 800d2a0:	e9d6 4500 	ldrd	r4, r5, [r6]
 800d2a4:	e7e3      	b.n	800d26e <__ieee754_atan2+0x7e>
 800d2a6:	2e02      	cmp	r6, #2
 800d2a8:	d84c      	bhi.n	800d344 <__ieee754_atan2+0x154>
 800d2aa:	4b39      	ldr	r3, [pc, #228]	; (800d390 <__ieee754_atan2+0x1a0>)
 800d2ac:	e7f6      	b.n	800d29c <__ieee754_atan2+0xac>
 800d2ae:	4573      	cmp	r3, lr
 800d2b0:	d0e4      	beq.n	800d27c <__ieee754_atan2+0x8c>
 800d2b2:	1a9b      	subs	r3, r3, r2
 800d2b4:	f1b3 7f74 	cmp.w	r3, #63963136	; 0x3d00000
 800d2b8:	ea4f 5223 	mov.w	r2, r3, asr #20
 800d2bc:	da20      	bge.n	800d300 <__ieee754_atan2+0x110>
 800d2be:	2f00      	cmp	r7, #0
 800d2c0:	da01      	bge.n	800d2c6 <__ieee754_atan2+0xd6>
 800d2c2:	323c      	adds	r2, #60	; 0x3c
 800d2c4:	db20      	blt.n	800d308 <__ieee754_atan2+0x118>
 800d2c6:	4652      	mov	r2, sl
 800d2c8:	464b      	mov	r3, r9
 800d2ca:	4620      	mov	r0, r4
 800d2cc:	4629      	mov	r1, r5
 800d2ce:	f7f3 fa8d 	bl	80007ec <__aeabi_ddiv>
 800d2d2:	f001 f94b 	bl	800e56c <fabs>
 800d2d6:	f000 ffbf 	bl	800e258 <atan>
 800d2da:	4604      	mov	r4, r0
 800d2dc:	460d      	mov	r5, r1
 800d2de:	2e01      	cmp	r6, #1
 800d2e0:	d015      	beq.n	800d30e <__ieee754_atan2+0x11e>
 800d2e2:	2e02      	cmp	r6, #2
 800d2e4:	d017      	beq.n	800d316 <__ieee754_atan2+0x126>
 800d2e6:	2e00      	cmp	r6, #0
 800d2e8:	d0c1      	beq.n	800d26e <__ieee754_atan2+0x7e>
 800d2ea:	a31f      	add	r3, pc, #124	; (adr r3, 800d368 <__ieee754_atan2+0x178>)
 800d2ec:	e9d3 2300 	ldrd	r2, r3, [r3]
 800d2f0:	4620      	mov	r0, r4
 800d2f2:	4629      	mov	r1, r5
 800d2f4:	f7f2 ff98 	bl	8000228 <__aeabi_dsub>
 800d2f8:	a31d      	add	r3, pc, #116	; (adr r3, 800d370 <__ieee754_atan2+0x180>)
 800d2fa:	e9d3 2300 	ldrd	r2, r3, [r3]
 800d2fe:	e016      	b.n	800d32e <__ieee754_atan2+0x13e>
 800d300:	a51d      	add	r5, pc, #116	; (adr r5, 800d378 <__ieee754_atan2+0x188>)
 800d302:	e9d5 4500 	ldrd	r4, r5, [r5]
 800d306:	e7ea      	b.n	800d2de <__ieee754_atan2+0xee>
 800d308:	2400      	movs	r4, #0
 800d30a:	2500      	movs	r5, #0
 800d30c:	e7e7      	b.n	800d2de <__ieee754_atan2+0xee>
 800d30e:	f105 4300 	add.w	r3, r5, #2147483648	; 0x80000000
 800d312:	461d      	mov	r5, r3
 800d314:	e7ab      	b.n	800d26e <__ieee754_atan2+0x7e>
 800d316:	a314      	add	r3, pc, #80	; (adr r3, 800d368 <__ieee754_atan2+0x178>)
 800d318:	e9d3 2300 	ldrd	r2, r3, [r3]
 800d31c:	4620      	mov	r0, r4
 800d31e:	4629      	mov	r1, r5
 800d320:	f7f2 ff82 	bl	8000228 <__aeabi_dsub>
 800d324:	4602      	mov	r2, r0
 800d326:	460b      	mov	r3, r1
 800d328:	a111      	add	r1, pc, #68	; (adr r1, 800d370 <__ieee754_atan2+0x180>)
 800d32a:	e9d1 0100 	ldrd	r0, r1, [r1]
 800d32e:	f7f2 ff7b 	bl	8000228 <__aeabi_dsub>
 800d332:	e77f      	b.n	800d234 <__ieee754_atan2+0x44>
 800d334:	a50e      	add	r5, pc, #56	; (adr r5, 800d370 <__ieee754_atan2+0x180>)
 800d336:	e9d5 4500 	ldrd	r4, r5, [r5]
 800d33a:	e798      	b.n	800d26e <__ieee754_atan2+0x7e>
 800d33c:	a510      	add	r5, pc, #64	; (adr r5, 800d380 <__ieee754_atan2+0x190>)
 800d33e:	e9d5 4500 	ldrd	r4, r5, [r5]
 800d342:	e794      	b.n	800d26e <__ieee754_atan2+0x7e>
 800d344:	2400      	movs	r4, #0
 800d346:	2500      	movs	r5, #0
 800d348:	e791      	b.n	800d26e <__ieee754_atan2+0x7e>
 800d34a:	a50b      	add	r5, pc, #44	; (adr r5, 800d378 <__ieee754_atan2+0x188>)
 800d34c:	e9d5 4500 	ldrd	r4, r5, [r5]
 800d350:	e78d      	b.n	800d26e <__ieee754_atan2+0x7e>
 800d352:	bf00      	nop
 800d354:	f3af 8000 	nop.w
 800d358:	54442d18 	.word	0x54442d18
 800d35c:	c00921fb 	.word	0xc00921fb
 800d360:	54442d18 	.word	0x54442d18
 800d364:	bff921fb 	.word	0xbff921fb
 800d368:	33145c07 	.word	0x33145c07
 800d36c:	3ca1a626 	.word	0x3ca1a626
 800d370:	54442d18 	.word	0x54442d18
 800d374:	400921fb 	.word	0x400921fb
 800d378:	54442d18 	.word	0x54442d18
 800d37c:	3ff921fb 	.word	0x3ff921fb
 800d380:	54442d18 	.word	0x54442d18
 800d384:	3fe921fb 	.word	0x3fe921fb
 800d388:	7ff00000 	.word	0x7ff00000
 800d38c:	08011218 	.word	0x08011218
 800d390:	08011230 	.word	0x08011230
 800d394:	00000000 	.word	0x00000000

0800d398 <__ieee754_rem_pio2>:
 800d398:	e92d 4ff0 	stmdb	sp!, {r4, r5, r6, r7, r8, r9, sl, fp, lr}
 800d39c:	4614      	mov	r4, r2
 800d39e:	4ac4      	ldr	r2, [pc, #784]	; (800d6b0 <__ieee754_rem_pio2+0x318>)
 800d3a0:	b08d      	sub	sp, #52	; 0x34
 800d3a2:	f021 4a00 	bic.w	sl, r1, #2147483648	; 0x80000000
 800d3a6:	4592      	cmp	sl, r2
 800d3a8:	9104      	str	r1, [sp, #16]
 800d3aa:	dc07      	bgt.n	800d3bc <__ieee754_rem_pio2+0x24>
 800d3ac:	2200      	movs	r2, #0
 800d3ae:	2300      	movs	r3, #0
 800d3b0:	e9c4 0100 	strd	r0, r1, [r4]
 800d3b4:	e9c4 2302 	strd	r2, r3, [r4, #8]
 800d3b8:	2500      	movs	r5, #0
 800d3ba:	e024      	b.n	800d406 <__ieee754_rem_pio2+0x6e>
 800d3bc:	4abd      	ldr	r2, [pc, #756]	; (800d6b4 <__ieee754_rem_pio2+0x31c>)
 800d3be:	4592      	cmp	sl, r2
 800d3c0:	dc72      	bgt.n	800d4a8 <__ieee754_rem_pio2+0x110>
 800d3c2:	9b04      	ldr	r3, [sp, #16]
 800d3c4:	4dbc      	ldr	r5, [pc, #752]	; (800d6b8 <__ieee754_rem_pio2+0x320>)
 800d3c6:	2b00      	cmp	r3, #0
 800d3c8:	a3ab      	add	r3, pc, #684	; (adr r3, 800d678 <__ieee754_rem_pio2+0x2e0>)
 800d3ca:	e9d3 2300 	ldrd	r2, r3, [r3]
 800d3ce:	dd36      	ble.n	800d43e <__ieee754_rem_pio2+0xa6>
 800d3d0:	f7f2 ff2a 	bl	8000228 <__aeabi_dsub>
 800d3d4:	45aa      	cmp	sl, r5
 800d3d6:	4606      	mov	r6, r0
 800d3d8:	460f      	mov	r7, r1
 800d3da:	d018      	beq.n	800d40e <__ieee754_rem_pio2+0x76>
 800d3dc:	a3a8      	add	r3, pc, #672	; (adr r3, 800d680 <__ieee754_rem_pio2+0x2e8>)
 800d3de:	e9d3 2300 	ldrd	r2, r3, [r3]
 800d3e2:	f7f2 ff21 	bl	8000228 <__aeabi_dsub>
 800d3e6:	4602      	mov	r2, r0
 800d3e8:	460b      	mov	r3, r1
 800d3ea:	e9c4 2300 	strd	r2, r3, [r4]
 800d3ee:	4630      	mov	r0, r6
 800d3f0:	4639      	mov	r1, r7
 800d3f2:	f7f2 ff19 	bl	8000228 <__aeabi_dsub>
 800d3f6:	a3a2      	add	r3, pc, #648	; (adr r3, 800d680 <__ieee754_rem_pio2+0x2e8>)
 800d3f8:	e9d3 2300 	ldrd	r2, r3, [r3]
 800d3fc:	f7f2 ff14 	bl	8000228 <__aeabi_dsub>
 800d400:	e9c4 0102 	strd	r0, r1, [r4, #8]
 800d404:	2501      	movs	r5, #1
 800d406:	4628      	mov	r0, r5
 800d408:	b00d      	add	sp, #52	; 0x34
 800d40a:	e8bd 8ff0 	ldmia.w	sp!, {r4, r5, r6, r7, r8, r9, sl, fp, pc}
 800d40e:	a39e      	add	r3, pc, #632	; (adr r3, 800d688 <__ieee754_rem_pio2+0x2f0>)
 800d410:	e9d3 2300 	ldrd	r2, r3, [r3]
 800d414:	f7f2 ff08 	bl	8000228 <__aeabi_dsub>
 800d418:	a39d      	add	r3, pc, #628	; (adr r3, 800d690 <__ieee754_rem_pio2+0x2f8>)
 800d41a:	e9d3 2300 	ldrd	r2, r3, [r3]
 800d41e:	4606      	mov	r6, r0
 800d420:	460f      	mov	r7, r1
 800d422:	f7f2 ff01 	bl	8000228 <__aeabi_dsub>
 800d426:	4602      	mov	r2, r0
 800d428:	460b      	mov	r3, r1
 800d42a:	e9c4 2300 	strd	r2, r3, [r4]
 800d42e:	4630      	mov	r0, r6
 800d430:	4639      	mov	r1, r7
 800d432:	f7f2 fef9 	bl	8000228 <__aeabi_dsub>
 800d436:	a396      	add	r3, pc, #600	; (adr r3, 800d690 <__ieee754_rem_pio2+0x2f8>)
 800d438:	e9d3 2300 	ldrd	r2, r3, [r3]
 800d43c:	e7de      	b.n	800d3fc <__ieee754_rem_pio2+0x64>
 800d43e:	f7f2 fef5 	bl	800022c <__adddf3>
 800d442:	45aa      	cmp	sl, r5
 800d444:	4606      	mov	r6, r0
 800d446:	460f      	mov	r7, r1
 800d448:	d016      	beq.n	800d478 <__ieee754_rem_pio2+0xe0>
 800d44a:	a38d      	add	r3, pc, #564	; (adr r3, 800d680 <__ieee754_rem_pio2+0x2e8>)
 800d44c:	e9d3 2300 	ldrd	r2, r3, [r3]
 800d450:	f7f2 feec 	bl	800022c <__adddf3>
 800d454:	4602      	mov	r2, r0
 800d456:	460b      	mov	r3, r1
 800d458:	e9c4 2300 	strd	r2, r3, [r4]
 800d45c:	4630      	mov	r0, r6
 800d45e:	4639      	mov	r1, r7
 800d460:	f7f2 fee2 	bl	8000228 <__aeabi_dsub>
 800d464:	a386      	add	r3, pc, #536	; (adr r3, 800d680 <__ieee754_rem_pio2+0x2e8>)
 800d466:	e9d3 2300 	ldrd	r2, r3, [r3]
 800d46a:	f7f2 fedf 	bl	800022c <__adddf3>
 800d46e:	f04f 35ff 	mov.w	r5, #4294967295	; 0xffffffff
 800d472:	e9c4 0102 	strd	r0, r1, [r4, #8]
 800d476:	e7c6      	b.n	800d406 <__ieee754_rem_pio2+0x6e>
 800d478:	a383      	add	r3, pc, #524	; (adr r3, 800d688 <__ieee754_rem_pio2+0x2f0>)
 800d47a:	e9d3 2300 	ldrd	r2, r3, [r3]
 800d47e:	f7f2 fed5 	bl	800022c <__adddf3>
 800d482:	a383      	add	r3, pc, #524	; (adr r3, 800d690 <__ieee754_rem_pio2+0x2f8>)
 800d484:	e9d3 2300 	ldrd	r2, r3, [r3]
 800d488:	4606      	mov	r6, r0
 800d48a:	460f      	mov	r7, r1
 800d48c:	f7f2 fece 	bl	800022c <__adddf3>
 800d490:	4602      	mov	r2, r0
 800d492:	460b      	mov	r3, r1
 800d494:	e9c4 2300 	strd	r2, r3, [r4]
 800d498:	4630      	mov	r0, r6
 800d49a:	4639      	mov	r1, r7
 800d49c:	f7f2 fec4 	bl	8000228 <__aeabi_dsub>
 800d4a0:	a37b      	add	r3, pc, #492	; (adr r3, 800d690 <__ieee754_rem_pio2+0x2f8>)
 800d4a2:	e9d3 2300 	ldrd	r2, r3, [r3]
 800d4a6:	e7e0      	b.n	800d46a <__ieee754_rem_pio2+0xd2>
 800d4a8:	4a84      	ldr	r2, [pc, #528]	; (800d6bc <__ieee754_rem_pio2+0x324>)
 800d4aa:	4592      	cmp	sl, r2
 800d4ac:	f300 80d5 	bgt.w	800d65a <__ieee754_rem_pio2+0x2c2>
 800d4b0:	f001 f85c 	bl	800e56c <fabs>
 800d4b4:	a378      	add	r3, pc, #480	; (adr r3, 800d698 <__ieee754_rem_pio2+0x300>)
 800d4b6:	e9d3 2300 	ldrd	r2, r3, [r3]
 800d4ba:	4606      	mov	r6, r0
 800d4bc:	460f      	mov	r7, r1
 800d4be:	f7f3 f86b 	bl	8000598 <__aeabi_dmul>
 800d4c2:	4b7f      	ldr	r3, [pc, #508]	; (800d6c0 <__ieee754_rem_pio2+0x328>)
 800d4c4:	2200      	movs	r2, #0
 800d4c6:	f7f2 feb1 	bl	800022c <__adddf3>
 800d4ca:	f7f3 fb15 	bl	8000af8 <__aeabi_d2iz>
 800d4ce:	4605      	mov	r5, r0
 800d4d0:	f7f2 fff8 	bl	80004c4 <__aeabi_i2d>
 800d4d4:	4602      	mov	r2, r0
 800d4d6:	460b      	mov	r3, r1
 800d4d8:	e9cd 2302 	strd	r2, r3, [sp, #8]
 800d4dc:	a366      	add	r3, pc, #408	; (adr r3, 800d678 <__ieee754_rem_pio2+0x2e0>)
 800d4de:	e9d3 2300 	ldrd	r2, r3, [r3]
 800d4e2:	f7f3 f859 	bl	8000598 <__aeabi_dmul>
 800d4e6:	4602      	mov	r2, r0
 800d4e8:	460b      	mov	r3, r1
 800d4ea:	4630      	mov	r0, r6
 800d4ec:	4639      	mov	r1, r7
 800d4ee:	f7f2 fe9b 	bl	8000228 <__aeabi_dsub>
 800d4f2:	a363      	add	r3, pc, #396	; (adr r3, 800d680 <__ieee754_rem_pio2+0x2e8>)
 800d4f4:	e9d3 2300 	ldrd	r2, r3, [r3]
 800d4f8:	4680      	mov	r8, r0
 800d4fa:	4689      	mov	r9, r1
 800d4fc:	e9dd 0102 	ldrd	r0, r1, [sp, #8]
 800d500:	f7f3 f84a 	bl	8000598 <__aeabi_dmul>
 800d504:	2d1f      	cmp	r5, #31
 800d506:	4606      	mov	r6, r0
 800d508:	460f      	mov	r7, r1
 800d50a:	dc0e      	bgt.n	800d52a <__ieee754_rem_pio2+0x192>
 800d50c:	4b6d      	ldr	r3, [pc, #436]	; (800d6c4 <__ieee754_rem_pio2+0x32c>)
 800d50e:	1e6a      	subs	r2, r5, #1
 800d510:	f853 3022 	ldr.w	r3, [r3, r2, lsl #2]
 800d514:	4553      	cmp	r3, sl
 800d516:	d008      	beq.n	800d52a <__ieee754_rem_pio2+0x192>
 800d518:	4632      	mov	r2, r6
 800d51a:	463b      	mov	r3, r7
 800d51c:	4640      	mov	r0, r8
 800d51e:	4649      	mov	r1, r9
 800d520:	f7f2 fe82 	bl	8000228 <__aeabi_dsub>
 800d524:	e9c4 0100 	strd	r0, r1, [r4]
 800d528:	e013      	b.n	800d552 <__ieee754_rem_pio2+0x1ba>
 800d52a:	463b      	mov	r3, r7
 800d52c:	4632      	mov	r2, r6
 800d52e:	4640      	mov	r0, r8
 800d530:	4649      	mov	r1, r9
 800d532:	f7f2 fe79 	bl	8000228 <__aeabi_dsub>
 800d536:	ea4f 532a 	mov.w	r3, sl, asr #20
 800d53a:	9305      	str	r3, [sp, #20]
 800d53c:	f3c1 530a 	ubfx	r3, r1, #20, #11
 800d540:	ebc3 5a1a 	rsb	sl, r3, sl, lsr #20
 800d544:	f1ba 0f10 	cmp.w	sl, #16
 800d548:	dc1f      	bgt.n	800d58a <__ieee754_rem_pio2+0x1f2>
 800d54a:	4602      	mov	r2, r0
 800d54c:	460b      	mov	r3, r1
 800d54e:	e9c4 2300 	strd	r2, r3, [r4]
 800d552:	e9d4 2a00 	ldrd	r2, sl, [r4]
 800d556:	4640      	mov	r0, r8
 800d558:	4653      	mov	r3, sl
 800d55a:	4649      	mov	r1, r9
 800d55c:	f7f2 fe64 	bl	8000228 <__aeabi_dsub>
 800d560:	4632      	mov	r2, r6
 800d562:	463b      	mov	r3, r7
 800d564:	f7f2 fe60 	bl	8000228 <__aeabi_dsub>
 800d568:	e9c4 0102 	strd	r0, r1, [r4, #8]
 800d56c:	460b      	mov	r3, r1
 800d56e:	9904      	ldr	r1, [sp, #16]
 800d570:	2900      	cmp	r1, #0
 800d572:	4602      	mov	r2, r0
 800d574:	f6bf af47 	bge.w	800d406 <__ieee754_rem_pio2+0x6e>
 800d578:	f10a 4100 	add.w	r1, sl, #2147483648	; 0x80000000
 800d57c:	e9c4 1201 	strd	r1, r2, [r4, #4]
 800d580:	f103 4300 	add.w	r3, r3, #2147483648	; 0x80000000
 800d584:	60e3      	str	r3, [r4, #12]
 800d586:	426d      	negs	r5, r5
 800d588:	e73d      	b.n	800d406 <__ieee754_rem_pio2+0x6e>
 800d58a:	a33f      	add	r3, pc, #252	; (adr r3, 800d688 <__ieee754_rem_pio2+0x2f0>)
 800d58c:	e9d3 2300 	ldrd	r2, r3, [r3]
 800d590:	e9dd 0102 	ldrd	r0, r1, [sp, #8]
 800d594:	f7f3 f800 	bl	8000598 <__aeabi_dmul>
 800d598:	4606      	mov	r6, r0
 800d59a:	460f      	mov	r7, r1
 800d59c:	4602      	mov	r2, r0
 800d59e:	460b      	mov	r3, r1
 800d5a0:	4640      	mov	r0, r8
 800d5a2:	4649      	mov	r1, r9
 800d5a4:	f7f2 fe40 	bl	8000228 <__aeabi_dsub>
 800d5a8:	4602      	mov	r2, r0
 800d5aa:	460b      	mov	r3, r1
 800d5ac:	4682      	mov	sl, r0
 800d5ae:	468b      	mov	fp, r1
 800d5b0:	4640      	mov	r0, r8
 800d5b2:	4649      	mov	r1, r9
 800d5b4:	f7f2 fe38 	bl	8000228 <__aeabi_dsub>
 800d5b8:	4632      	mov	r2, r6
 800d5ba:	463b      	mov	r3, r7
 800d5bc:	f7f2 fe34 	bl	8000228 <__aeabi_dsub>
 800d5c0:	a333      	add	r3, pc, #204	; (adr r3, 800d690 <__ieee754_rem_pio2+0x2f8>)
 800d5c2:	e9d3 2300 	ldrd	r2, r3, [r3]
 800d5c6:	4606      	mov	r6, r0
 800d5c8:	460f      	mov	r7, r1
 800d5ca:	e9dd 0102 	ldrd	r0, r1, [sp, #8]
 800d5ce:	f7f2 ffe3 	bl	8000598 <__aeabi_dmul>
 800d5d2:	4632      	mov	r2, r6
 800d5d4:	463b      	mov	r3, r7
 800d5d6:	f7f2 fe27 	bl	8000228 <__aeabi_dsub>
 800d5da:	4602      	mov	r2, r0
 800d5dc:	460b      	mov	r3, r1
 800d5de:	4606      	mov	r6, r0
 800d5e0:	460f      	mov	r7, r1
 800d5e2:	4650      	mov	r0, sl
 800d5e4:	4659      	mov	r1, fp
 800d5e6:	f7f2 fe1f 	bl	8000228 <__aeabi_dsub>
 800d5ea:	9a05      	ldr	r2, [sp, #20]
 800d5ec:	f3c1 530a 	ubfx	r3, r1, #20, #11
 800d5f0:	1ad3      	subs	r3, r2, r3
 800d5f2:	2b31      	cmp	r3, #49	; 0x31
 800d5f4:	dc06      	bgt.n	800d604 <__ieee754_rem_pio2+0x26c>
 800d5f6:	4602      	mov	r2, r0
 800d5f8:	460b      	mov	r3, r1
 800d5fa:	e9c4 2300 	strd	r2, r3, [r4]
 800d5fe:	46d0      	mov	r8, sl
 800d600:	46d9      	mov	r9, fp
 800d602:	e7a6      	b.n	800d552 <__ieee754_rem_pio2+0x1ba>
 800d604:	a326      	add	r3, pc, #152	; (adr r3, 800d6a0 <__ieee754_rem_pio2+0x308>)
 800d606:	e9d3 2300 	ldrd	r2, r3, [r3]
 800d60a:	e9dd 0102 	ldrd	r0, r1, [sp, #8]
 800d60e:	f7f2 ffc3 	bl	8000598 <__aeabi_dmul>
 800d612:	4606      	mov	r6, r0
 800d614:	460f      	mov	r7, r1
 800d616:	4602      	mov	r2, r0
 800d618:	460b      	mov	r3, r1
 800d61a:	4650      	mov	r0, sl
 800d61c:	4659      	mov	r1, fp
 800d61e:	f7f2 fe03 	bl	8000228 <__aeabi_dsub>
 800d622:	4602      	mov	r2, r0
 800d624:	460b      	mov	r3, r1
 800d626:	4680      	mov	r8, r0
 800d628:	4689      	mov	r9, r1
 800d62a:	4650      	mov	r0, sl
 800d62c:	4659      	mov	r1, fp
 800d62e:	f7f2 fdfb 	bl	8000228 <__aeabi_dsub>
 800d632:	4632      	mov	r2, r6
 800d634:	463b      	mov	r3, r7
 800d636:	f7f2 fdf7 	bl	8000228 <__aeabi_dsub>
 800d63a:	a31b      	add	r3, pc, #108	; (adr r3, 800d6a8 <__ieee754_rem_pio2+0x310>)
 800d63c:	e9d3 2300 	ldrd	r2, r3, [r3]
 800d640:	4606      	mov	r6, r0
 800d642:	460f      	mov	r7, r1
 800d644:	e9dd 0102 	ldrd	r0, r1, [sp, #8]
 800d648:	f7f2 ffa6 	bl	8000598 <__aeabi_dmul>
 800d64c:	4632      	mov	r2, r6
 800d64e:	463b      	mov	r3, r7
 800d650:	f7f2 fdea 	bl	8000228 <__aeabi_dsub>
 800d654:	4606      	mov	r6, r0
 800d656:	460f      	mov	r7, r1
 800d658:	e75e      	b.n	800d518 <__ieee754_rem_pio2+0x180>
 800d65a:	4a1b      	ldr	r2, [pc, #108]	; (800d6c8 <__ieee754_rem_pio2+0x330>)
 800d65c:	4592      	cmp	sl, r2
 800d65e:	dd35      	ble.n	800d6cc <__ieee754_rem_pio2+0x334>
 800d660:	4602      	mov	r2, r0
 800d662:	460b      	mov	r3, r1
 800d664:	f7f2 fde0 	bl	8000228 <__aeabi_dsub>
 800d668:	e9c4 0102 	strd	r0, r1, [r4, #8]
 800d66c:	e9c4 0100 	strd	r0, r1, [r4]
 800d670:	e6a2      	b.n	800d3b8 <__ieee754_rem_pio2+0x20>
 800d672:	bf00      	nop
 800d674:	f3af 8000 	nop.w
 800d678:	54400000 	.word	0x54400000
 800d67c:	3ff921fb 	.word	0x3ff921fb
 800d680:	1a626331 	.word	0x1a626331
 800d684:	3dd0b461 	.word	0x3dd0b461
 800d688:	1a600000 	.word	0x1a600000
 800d68c:	3dd0b461 	.word	0x3dd0b461
 800d690:	2e037073 	.word	0x2e037073
 800d694:	3ba3198a 	.word	0x3ba3198a
 800d698:	6dc9c883 	.word	0x6dc9c883
 800d69c:	3fe45f30 	.word	0x3fe45f30
 800d6a0:	2e000000 	.word	0x2e000000
 800d6a4:	3ba3198a 	.word	0x3ba3198a
 800d6a8:	252049c1 	.word	0x252049c1
 800d6ac:	397b839a 	.word	0x397b839a
 800d6b0:	3fe921fb 	.word	0x3fe921fb
 800d6b4:	4002d97b 	.word	0x4002d97b
 800d6b8:	3ff921fb 	.word	0x3ff921fb
 800d6bc:	413921fb 	.word	0x413921fb
 800d6c0:	3fe00000 	.word	0x3fe00000
 800d6c4:	08011248 	.word	0x08011248
 800d6c8:	7fefffff 	.word	0x7fefffff
 800d6cc:	ea4f 552a 	mov.w	r5, sl, asr #20
 800d6d0:	f2a5 4516 	subw	r5, r5, #1046	; 0x416
 800d6d4:	ebaa 5105 	sub.w	r1, sl, r5, lsl #20
 800d6d8:	460f      	mov	r7, r1
 800d6da:	4606      	mov	r6, r0
 800d6dc:	f7f3 fa0c 	bl	8000af8 <__aeabi_d2iz>
 800d6e0:	f7f2 fef0 	bl	80004c4 <__aeabi_i2d>
 800d6e4:	4602      	mov	r2, r0
 800d6e6:	460b      	mov	r3, r1
 800d6e8:	4630      	mov	r0, r6
 800d6ea:	4639      	mov	r1, r7
 800d6ec:	e9cd 2306 	strd	r2, r3, [sp, #24]
 800d6f0:	f7f2 fd9a 	bl	8000228 <__aeabi_dsub>
 800d6f4:	4b22      	ldr	r3, [pc, #136]	; (800d780 <__ieee754_rem_pio2+0x3e8>)
 800d6f6:	2200      	movs	r2, #0
 800d6f8:	f7f2 ff4e 	bl	8000598 <__aeabi_dmul>
 800d6fc:	460f      	mov	r7, r1
 800d6fe:	4606      	mov	r6, r0
 800d700:	f7f3 f9fa 	bl	8000af8 <__aeabi_d2iz>
 800d704:	f7f2 fede 	bl	80004c4 <__aeabi_i2d>
 800d708:	4602      	mov	r2, r0
 800d70a:	460b      	mov	r3, r1
 800d70c:	4630      	mov	r0, r6
 800d70e:	4639      	mov	r1, r7
 800d710:	e9cd 2308 	strd	r2, r3, [sp, #32]
 800d714:	f7f2 fd88 	bl	8000228 <__aeabi_dsub>
 800d718:	4b19      	ldr	r3, [pc, #100]	; (800d780 <__ieee754_rem_pio2+0x3e8>)
 800d71a:	2200      	movs	r2, #0
 800d71c:	f7f2 ff3c 	bl	8000598 <__aeabi_dmul>
 800d720:	e9cd 010a 	strd	r0, r1, [sp, #40]	; 0x28
 800d724:	f10d 0928 	add.w	r9, sp, #40	; 0x28
 800d728:	f04f 0803 	mov.w	r8, #3
 800d72c:	2600      	movs	r6, #0
 800d72e:	2700      	movs	r7, #0
 800d730:	e879 0102 	ldrd	r0, r1, [r9], #-8
 800d734:	4632      	mov	r2, r6
 800d736:	463b      	mov	r3, r7
 800d738:	46c2      	mov	sl, r8
 800d73a:	f108 38ff 	add.w	r8, r8, #4294967295	; 0xffffffff
 800d73e:	f7f3 f993 	bl	8000a68 <__aeabi_dcmpeq>
 800d742:	2800      	cmp	r0, #0
 800d744:	d1f4      	bne.n	800d730 <__ieee754_rem_pio2+0x398>
 800d746:	4b0f      	ldr	r3, [pc, #60]	; (800d784 <__ieee754_rem_pio2+0x3ec>)
 800d748:	9301      	str	r3, [sp, #4]
 800d74a:	2302      	movs	r3, #2
 800d74c:	9300      	str	r3, [sp, #0]
 800d74e:	462a      	mov	r2, r5
 800d750:	4653      	mov	r3, sl
 800d752:	4621      	mov	r1, r4
 800d754:	a806      	add	r0, sp, #24
 800d756:	f000 f985 	bl	800da64 <__kernel_rem_pio2>
 800d75a:	9b04      	ldr	r3, [sp, #16]
 800d75c:	2b00      	cmp	r3, #0
 800d75e:	4605      	mov	r5, r0
 800d760:	f6bf ae51 	bge.w	800d406 <__ieee754_rem_pio2+0x6e>
 800d764:	e9d4 2100 	ldrd	r2, r1, [r4]
 800d768:	f101 4300 	add.w	r3, r1, #2147483648	; 0x80000000
 800d76c:	e9c4 2300 	strd	r2, r3, [r4]
 800d770:	e9d4 2102 	ldrd	r2, r1, [r4, #8]
 800d774:	f101 4300 	add.w	r3, r1, #2147483648	; 0x80000000
 800d778:	e9c4 2302 	strd	r2, r3, [r4, #8]
 800d77c:	e703      	b.n	800d586 <__ieee754_rem_pio2+0x1ee>
 800d77e:	bf00      	nop
 800d780:	41700000 	.word	0x41700000
 800d784:	080112c8 	.word	0x080112c8

0800d788 <__ieee754_sqrt>:
 800d788:	f8df c154 	ldr.w	ip, [pc, #340]	; 800d8e0 <__ieee754_sqrt+0x158>
 800d78c:	ea3c 0c01 	bics.w	ip, ip, r1
 800d790:	e92d 41f0 	stmdb	sp!, {r4, r5, r6, r7, r8, lr}
 800d794:	460a      	mov	r2, r1
 800d796:	4606      	mov	r6, r0
 800d798:	460d      	mov	r5, r1
 800d79a:	460c      	mov	r4, r1
 800d79c:	4607      	mov	r7, r0
 800d79e:	4603      	mov	r3, r0
 800d7a0:	d10f      	bne.n	800d7c2 <__ieee754_sqrt+0x3a>
 800d7a2:	4602      	mov	r2, r0
 800d7a4:	460b      	mov	r3, r1
 800d7a6:	f7f2 fef7 	bl	8000598 <__aeabi_dmul>
 800d7aa:	4602      	mov	r2, r0
 800d7ac:	460b      	mov	r3, r1
 800d7ae:	4630      	mov	r0, r6
 800d7b0:	4629      	mov	r1, r5
 800d7b2:	f7f2 fd3b 	bl	800022c <__adddf3>
 800d7b6:	4606      	mov	r6, r0
 800d7b8:	460d      	mov	r5, r1
 800d7ba:	4630      	mov	r0, r6
 800d7bc:	4629      	mov	r1, r5
 800d7be:	e8bd 81f0 	ldmia.w	sp!, {r4, r5, r6, r7, r8, pc}
 800d7c2:	2900      	cmp	r1, #0
 800d7c4:	dc0e      	bgt.n	800d7e4 <__ieee754_sqrt+0x5c>
 800d7c6:	f021 4c00 	bic.w	ip, r1, #2147483648	; 0x80000000
 800d7ca:	ea5c 0707 	orrs.w	r7, ip, r7
 800d7ce:	d0f4      	beq.n	800d7ba <__ieee754_sqrt+0x32>
 800d7d0:	b141      	cbz	r1, 800d7e4 <__ieee754_sqrt+0x5c>
 800d7d2:	4602      	mov	r2, r0
 800d7d4:	460b      	mov	r3, r1
 800d7d6:	f7f2 fd27 	bl	8000228 <__aeabi_dsub>
 800d7da:	4602      	mov	r2, r0
 800d7dc:	460b      	mov	r3, r1
 800d7de:	f7f3 f805 	bl	80007ec <__aeabi_ddiv>
 800d7e2:	e7e8      	b.n	800d7b6 <__ieee754_sqrt+0x2e>
 800d7e4:	1521      	asrs	r1, r4, #20
 800d7e6:	d074      	beq.n	800d8d2 <__ieee754_sqrt+0x14a>
 800d7e8:	07cc      	lsls	r4, r1, #31
 800d7ea:	f3c2 0213 	ubfx	r2, r2, #0, #20
 800d7ee:	f2a1 37ff 	subw	r7, r1, #1023	; 0x3ff
 800d7f2:	f442 1280 	orr.w	r2, r2, #1048576	; 0x100000
 800d7f6:	bf5e      	ittt	pl
 800d7f8:	0fd9      	lsrpl	r1, r3, #31
 800d7fa:	005b      	lslpl	r3, r3, #1
 800d7fc:	eb01 0242 	addpl.w	r2, r1, r2, lsl #1
 800d800:	2400      	movs	r4, #0
 800d802:	0fd9      	lsrs	r1, r3, #31
 800d804:	eb01 0242 	add.w	r2, r1, r2, lsl #1
 800d808:	107f      	asrs	r7, r7, #1
 800d80a:	005b      	lsls	r3, r3, #1
 800d80c:	2516      	movs	r5, #22
 800d80e:	4620      	mov	r0, r4
 800d810:	f44f 1100 	mov.w	r1, #2097152	; 0x200000
 800d814:	1846      	adds	r6, r0, r1
 800d816:	4296      	cmp	r6, r2
 800d818:	bfde      	ittt	le
 800d81a:	1b92      	suble	r2, r2, r6
 800d81c:	1870      	addle	r0, r6, r1
 800d81e:	1864      	addle	r4, r4, r1
 800d820:	0052      	lsls	r2, r2, #1
 800d822:	3d01      	subs	r5, #1
 800d824:	eb02 72d3 	add.w	r2, r2, r3, lsr #31
 800d828:	ea4f 0151 	mov.w	r1, r1, lsr #1
 800d82c:	ea4f 0343 	mov.w	r3, r3, lsl #1
 800d830:	d1f0      	bne.n	800d814 <__ieee754_sqrt+0x8c>
 800d832:	4629      	mov	r1, r5
 800d834:	f04f 0e20 	mov.w	lr, #32
 800d838:	f04f 4600 	mov.w	r6, #2147483648	; 0x80000000
 800d83c:	4282      	cmp	r2, r0
 800d83e:	eb06 0c05 	add.w	ip, r6, r5
 800d842:	dc02      	bgt.n	800d84a <__ieee754_sqrt+0xc2>
 800d844:	d113      	bne.n	800d86e <__ieee754_sqrt+0xe6>
 800d846:	459c      	cmp	ip, r3
 800d848:	d811      	bhi.n	800d86e <__ieee754_sqrt+0xe6>
 800d84a:	f1bc 0f00 	cmp.w	ip, #0
 800d84e:	eb0c 0506 	add.w	r5, ip, r6
 800d852:	da43      	bge.n	800d8dc <__ieee754_sqrt+0x154>
 800d854:	2d00      	cmp	r5, #0
 800d856:	db41      	blt.n	800d8dc <__ieee754_sqrt+0x154>
 800d858:	f100 0801 	add.w	r8, r0, #1
 800d85c:	1a12      	subs	r2, r2, r0
 800d85e:	459c      	cmp	ip, r3
 800d860:	bf88      	it	hi
 800d862:	f102 32ff 	addhi.w	r2, r2, #4294967295	; 0xffffffff
 800d866:	eba3 030c 	sub.w	r3, r3, ip
 800d86a:	4431      	add	r1, r6
 800d86c:	4640      	mov	r0, r8
 800d86e:	ea4f 7cd3 	mov.w	ip, r3, lsr #31
 800d872:	f1be 0e01 	subs.w	lr, lr, #1
 800d876:	eb0c 0242 	add.w	r2, ip, r2, lsl #1
 800d87a:	ea4f 0343 	mov.w	r3, r3, lsl #1
 800d87e:	ea4f 0656 	mov.w	r6, r6, lsr #1
 800d882:	d1db      	bne.n	800d83c <__ieee754_sqrt+0xb4>
 800d884:	4313      	orrs	r3, r2
 800d886:	d006      	beq.n	800d896 <__ieee754_sqrt+0x10e>
 800d888:	1c48      	adds	r0, r1, #1
 800d88a:	bf13      	iteet	ne
 800d88c:	3101      	addne	r1, #1
 800d88e:	3401      	addeq	r4, #1
 800d890:	4671      	moveq	r1, lr
 800d892:	f021 0101 	bicne.w	r1, r1, #1
 800d896:	1063      	asrs	r3, r4, #1
 800d898:	0849      	lsrs	r1, r1, #1
 800d89a:	f103 537f 	add.w	r3, r3, #1069547520	; 0x3fc00000
 800d89e:	07e2      	lsls	r2, r4, #31
 800d8a0:	f503 1300 	add.w	r3, r3, #2097152	; 0x200000
 800d8a4:	bf48      	it	mi
 800d8a6:	f041 4100 	orrmi.w	r1, r1, #2147483648	; 0x80000000
 800d8aa:	eb03 5507 	add.w	r5, r3, r7, lsl #20
 800d8ae:	460e      	mov	r6, r1
 800d8b0:	e783      	b.n	800d7ba <__ieee754_sqrt+0x32>
 800d8b2:	0ada      	lsrs	r2, r3, #11
 800d8b4:	3815      	subs	r0, #21
 800d8b6:	055b      	lsls	r3, r3, #21
 800d8b8:	2a00      	cmp	r2, #0
 800d8ba:	d0fa      	beq.n	800d8b2 <__ieee754_sqrt+0x12a>
 800d8bc:	02d5      	lsls	r5, r2, #11
 800d8be:	d50a      	bpl.n	800d8d6 <__ieee754_sqrt+0x14e>
 800d8c0:	f1c1 0420 	rsb	r4, r1, #32
 800d8c4:	fa23 f404 	lsr.w	r4, r3, r4
 800d8c8:	1e4d      	subs	r5, r1, #1
 800d8ca:	408b      	lsls	r3, r1
 800d8cc:	4322      	orrs	r2, r4
 800d8ce:	1b41      	subs	r1, r0, r5
 800d8d0:	e78a      	b.n	800d7e8 <__ieee754_sqrt+0x60>
 800d8d2:	4608      	mov	r0, r1
 800d8d4:	e7f0      	b.n	800d8b8 <__ieee754_sqrt+0x130>
 800d8d6:	0052      	lsls	r2, r2, #1
 800d8d8:	3101      	adds	r1, #1
 800d8da:	e7ef      	b.n	800d8bc <__ieee754_sqrt+0x134>
 800d8dc:	4680      	mov	r8, r0
 800d8de:	e7bd      	b.n	800d85c <__ieee754_sqrt+0xd4>
 800d8e0:	7ff00000 	.word	0x7ff00000
 800d8e4:	00000000 	.word	0x00000000

0800d8e8 <__kernel_cos>:
 800d8e8:	e92d 4ff7 	stmdb	sp!, {r0, r1, r2, r4, r5, r6, r7, r8, r9, sl, fp, lr}
 800d8ec:	f021 4600 	bic.w	r6, r1, #2147483648	; 0x80000000
 800d8f0:	f1b6 5f79 	cmp.w	r6, #1044381696	; 0x3e400000
 800d8f4:	e9cd 2300 	strd	r2, r3, [sp]
 800d8f8:	4680      	mov	r8, r0
 800d8fa:	460f      	mov	r7, r1
 800d8fc:	da04      	bge.n	800d908 <__kernel_cos+0x20>
 800d8fe:	f7f3 f8fb 	bl	8000af8 <__aeabi_d2iz>
 800d902:	2800      	cmp	r0, #0
 800d904:	f000 8086 	beq.w	800da14 <__kernel_cos+0x12c>
 800d908:	4642      	mov	r2, r8
 800d90a:	463b      	mov	r3, r7
 800d90c:	4640      	mov	r0, r8
 800d90e:	4639      	mov	r1, r7
 800d910:	f7f2 fe42 	bl	8000598 <__aeabi_dmul>
 800d914:	4b4e      	ldr	r3, [pc, #312]	; (800da50 <__kernel_cos+0x168>)
 800d916:	2200      	movs	r2, #0
 800d918:	4604      	mov	r4, r0
 800d91a:	460d      	mov	r5, r1
 800d91c:	f7f2 fe3c 	bl	8000598 <__aeabi_dmul>
 800d920:	a33f      	add	r3, pc, #252	; (adr r3, 800da20 <__kernel_cos+0x138>)
 800d922:	e9d3 2300 	ldrd	r2, r3, [r3]
 800d926:	4682      	mov	sl, r0
 800d928:	468b      	mov	fp, r1
 800d92a:	4620      	mov	r0, r4
 800d92c:	4629      	mov	r1, r5
 800d92e:	f7f2 fe33 	bl	8000598 <__aeabi_dmul>
 800d932:	a33d      	add	r3, pc, #244	; (adr r3, 800da28 <__kernel_cos+0x140>)
 800d934:	e9d3 2300 	ldrd	r2, r3, [r3]
 800d938:	f7f2 fc78 	bl	800022c <__adddf3>
 800d93c:	4622      	mov	r2, r4
 800d93e:	462b      	mov	r3, r5
 800d940:	f7f2 fe2a 	bl	8000598 <__aeabi_dmul>
 800d944:	a33a      	add	r3, pc, #232	; (adr r3, 800da30 <__kernel_cos+0x148>)
 800d946:	e9d3 2300 	ldrd	r2, r3, [r3]
 800d94a:	f7f2 fc6d 	bl	8000228 <__aeabi_dsub>
 800d94e:	4622      	mov	r2, r4
 800d950:	462b      	mov	r3, r5
 800d952:	f7f2 fe21 	bl	8000598 <__aeabi_dmul>
 800d956:	a338      	add	r3, pc, #224	; (adr r3, 800da38 <__kernel_cos+0x150>)
 800d958:	e9d3 2300 	ldrd	r2, r3, [r3]
 800d95c:	f7f2 fc66 	bl	800022c <__adddf3>
 800d960:	4622      	mov	r2, r4
 800d962:	462b      	mov	r3, r5
 800d964:	f7f2 fe18 	bl	8000598 <__aeabi_dmul>
 800d968:	a335      	add	r3, pc, #212	; (adr r3, 800da40 <__kernel_cos+0x158>)
 800d96a:	e9d3 2300 	ldrd	r2, r3, [r3]
 800d96e:	f7f2 fc5b 	bl	8000228 <__aeabi_dsub>
 800d972:	4622      	mov	r2, r4
 800d974:	462b      	mov	r3, r5
 800d976:	f7f2 fe0f 	bl	8000598 <__aeabi_dmul>
 800d97a:	a333      	add	r3, pc, #204	; (adr r3, 800da48 <__kernel_cos+0x160>)
 800d97c:	e9d3 2300 	ldrd	r2, r3, [r3]
 800d980:	f7f2 fc54 	bl	800022c <__adddf3>
 800d984:	4622      	mov	r2, r4
 800d986:	462b      	mov	r3, r5
 800d988:	f7f2 fe06 	bl	8000598 <__aeabi_dmul>
 800d98c:	4622      	mov	r2, r4
 800d98e:	462b      	mov	r3, r5
 800d990:	f7f2 fe02 	bl	8000598 <__aeabi_dmul>
 800d994:	e9dd 2300 	ldrd	r2, r3, [sp]
 800d998:	4604      	mov	r4, r0
 800d99a:	460d      	mov	r5, r1
 800d99c:	4640      	mov	r0, r8
 800d99e:	4639      	mov	r1, r7
 800d9a0:	f7f2 fdfa 	bl	8000598 <__aeabi_dmul>
 800d9a4:	460b      	mov	r3, r1
 800d9a6:	4602      	mov	r2, r0
 800d9a8:	4629      	mov	r1, r5
 800d9aa:	4620      	mov	r0, r4
 800d9ac:	f7f2 fc3c 	bl	8000228 <__aeabi_dsub>
 800d9b0:	4b28      	ldr	r3, [pc, #160]	; (800da54 <__kernel_cos+0x16c>)
 800d9b2:	429e      	cmp	r6, r3
 800d9b4:	4680      	mov	r8, r0
 800d9b6:	4689      	mov	r9, r1
 800d9b8:	dc0e      	bgt.n	800d9d8 <__kernel_cos+0xf0>
 800d9ba:	4602      	mov	r2, r0
 800d9bc:	460b      	mov	r3, r1
 800d9be:	4650      	mov	r0, sl
 800d9c0:	4659      	mov	r1, fp
 800d9c2:	f7f2 fc31 	bl	8000228 <__aeabi_dsub>
 800d9c6:	460b      	mov	r3, r1
 800d9c8:	4923      	ldr	r1, [pc, #140]	; (800da58 <__kernel_cos+0x170>)
 800d9ca:	4602      	mov	r2, r0
 800d9cc:	2000      	movs	r0, #0
 800d9ce:	f7f2 fc2b 	bl	8000228 <__aeabi_dsub>
 800d9d2:	b003      	add	sp, #12
 800d9d4:	e8bd 8ff0 	ldmia.w	sp!, {r4, r5, r6, r7, r8, r9, sl, fp, pc}
 800d9d8:	4b20      	ldr	r3, [pc, #128]	; (800da5c <__kernel_cos+0x174>)
 800d9da:	491f      	ldr	r1, [pc, #124]	; (800da58 <__kernel_cos+0x170>)
 800d9dc:	429e      	cmp	r6, r3
 800d9de:	bfcc      	ite	gt
 800d9e0:	4d1f      	ldrgt	r5, [pc, #124]	; (800da60 <__kernel_cos+0x178>)
 800d9e2:	f5a6 1500 	suble.w	r5, r6, #2097152	; 0x200000
 800d9e6:	2400      	movs	r4, #0
 800d9e8:	4622      	mov	r2, r4
 800d9ea:	462b      	mov	r3, r5
 800d9ec:	2000      	movs	r0, #0
 800d9ee:	f7f2 fc1b 	bl	8000228 <__aeabi_dsub>
 800d9f2:	4622      	mov	r2, r4
 800d9f4:	4606      	mov	r6, r0
 800d9f6:	460f      	mov	r7, r1
 800d9f8:	462b      	mov	r3, r5
 800d9fa:	4650      	mov	r0, sl
 800d9fc:	4659      	mov	r1, fp
 800d9fe:	f7f2 fc13 	bl	8000228 <__aeabi_dsub>
 800da02:	4642      	mov	r2, r8
 800da04:	464b      	mov	r3, r9
 800da06:	f7f2 fc0f 	bl	8000228 <__aeabi_dsub>
 800da0a:	4602      	mov	r2, r0
 800da0c:	460b      	mov	r3, r1
 800da0e:	4630      	mov	r0, r6
 800da10:	4639      	mov	r1, r7
 800da12:	e7dc      	b.n	800d9ce <__kernel_cos+0xe6>
 800da14:	4910      	ldr	r1, [pc, #64]	; (800da58 <__kernel_cos+0x170>)
 800da16:	2000      	movs	r0, #0
 800da18:	e7db      	b.n	800d9d2 <__kernel_cos+0xea>
 800da1a:	bf00      	nop
 800da1c:	f3af 8000 	nop.w
 800da20:	be8838d4 	.word	0xbe8838d4
 800da24:	bda8fae9 	.word	0xbda8fae9
 800da28:	bdb4b1c4 	.word	0xbdb4b1c4
 800da2c:	3e21ee9e 	.word	0x3e21ee9e
 800da30:	809c52ad 	.word	0x809c52ad
 800da34:	3e927e4f 	.word	0x3e927e4f
 800da38:	19cb1590 	.word	0x19cb1590
 800da3c:	3efa01a0 	.word	0x3efa01a0
 800da40:	16c15177 	.word	0x16c15177
 800da44:	3f56c16c 	.word	0x3f56c16c
 800da48:	5555554c 	.word	0x5555554c
 800da4c:	3fa55555 	.word	0x3fa55555
 800da50:	3fe00000 	.word	0x3fe00000
 800da54:	3fd33332 	.word	0x3fd33332
 800da58:	3ff00000 	.word	0x3ff00000
 800da5c:	3fe90000 	.word	0x3fe90000
 800da60:	3fd20000 	.word	0x3fd20000

0800da64 <__kernel_rem_pio2>:
 800da64:	e92d 4ff0 	stmdb	sp!, {r4, r5, r6, r7, r8, r9, sl, fp, lr}
 800da68:	f5ad 7d19 	sub.w	sp, sp, #612	; 0x264
 800da6c:	f112 0f14 	cmn.w	r2, #20
 800da70:	9308      	str	r3, [sp, #32]
 800da72:	9106      	str	r1, [sp, #24]
 800da74:	4bb5      	ldr	r3, [pc, #724]	; (800dd4c <__kernel_rem_pio2+0x2e8>)
 800da76:	99a2      	ldr	r1, [sp, #648]	; 0x288
 800da78:	9009      	str	r0, [sp, #36]	; 0x24
 800da7a:	f853 3021 	ldr.w	r3, [r3, r1, lsl #2]
 800da7e:	9302      	str	r3, [sp, #8]
 800da80:	9b08      	ldr	r3, [sp, #32]
 800da82:	f103 33ff 	add.w	r3, r3, #4294967295	; 0xffffffff
 800da86:	bfa8      	it	ge
 800da88:	1ed4      	subge	r4, r2, #3
 800da8a:	9307      	str	r3, [sp, #28]
 800da8c:	bfb2      	itee	lt
 800da8e:	2400      	movlt	r4, #0
 800da90:	2318      	movge	r3, #24
 800da92:	fb94 f4f3 	sdivge	r4, r4, r3
 800da96:	f06f 0317 	mvn.w	r3, #23
 800da9a:	fb04 3303 	mla	r3, r4, r3, r3
 800da9e:	eb03 0b02 	add.w	fp, r3, r2
 800daa2:	9a07      	ldr	r2, [sp, #28]
 800daa4:	9b02      	ldr	r3, [sp, #8]
 800daa6:	eb03 0802 	add.w	r8, r3, r2
 800daaa:	9ba3      	ldr	r3, [sp, #652]	; 0x28c
 800daac:	1aa7      	subs	r7, r4, r2
 800daae:	eb03 0987 	add.w	r9, r3, r7, lsl #2
 800dab2:	ae20      	add	r6, sp, #128	; 0x80
 800dab4:	2500      	movs	r5, #0
 800dab6:	2200      	movs	r2, #0
 800dab8:	2300      	movs	r3, #0
 800daba:	4545      	cmp	r5, r8
 800dabc:	dd14      	ble.n	800dae8 <__kernel_rem_pio2+0x84>
 800dabe:	9a08      	ldr	r2, [sp, #32]
 800dac0:	ab20      	add	r3, sp, #128	; 0x80
 800dac2:	eb03 05c2 	add.w	r5, r3, r2, lsl #3
 800dac6:	f50d 7ae0 	add.w	sl, sp, #448	; 0x1c0
 800daca:	f04f 0800 	mov.w	r8, #0
 800dace:	9b02      	ldr	r3, [sp, #8]
 800dad0:	4598      	cmp	r8, r3
 800dad2:	dc36      	bgt.n	800db42 <__kernel_rem_pio2+0xde>
 800dad4:	9b09      	ldr	r3, [sp, #36]	; 0x24
 800dad6:	2200      	movs	r2, #0
 800dad8:	f1a3 0908 	sub.w	r9, r3, #8
 800dadc:	2300      	movs	r3, #0
 800dade:	e9cd 2300 	strd	r2, r3, [sp]
 800dae2:	462f      	mov	r7, r5
 800dae4:	2600      	movs	r6, #0
 800dae6:	e01f      	b.n	800db28 <__kernel_rem_pio2+0xc4>
 800dae8:	42ef      	cmn	r7, r5
 800daea:	d40b      	bmi.n	800db04 <__kernel_rem_pio2+0xa0>
 800daec:	f859 0025 	ldr.w	r0, [r9, r5, lsl #2]
 800daf0:	e9cd 2300 	strd	r2, r3, [sp]
 800daf4:	f7f2 fce6 	bl	80004c4 <__aeabi_i2d>
 800daf8:	e9dd 2300 	ldrd	r2, r3, [sp]
 800dafc:	e8e6 0102 	strd	r0, r1, [r6], #8
 800db00:	3501      	adds	r5, #1
 800db02:	e7da      	b.n	800daba <__kernel_rem_pio2+0x56>
 800db04:	4610      	mov	r0, r2
 800db06:	4619      	mov	r1, r3
 800db08:	e7f8      	b.n	800dafc <__kernel_rem_pio2+0x98>
 800db0a:	e9d7 2300 	ldrd	r2, r3, [r7]
 800db0e:	e9f9 0102 	ldrd	r0, r1, [r9, #8]!
 800db12:	f7f2 fd41 	bl	8000598 <__aeabi_dmul>
 800db16:	4602      	mov	r2, r0
 800db18:	460b      	mov	r3, r1
 800db1a:	e9dd 0100 	ldrd	r0, r1, [sp]
 800db1e:	f7f2 fb85 	bl	800022c <__adddf3>
 800db22:	e9cd 0100 	strd	r0, r1, [sp]
 800db26:	3601      	adds	r6, #1
 800db28:	9b07      	ldr	r3, [sp, #28]
 800db2a:	429e      	cmp	r6, r3
 800db2c:	f1a7 0708 	sub.w	r7, r7, #8
 800db30:	ddeb      	ble.n	800db0a <__kernel_rem_pio2+0xa6>
 800db32:	e9dd 2300 	ldrd	r2, r3, [sp]
 800db36:	f108 0801 	add.w	r8, r8, #1
 800db3a:	e8ea 2302 	strd	r2, r3, [sl], #8
 800db3e:	3508      	adds	r5, #8
 800db40:	e7c5      	b.n	800dace <__kernel_rem_pio2+0x6a>
 800db42:	9b02      	ldr	r3, [sp, #8]
 800db44:	9e02      	ldr	r6, [sp, #8]
 800db46:	aa0c      	add	r2, sp, #48	; 0x30
 800db48:	eb02 0383 	add.w	r3, r2, r3, lsl #2
 800db4c:	930b      	str	r3, [sp, #44]	; 0x2c
 800db4e:	9ba3      	ldr	r3, [sp, #652]	; 0x28c
 800db50:	eb03 0384 	add.w	r3, r3, r4, lsl #2
 800db54:	930a      	str	r3, [sp, #40]	; 0x28
 800db56:	ab98      	add	r3, sp, #608	; 0x260
 800db58:	eb03 03c6 	add.w	r3, r3, r6, lsl #3
 800db5c:	e953 4528 	ldrd	r4, r5, [r3, #-160]	; 0xa0
 800db60:	ab70      	add	r3, sp, #448	; 0x1c0
 800db62:	af0c      	add	r7, sp, #48	; 0x30
 800db64:	eb03 0ac6 	add.w	sl, r3, r6, lsl #3
 800db68:	46d0      	mov	r8, sl
 800db6a:	9700      	str	r7, [sp, #0]
 800db6c:	46b1      	mov	r9, r6
 800db6e:	f1b9 0f00 	cmp.w	r9, #0
 800db72:	f1a8 0808 	sub.w	r8, r8, #8
 800db76:	dc71      	bgt.n	800dc5c <__kernel_rem_pio2+0x1f8>
 800db78:	465a      	mov	r2, fp
 800db7a:	4620      	mov	r0, r4
 800db7c:	4629      	mov	r1, r5
 800db7e:	f000 fd7b 	bl	800e678 <scalbn>
 800db82:	2200      	movs	r2, #0
 800db84:	f04f 537f 	mov.w	r3, #1069547520	; 0x3fc00000
 800db88:	4604      	mov	r4, r0
 800db8a:	460d      	mov	r5, r1
 800db8c:	f7f2 fd04 	bl	8000598 <__aeabi_dmul>
 800db90:	f000 fcf2 	bl	800e578 <floor>
 800db94:	4b6e      	ldr	r3, [pc, #440]	; (800dd50 <__kernel_rem_pio2+0x2ec>)
 800db96:	2200      	movs	r2, #0
 800db98:	f7f2 fcfe 	bl	8000598 <__aeabi_dmul>
 800db9c:	4602      	mov	r2, r0
 800db9e:	460b      	mov	r3, r1
 800dba0:	4620      	mov	r0, r4
 800dba2:	4629      	mov	r1, r5
 800dba4:	f7f2 fb40 	bl	8000228 <__aeabi_dsub>
 800dba8:	460d      	mov	r5, r1
 800dbaa:	4604      	mov	r4, r0
 800dbac:	f7f2 ffa4 	bl	8000af8 <__aeabi_d2iz>
 800dbb0:	9004      	str	r0, [sp, #16]
 800dbb2:	f7f2 fc87 	bl	80004c4 <__aeabi_i2d>
 800dbb6:	4602      	mov	r2, r0
 800dbb8:	460b      	mov	r3, r1
 800dbba:	4620      	mov	r0, r4
 800dbbc:	4629      	mov	r1, r5
 800dbbe:	f7f2 fb33 	bl	8000228 <__aeabi_dsub>
 800dbc2:	f1bb 0f00 	cmp.w	fp, #0
 800dbc6:	4680      	mov	r8, r0
 800dbc8:	4689      	mov	r9, r1
 800dbca:	dd70      	ble.n	800dcae <__kernel_rem_pio2+0x24a>
 800dbcc:	1e72      	subs	r2, r6, #1
 800dbce:	ab0c      	add	r3, sp, #48	; 0x30
 800dbd0:	9c04      	ldr	r4, [sp, #16]
 800dbd2:	f853 0022 	ldr.w	r0, [r3, r2, lsl #2]
 800dbd6:	f1cb 0118 	rsb	r1, fp, #24
 800dbda:	fa40 f301 	asr.w	r3, r0, r1
 800dbde:	441c      	add	r4, r3
 800dbe0:	408b      	lsls	r3, r1
 800dbe2:	1ac0      	subs	r0, r0, r3
 800dbe4:	ab0c      	add	r3, sp, #48	; 0x30
 800dbe6:	9404      	str	r4, [sp, #16]
 800dbe8:	f843 0022 	str.w	r0, [r3, r2, lsl #2]
 800dbec:	f1cb 0317 	rsb	r3, fp, #23
 800dbf0:	fa40 f303 	asr.w	r3, r0, r3
 800dbf4:	9300      	str	r3, [sp, #0]
 800dbf6:	9b00      	ldr	r3, [sp, #0]
 800dbf8:	2b00      	cmp	r3, #0
 800dbfa:	dd66      	ble.n	800dcca <__kernel_rem_pio2+0x266>
 800dbfc:	9b04      	ldr	r3, [sp, #16]
 800dbfe:	2200      	movs	r2, #0
 800dc00:	3301      	adds	r3, #1
 800dc02:	9304      	str	r3, [sp, #16]
 800dc04:	4614      	mov	r4, r2
 800dc06:	f06f 417f 	mvn.w	r1, #4278190080	; 0xff000000
 800dc0a:	4296      	cmp	r6, r2
 800dc0c:	f300 80ac 	bgt.w	800dd68 <__kernel_rem_pio2+0x304>
 800dc10:	f1bb 0f00 	cmp.w	fp, #0
 800dc14:	dd07      	ble.n	800dc26 <__kernel_rem_pio2+0x1c2>
 800dc16:	f1bb 0f01 	cmp.w	fp, #1
 800dc1a:	f000 80b4 	beq.w	800dd86 <__kernel_rem_pio2+0x322>
 800dc1e:	f1bb 0f02 	cmp.w	fp, #2
 800dc22:	f000 80ba 	beq.w	800dd9a <__kernel_rem_pio2+0x336>
 800dc26:	9b00      	ldr	r3, [sp, #0]
 800dc28:	2b02      	cmp	r3, #2
 800dc2a:	d14e      	bne.n	800dcca <__kernel_rem_pio2+0x266>
 800dc2c:	4642      	mov	r2, r8
 800dc2e:	464b      	mov	r3, r9
 800dc30:	4948      	ldr	r1, [pc, #288]	; (800dd54 <__kernel_rem_pio2+0x2f0>)
 800dc32:	2000      	movs	r0, #0
 800dc34:	f7f2 faf8 	bl	8000228 <__aeabi_dsub>
 800dc38:	4680      	mov	r8, r0
 800dc3a:	4689      	mov	r9, r1
 800dc3c:	2c00      	cmp	r4, #0
 800dc3e:	d044      	beq.n	800dcca <__kernel_rem_pio2+0x266>
 800dc40:	465a      	mov	r2, fp
 800dc42:	4944      	ldr	r1, [pc, #272]	; (800dd54 <__kernel_rem_pio2+0x2f0>)
 800dc44:	2000      	movs	r0, #0
 800dc46:	f000 fd17 	bl	800e678 <scalbn>
 800dc4a:	4602      	mov	r2, r0
 800dc4c:	460b      	mov	r3, r1
 800dc4e:	4640      	mov	r0, r8
 800dc50:	4649      	mov	r1, r9
 800dc52:	f7f2 fae9 	bl	8000228 <__aeabi_dsub>
 800dc56:	4680      	mov	r8, r0
 800dc58:	4689      	mov	r9, r1
 800dc5a:	e036      	b.n	800dcca <__kernel_rem_pio2+0x266>
 800dc5c:	4b3e      	ldr	r3, [pc, #248]	; (800dd58 <__kernel_rem_pio2+0x2f4>)
 800dc5e:	2200      	movs	r2, #0
 800dc60:	4620      	mov	r0, r4
 800dc62:	4629      	mov	r1, r5
 800dc64:	f7f2 fc98 	bl	8000598 <__aeabi_dmul>
 800dc68:	f7f2 ff46 	bl	8000af8 <__aeabi_d2iz>
 800dc6c:	f7f2 fc2a 	bl	80004c4 <__aeabi_i2d>
 800dc70:	4602      	mov	r2, r0
 800dc72:	460b      	mov	r3, r1
 800dc74:	e9cd 2304 	strd	r2, r3, [sp, #16]
 800dc78:	4b38      	ldr	r3, [pc, #224]	; (800dd5c <__kernel_rem_pio2+0x2f8>)
 800dc7a:	2200      	movs	r2, #0
 800dc7c:	f7f2 fc8c 	bl	8000598 <__aeabi_dmul>
 800dc80:	4602      	mov	r2, r0
 800dc82:	460b      	mov	r3, r1
 800dc84:	4620      	mov	r0, r4
 800dc86:	4629      	mov	r1, r5
 800dc88:	f7f2 face 	bl	8000228 <__aeabi_dsub>
 800dc8c:	f7f2 ff34 	bl	8000af8 <__aeabi_d2iz>
 800dc90:	9b00      	ldr	r3, [sp, #0]
 800dc92:	f843 0b04 	str.w	r0, [r3], #4
 800dc96:	e9dd 0104 	ldrd	r0, r1, [sp, #16]
 800dc9a:	9300      	str	r3, [sp, #0]
 800dc9c:	e9d8 2300 	ldrd	r2, r3, [r8]
 800dca0:	f7f2 fac4 	bl	800022c <__adddf3>
 800dca4:	f109 39ff 	add.w	r9, r9, #4294967295	; 0xffffffff
 800dca8:	4604      	mov	r4, r0
 800dcaa:	460d      	mov	r5, r1
 800dcac:	e75f      	b.n	800db6e <__kernel_rem_pio2+0x10a>
 800dcae:	d105      	bne.n	800dcbc <__kernel_rem_pio2+0x258>
 800dcb0:	1e73      	subs	r3, r6, #1
 800dcb2:	aa0c      	add	r2, sp, #48	; 0x30
 800dcb4:	f852 0023 	ldr.w	r0, [r2, r3, lsl #2]
 800dcb8:	15c3      	asrs	r3, r0, #23
 800dcba:	e79b      	b.n	800dbf4 <__kernel_rem_pio2+0x190>
 800dcbc:	4b28      	ldr	r3, [pc, #160]	; (800dd60 <__kernel_rem_pio2+0x2fc>)
 800dcbe:	2200      	movs	r2, #0
 800dcc0:	f7f2 fef0 	bl	8000aa4 <__aeabi_dcmpge>
 800dcc4:	2800      	cmp	r0, #0
 800dcc6:	d13e      	bne.n	800dd46 <__kernel_rem_pio2+0x2e2>
 800dcc8:	9000      	str	r0, [sp, #0]
 800dcca:	2200      	movs	r2, #0
 800dccc:	2300      	movs	r3, #0
 800dcce:	4640      	mov	r0, r8
 800dcd0:	4649      	mov	r1, r9
 800dcd2:	f7f2 fec9 	bl	8000a68 <__aeabi_dcmpeq>
 800dcd6:	2800      	cmp	r0, #0
 800dcd8:	f000 80b1 	beq.w	800de3e <__kernel_rem_pio2+0x3da>
 800dcdc:	1e74      	subs	r4, r6, #1
 800dcde:	4623      	mov	r3, r4
 800dce0:	2200      	movs	r2, #0
 800dce2:	9902      	ldr	r1, [sp, #8]
 800dce4:	428b      	cmp	r3, r1
 800dce6:	da5f      	bge.n	800dda8 <__kernel_rem_pio2+0x344>
 800dce8:	2a00      	cmp	r2, #0
 800dcea:	d074      	beq.n	800ddd6 <__kernel_rem_pio2+0x372>
 800dcec:	ab0c      	add	r3, sp, #48	; 0x30
 800dcee:	f1ab 0b18 	sub.w	fp, fp, #24
 800dcf2:	f853 3024 	ldr.w	r3, [r3, r4, lsl #2]
 800dcf6:	2b00      	cmp	r3, #0
 800dcf8:	f000 809f 	beq.w	800de3a <__kernel_rem_pio2+0x3d6>
 800dcfc:	465a      	mov	r2, fp
 800dcfe:	4915      	ldr	r1, [pc, #84]	; (800dd54 <__kernel_rem_pio2+0x2f0>)
 800dd00:	f8df 9054 	ldr.w	r9, [pc, #84]	; 800dd58 <__kernel_rem_pio2+0x2f4>
 800dd04:	2000      	movs	r0, #0
 800dd06:	f000 fcb7 	bl	800e678 <scalbn>
 800dd0a:	ab70      	add	r3, sp, #448	; 0x1c0
 800dd0c:	4606      	mov	r6, r0
 800dd0e:	460f      	mov	r7, r1
 800dd10:	00e5      	lsls	r5, r4, #3
 800dd12:	eb03 0bc4 	add.w	fp, r3, r4, lsl #3
 800dd16:	46a2      	mov	sl, r4
 800dd18:	f04f 0800 	mov.w	r8, #0
 800dd1c:	f1ba 0f00 	cmp.w	sl, #0
 800dd20:	f280 80c3 	bge.w	800deaa <__kernel_rem_pio2+0x446>
 800dd24:	4626      	mov	r6, r4
 800dd26:	2e00      	cmp	r6, #0
 800dd28:	f2c0 80f5 	blt.w	800df16 <__kernel_rem_pio2+0x4b2>
 800dd2c:	4b0d      	ldr	r3, [pc, #52]	; (800dd64 <__kernel_rem_pio2+0x300>)
 800dd2e:	9307      	str	r3, [sp, #28]
 800dd30:	ab70      	add	r3, sp, #448	; 0x1c0
 800dd32:	eb03 09c6 	add.w	r9, r3, r6, lsl #3
 800dd36:	f04f 0a00 	mov.w	sl, #0
 800dd3a:	f04f 0b00 	mov.w	fp, #0
 800dd3e:	f04f 0800 	mov.w	r8, #0
 800dd42:	1ba7      	subs	r7, r4, r6
 800dd44:	e0db      	b.n	800defe <__kernel_rem_pio2+0x49a>
 800dd46:	2302      	movs	r3, #2
 800dd48:	9300      	str	r3, [sp, #0]
 800dd4a:	e757      	b.n	800dbfc <__kernel_rem_pio2+0x198>
 800dd4c:	08011410 	.word	0x08011410
 800dd50:	40200000 	.word	0x40200000
 800dd54:	3ff00000 	.word	0x3ff00000
 800dd58:	3e700000 	.word	0x3e700000
 800dd5c:	41700000 	.word	0x41700000
 800dd60:	3fe00000 	.word	0x3fe00000
 800dd64:	080113d0 	.word	0x080113d0
 800dd68:	683b      	ldr	r3, [r7, #0]
 800dd6a:	b944      	cbnz	r4, 800dd7e <__kernel_rem_pio2+0x31a>
 800dd6c:	b11b      	cbz	r3, 800dd76 <__kernel_rem_pio2+0x312>
 800dd6e:	f1c3 7380 	rsb	r3, r3, #16777216	; 0x1000000
 800dd72:	603b      	str	r3, [r7, #0]
 800dd74:	2301      	movs	r3, #1
 800dd76:	3201      	adds	r2, #1
 800dd78:	3704      	adds	r7, #4
 800dd7a:	461c      	mov	r4, r3
 800dd7c:	e745      	b.n	800dc0a <__kernel_rem_pio2+0x1a6>
 800dd7e:	1acb      	subs	r3, r1, r3
 800dd80:	603b      	str	r3, [r7, #0]
 800dd82:	4623      	mov	r3, r4
 800dd84:	e7f7      	b.n	800dd76 <__kernel_rem_pio2+0x312>
 800dd86:	1e72      	subs	r2, r6, #1
 800dd88:	ab0c      	add	r3, sp, #48	; 0x30
 800dd8a:	f853 3022 	ldr.w	r3, [r3, r2, lsl #2]
 800dd8e:	f3c3 0316 	ubfx	r3, r3, #0, #23
 800dd92:	a90c      	add	r1, sp, #48	; 0x30
 800dd94:	f841 3022 	str.w	r3, [r1, r2, lsl #2]
 800dd98:	e745      	b.n	800dc26 <__kernel_rem_pio2+0x1c2>
 800dd9a:	1e72      	subs	r2, r6, #1
 800dd9c:	ab0c      	add	r3, sp, #48	; 0x30
 800dd9e:	f853 3022 	ldr.w	r3, [r3, r2, lsl #2]
 800dda2:	f3c3 0315 	ubfx	r3, r3, #0, #22
 800dda6:	e7f4      	b.n	800dd92 <__kernel_rem_pio2+0x32e>
 800dda8:	a90c      	add	r1, sp, #48	; 0x30
 800ddaa:	f851 1023 	ldr.w	r1, [r1, r3, lsl #2]
 800ddae:	3b01      	subs	r3, #1
 800ddb0:	430a      	orrs	r2, r1
 800ddb2:	e796      	b.n	800dce2 <__kernel_rem_pio2+0x27e>
 800ddb4:	3401      	adds	r4, #1
 800ddb6:	f853 2d04 	ldr.w	r2, [r3, #-4]!
 800ddba:	2a00      	cmp	r2, #0
 800ddbc:	d0fa      	beq.n	800ddb4 <__kernel_rem_pio2+0x350>
 800ddbe:	9b08      	ldr	r3, [sp, #32]
 800ddc0:	18f5      	adds	r5, r6, r3
 800ddc2:	ab20      	add	r3, sp, #128	; 0x80
 800ddc4:	f106 0801 	add.w	r8, r6, #1
 800ddc8:	eb03 05c5 	add.w	r5, r3, r5, lsl #3
 800ddcc:	4434      	add	r4, r6
 800ddce:	4544      	cmp	r4, r8
 800ddd0:	da04      	bge.n	800dddc <__kernel_rem_pio2+0x378>
 800ddd2:	4626      	mov	r6, r4
 800ddd4:	e6bf      	b.n	800db56 <__kernel_rem_pio2+0xf2>
 800ddd6:	9b0b      	ldr	r3, [sp, #44]	; 0x2c
 800ddd8:	2401      	movs	r4, #1
 800ddda:	e7ec      	b.n	800ddb6 <__kernel_rem_pio2+0x352>
 800dddc:	9b0a      	ldr	r3, [sp, #40]	; 0x28
 800ddde:	f853 0028 	ldr.w	r0, [r3, r8, lsl #2]
 800dde2:	f7f2 fb6f 	bl	80004c4 <__aeabi_i2d>
 800dde6:	9b09      	ldr	r3, [sp, #36]	; 0x24
 800dde8:	9504      	str	r5, [sp, #16]
 800ddea:	e9c5 0100 	strd	r0, r1, [r5]
 800ddee:	3b08      	subs	r3, #8
 800ddf0:	9300      	str	r3, [sp, #0]
 800ddf2:	f04f 0900 	mov.w	r9, #0
 800ddf6:	2600      	movs	r6, #0
 800ddf8:	2700      	movs	r7, #0
 800ddfa:	9b07      	ldr	r3, [sp, #28]
 800ddfc:	4599      	cmp	r9, r3
 800ddfe:	dd05      	ble.n	800de0c <__kernel_rem_pio2+0x3a8>
 800de00:	e9ea 6702 	strd	r6, r7, [sl, #8]!
 800de04:	f108 0801 	add.w	r8, r8, #1
 800de08:	3508      	adds	r5, #8
 800de0a:	e7e0      	b.n	800ddce <__kernel_rem_pio2+0x36a>
 800de0c:	9900      	ldr	r1, [sp, #0]
 800de0e:	f8dd c010 	ldr.w	ip, [sp, #16]
 800de12:	e9f1 2302 	ldrd	r2, r3, [r1, #8]!
 800de16:	9100      	str	r1, [sp, #0]
 800de18:	e87c 0102 	ldrd	r0, r1, [ip], #-8
 800de1c:	f8cd c010 	str.w	ip, [sp, #16]
 800de20:	f7f2 fbba 	bl	8000598 <__aeabi_dmul>
 800de24:	4602      	mov	r2, r0
 800de26:	460b      	mov	r3, r1
 800de28:	4630      	mov	r0, r6
 800de2a:	4639      	mov	r1, r7
 800de2c:	f7f2 f9fe 	bl	800022c <__adddf3>
 800de30:	f109 0901 	add.w	r9, r9, #1
 800de34:	4606      	mov	r6, r0
 800de36:	460f      	mov	r7, r1
 800de38:	e7df      	b.n	800ddfa <__kernel_rem_pio2+0x396>
 800de3a:	3c01      	subs	r4, #1
 800de3c:	e756      	b.n	800dcec <__kernel_rem_pio2+0x288>
 800de3e:	f1cb 0200 	rsb	r2, fp, #0
 800de42:	4640      	mov	r0, r8
 800de44:	4649      	mov	r1, r9
 800de46:	f000 fc17 	bl	800e678 <scalbn>
 800de4a:	4ba5      	ldr	r3, [pc, #660]	; (800e0e0 <__kernel_rem_pio2+0x67c>)
 800de4c:	2200      	movs	r2, #0
 800de4e:	4604      	mov	r4, r0
 800de50:	460d      	mov	r5, r1
 800de52:	f7f2 fe27 	bl	8000aa4 <__aeabi_dcmpge>
 800de56:	b1f8      	cbz	r0, 800de98 <__kernel_rem_pio2+0x434>
 800de58:	4ba2      	ldr	r3, [pc, #648]	; (800e0e4 <__kernel_rem_pio2+0x680>)
 800de5a:	2200      	movs	r2, #0
 800de5c:	4620      	mov	r0, r4
 800de5e:	4629      	mov	r1, r5
 800de60:	f7f2 fb9a 	bl	8000598 <__aeabi_dmul>
 800de64:	f7f2 fe48 	bl	8000af8 <__aeabi_d2iz>
 800de68:	4607      	mov	r7, r0
 800de6a:	f7f2 fb2b 	bl	80004c4 <__aeabi_i2d>
 800de6e:	4b9c      	ldr	r3, [pc, #624]	; (800e0e0 <__kernel_rem_pio2+0x67c>)
 800de70:	2200      	movs	r2, #0
 800de72:	f7f2 fb91 	bl	8000598 <__aeabi_dmul>
 800de76:	460b      	mov	r3, r1
 800de78:	4602      	mov	r2, r0
 800de7a:	4629      	mov	r1, r5
 800de7c:	4620      	mov	r0, r4
 800de7e:	f7f2 f9d3 	bl	8000228 <__aeabi_dsub>
 800de82:	f7f2 fe39 	bl	8000af8 <__aeabi_d2iz>
 800de86:	1c74      	adds	r4, r6, #1
 800de88:	ab0c      	add	r3, sp, #48	; 0x30
 800de8a:	f10b 0b18 	add.w	fp, fp, #24
 800de8e:	f843 0026 	str.w	r0, [r3, r6, lsl #2]
 800de92:	f843 7024 	str.w	r7, [r3, r4, lsl #2]
 800de96:	e731      	b.n	800dcfc <__kernel_rem_pio2+0x298>
 800de98:	4620      	mov	r0, r4
 800de9a:	4629      	mov	r1, r5
 800de9c:	f7f2 fe2c 	bl	8000af8 <__aeabi_d2iz>
 800dea0:	ab0c      	add	r3, sp, #48	; 0x30
 800dea2:	4634      	mov	r4, r6
 800dea4:	f843 0026 	str.w	r0, [r3, r6, lsl #2]
 800dea8:	e728      	b.n	800dcfc <__kernel_rem_pio2+0x298>
 800deaa:	ab0c      	add	r3, sp, #48	; 0x30
 800deac:	f853 002a 	ldr.w	r0, [r3, sl, lsl #2]
 800deb0:	f7f2 fb08 	bl	80004c4 <__aeabi_i2d>
 800deb4:	4632      	mov	r2, r6
 800deb6:	463b      	mov	r3, r7
 800deb8:	f7f2 fb6e 	bl	8000598 <__aeabi_dmul>
 800debc:	4642      	mov	r2, r8
 800debe:	e86b 0102 	strd	r0, r1, [fp], #-8
 800dec2:	464b      	mov	r3, r9
 800dec4:	4630      	mov	r0, r6
 800dec6:	4639      	mov	r1, r7
 800dec8:	f7f2 fb66 	bl	8000598 <__aeabi_dmul>
 800decc:	f10a 3aff 	add.w	sl, sl, #4294967295	; 0xffffffff
 800ded0:	4606      	mov	r6, r0
 800ded2:	460f      	mov	r7, r1
 800ded4:	e722      	b.n	800dd1c <__kernel_rem_pio2+0x2b8>
 800ded6:	f8dd c01c 	ldr.w	ip, [sp, #28]
 800deda:	e8fc 0102 	ldrd	r0, r1, [ip], #8
 800dede:	e8f9 2302 	ldrd	r2, r3, [r9], #8
 800dee2:	f8cd c01c 	str.w	ip, [sp, #28]
 800dee6:	f7f2 fb57 	bl	8000598 <__aeabi_dmul>
 800deea:	4602      	mov	r2, r0
 800deec:	460b      	mov	r3, r1
 800deee:	4650      	mov	r0, sl
 800def0:	4659      	mov	r1, fp
 800def2:	f7f2 f99b 	bl	800022c <__adddf3>
 800def6:	f108 0801 	add.w	r8, r8, #1
 800defa:	4682      	mov	sl, r0
 800defc:	468b      	mov	fp, r1
 800defe:	9b02      	ldr	r3, [sp, #8]
 800df00:	4598      	cmp	r8, r3
 800df02:	dc01      	bgt.n	800df08 <__kernel_rem_pio2+0x4a4>
 800df04:	45b8      	cmp	r8, r7
 800df06:	dde6      	ble.n	800ded6 <__kernel_rem_pio2+0x472>
 800df08:	ab48      	add	r3, sp, #288	; 0x120
 800df0a:	eb03 07c7 	add.w	r7, r3, r7, lsl #3
 800df0e:	e9c7 ab00 	strd	sl, fp, [r7]
 800df12:	3e01      	subs	r6, #1
 800df14:	e707      	b.n	800dd26 <__kernel_rem_pio2+0x2c2>
 800df16:	9ba2      	ldr	r3, [sp, #648]	; 0x288
 800df18:	2b02      	cmp	r3, #2
 800df1a:	dc09      	bgt.n	800df30 <__kernel_rem_pio2+0x4cc>
 800df1c:	2b00      	cmp	r3, #0
 800df1e:	dc32      	bgt.n	800df86 <__kernel_rem_pio2+0x522>
 800df20:	d05a      	beq.n	800dfd8 <__kernel_rem_pio2+0x574>
 800df22:	9b04      	ldr	r3, [sp, #16]
 800df24:	f003 0007 	and.w	r0, r3, #7
 800df28:	f50d 7d19 	add.w	sp, sp, #612	; 0x264
 800df2c:	e8bd 8ff0 	ldmia.w	sp!, {r4, r5, r6, r7, r8, r9, sl, fp, pc}
 800df30:	9ba2      	ldr	r3, [sp, #648]	; 0x288
 800df32:	2b03      	cmp	r3, #3
 800df34:	d1f5      	bne.n	800df22 <__kernel_rem_pio2+0x4be>
 800df36:	ab48      	add	r3, sp, #288	; 0x120
 800df38:	441d      	add	r5, r3
 800df3a:	46aa      	mov	sl, r5
 800df3c:	46a3      	mov	fp, r4
 800df3e:	f1bb 0f00 	cmp.w	fp, #0
 800df42:	dc76      	bgt.n	800e032 <__kernel_rem_pio2+0x5ce>
 800df44:	46aa      	mov	sl, r5
 800df46:	46a3      	mov	fp, r4
 800df48:	f1bb 0f01 	cmp.w	fp, #1
 800df4c:	f300 8090 	bgt.w	800e070 <__kernel_rem_pio2+0x60c>
 800df50:	2700      	movs	r7, #0
 800df52:	463e      	mov	r6, r7
 800df54:	2c01      	cmp	r4, #1
 800df56:	f300 80aa 	bgt.w	800e0ae <__kernel_rem_pio2+0x64a>
 800df5a:	9b00      	ldr	r3, [sp, #0]
 800df5c:	e9dd 5048 	ldrd	r5, r0, [sp, #288]	; 0x120
 800df60:	e9dd 414a 	ldrd	r4, r1, [sp, #296]	; 0x128
 800df64:	2b00      	cmp	r3, #0
 800df66:	f040 80ac 	bne.w	800e0c2 <__kernel_rem_pio2+0x65e>
 800df6a:	4603      	mov	r3, r0
 800df6c:	9806      	ldr	r0, [sp, #24]
 800df6e:	462a      	mov	r2, r5
 800df70:	e9c0 2300 	strd	r2, r3, [r0]
 800df74:	4622      	mov	r2, r4
 800df76:	460b      	mov	r3, r1
 800df78:	e9c0 2302 	strd	r2, r3, [r0, #8]
 800df7c:	463a      	mov	r2, r7
 800df7e:	4633      	mov	r3, r6
 800df80:	e9c0 2304 	strd	r2, r3, [r0, #16]
 800df84:	e7cd      	b.n	800df22 <__kernel_rem_pio2+0x4be>
 800df86:	ab48      	add	r3, sp, #288	; 0x120
 800df88:	2000      	movs	r0, #0
 800df8a:	441d      	add	r5, r3
 800df8c:	46a0      	mov	r8, r4
 800df8e:	4601      	mov	r1, r0
 800df90:	f1b8 0f00 	cmp.w	r8, #0
 800df94:	da3a      	bge.n	800e00c <__kernel_rem_pio2+0x5a8>
 800df96:	9b00      	ldr	r3, [sp, #0]
 800df98:	2b00      	cmp	r3, #0
 800df9a:	d03e      	beq.n	800e01a <__kernel_rem_pio2+0x5b6>
 800df9c:	f101 4500 	add.w	r5, r1, #2147483648	; 0x80000000
 800dfa0:	462b      	mov	r3, r5
 800dfa2:	9d06      	ldr	r5, [sp, #24]
 800dfa4:	4602      	mov	r2, r0
 800dfa6:	e9c5 2300 	strd	r2, r3, [r5]
 800dfaa:	460b      	mov	r3, r1
 800dfac:	e9dd 0148 	ldrd	r0, r1, [sp, #288]	; 0x120
 800dfb0:	f7f2 f93a 	bl	8000228 <__aeabi_dsub>
 800dfb4:	ad48      	add	r5, sp, #288	; 0x120
 800dfb6:	4684      	mov	ip, r0
 800dfb8:	460f      	mov	r7, r1
 800dfba:	2601      	movs	r6, #1
 800dfbc:	42b4      	cmp	r4, r6
 800dfbe:	f105 0508 	add.w	r5, r5, #8
 800dfc2:	da2c      	bge.n	800e01e <__kernel_rem_pio2+0x5ba>
 800dfc4:	9b00      	ldr	r3, [sp, #0]
 800dfc6:	b10b      	cbz	r3, 800dfcc <__kernel_rem_pio2+0x568>
 800dfc8:	f107 4700 	add.w	r7, r7, #2147483648	; 0x80000000
 800dfcc:	9906      	ldr	r1, [sp, #24]
 800dfce:	4662      	mov	r2, ip
 800dfd0:	463b      	mov	r3, r7
 800dfd2:	e9c1 2302 	strd	r2, r3, [r1, #8]
 800dfd6:	e7a4      	b.n	800df22 <__kernel_rem_pio2+0x4be>
 800dfd8:	9ea2      	ldr	r6, [sp, #648]	; 0x288
 800dfda:	ab48      	add	r3, sp, #288	; 0x120
 800dfdc:	441d      	add	r5, r3
 800dfde:	4637      	mov	r7, r6
 800dfe0:	2c00      	cmp	r4, #0
 800dfe2:	da09      	bge.n	800dff8 <__kernel_rem_pio2+0x594>
 800dfe4:	9b00      	ldr	r3, [sp, #0]
 800dfe6:	b10b      	cbz	r3, 800dfec <__kernel_rem_pio2+0x588>
 800dfe8:	f107 4700 	add.w	r7, r7, #2147483648	; 0x80000000
 800dfec:	9906      	ldr	r1, [sp, #24]
 800dfee:	4632      	mov	r2, r6
 800dff0:	463b      	mov	r3, r7
 800dff2:	e9c1 2300 	strd	r2, r3, [r1]
 800dff6:	e794      	b.n	800df22 <__kernel_rem_pio2+0x4be>
 800dff8:	4630      	mov	r0, r6
 800dffa:	4639      	mov	r1, r7
 800dffc:	e875 2302 	ldrd	r2, r3, [r5], #-8
 800e000:	f7f2 f914 	bl	800022c <__adddf3>
 800e004:	3c01      	subs	r4, #1
 800e006:	4606      	mov	r6, r0
 800e008:	460f      	mov	r7, r1
 800e00a:	e7e9      	b.n	800dfe0 <__kernel_rem_pio2+0x57c>
 800e00c:	e875 2302 	ldrd	r2, r3, [r5], #-8
 800e010:	f7f2 f90c 	bl	800022c <__adddf3>
 800e014:	f108 38ff 	add.w	r8, r8, #4294967295	; 0xffffffff
 800e018:	e7ba      	b.n	800df90 <__kernel_rem_pio2+0x52c>
 800e01a:	460d      	mov	r5, r1
 800e01c:	e7c0      	b.n	800dfa0 <__kernel_rem_pio2+0x53c>
 800e01e:	4660      	mov	r0, ip
 800e020:	4639      	mov	r1, r7
 800e022:	e9d5 2300 	ldrd	r2, r3, [r5]
 800e026:	f7f2 f901 	bl	800022c <__adddf3>
 800e02a:	3601      	adds	r6, #1
 800e02c:	4684      	mov	ip, r0
 800e02e:	460f      	mov	r7, r1
 800e030:	e7c4      	b.n	800dfbc <__kernel_rem_pio2+0x558>
 800e032:	e9da 6700 	ldrd	r6, r7, [sl]
 800e036:	e95a 8902 	ldrd	r8, r9, [sl, #-8]
 800e03a:	4632      	mov	r2, r6
 800e03c:	463b      	mov	r3, r7
 800e03e:	4640      	mov	r0, r8
 800e040:	4649      	mov	r1, r9
 800e042:	f7f2 f8f3 	bl	800022c <__adddf3>
 800e046:	e9cd 0102 	strd	r0, r1, [sp, #8]
 800e04a:	4602      	mov	r2, r0
 800e04c:	460b      	mov	r3, r1
 800e04e:	4640      	mov	r0, r8
 800e050:	4649      	mov	r1, r9
 800e052:	f7f2 f8e9 	bl	8000228 <__aeabi_dsub>
 800e056:	4632      	mov	r2, r6
 800e058:	463b      	mov	r3, r7
 800e05a:	f7f2 f8e7 	bl	800022c <__adddf3>
 800e05e:	e9dd 2302 	ldrd	r2, r3, [sp, #8]
 800e062:	e86a 0102 	strd	r0, r1, [sl], #-8
 800e066:	f10b 3bff 	add.w	fp, fp, #4294967295	; 0xffffffff
 800e06a:	e9ca 2300 	strd	r2, r3, [sl]
 800e06e:	e766      	b.n	800df3e <__kernel_rem_pio2+0x4da>
 800e070:	e9da 8900 	ldrd	r8, r9, [sl]
 800e074:	e95a 6702 	ldrd	r6, r7, [sl, #-8]
 800e078:	4642      	mov	r2, r8
 800e07a:	464b      	mov	r3, r9
 800e07c:	4630      	mov	r0, r6
 800e07e:	4639      	mov	r1, r7
 800e080:	f7f2 f8d4 	bl	800022c <__adddf3>
 800e084:	e9cd 0102 	strd	r0, r1, [sp, #8]
 800e088:	4602      	mov	r2, r0
 800e08a:	460b      	mov	r3, r1
 800e08c:	4630      	mov	r0, r6
 800e08e:	4639      	mov	r1, r7
 800e090:	f7f2 f8ca 	bl	8000228 <__aeabi_dsub>
 800e094:	4642      	mov	r2, r8
 800e096:	464b      	mov	r3, r9
 800e098:	f7f2 f8c8 	bl	800022c <__adddf3>
 800e09c:	e9dd 2302 	ldrd	r2, r3, [sp, #8]
 800e0a0:	e86a 0102 	strd	r0, r1, [sl], #-8
 800e0a4:	f10b 3bff 	add.w	fp, fp, #4294967295	; 0xffffffff
 800e0a8:	e9ca 2300 	strd	r2, r3, [sl]
 800e0ac:	e74c      	b.n	800df48 <__kernel_rem_pio2+0x4e4>
 800e0ae:	4638      	mov	r0, r7
 800e0b0:	4631      	mov	r1, r6
 800e0b2:	e875 2302 	ldrd	r2, r3, [r5], #-8
 800e0b6:	f7f2 f8b9 	bl	800022c <__adddf3>
 800e0ba:	3c01      	subs	r4, #1
 800e0bc:	4607      	mov	r7, r0
 800e0be:	460e      	mov	r6, r1
 800e0c0:	e748      	b.n	800df54 <__kernel_rem_pio2+0x4f0>
 800e0c2:	9b06      	ldr	r3, [sp, #24]
 800e0c4:	f100 4000 	add.w	r0, r0, #2147483648	; 0x80000000
 800e0c8:	f101 4100 	add.w	r1, r1, #2147483648	; 0x80000000
 800e0cc:	f106 4600 	add.w	r6, r6, #2147483648	; 0x80000000
 800e0d0:	e9c3 0401 	strd	r0, r4, [r3, #4]
 800e0d4:	e9c3 1703 	strd	r1, r7, [r3, #12]
 800e0d8:	601d      	str	r5, [r3, #0]
 800e0da:	615e      	str	r6, [r3, #20]
 800e0dc:	e721      	b.n	800df22 <__kernel_rem_pio2+0x4be>
 800e0de:	bf00      	nop
 800e0e0:	41700000 	.word	0x41700000
 800e0e4:	3e700000 	.word	0x3e700000

0800e0e8 <__kernel_sin>:
 800e0e8:	e92d 47f0 	stmdb	sp!, {r4, r5, r6, r7, r8, r9, sl, lr}
 800e0ec:	b086      	sub	sp, #24
 800e0ee:	e9cd 2300 	strd	r2, r3, [sp]
 800e0f2:	f021 4300 	bic.w	r3, r1, #2147483648	; 0x80000000
 800e0f6:	f1b3 5f79 	cmp.w	r3, #1044381696	; 0x3e400000
 800e0fa:	9d0e      	ldr	r5, [sp, #56]	; 0x38
 800e0fc:	4682      	mov	sl, r0
 800e0fe:	460c      	mov	r4, r1
 800e100:	da03      	bge.n	800e10a <__kernel_sin+0x22>
 800e102:	f7f2 fcf9 	bl	8000af8 <__aeabi_d2iz>
 800e106:	2800      	cmp	r0, #0
 800e108:	d050      	beq.n	800e1ac <__kernel_sin+0xc4>
 800e10a:	4652      	mov	r2, sl
 800e10c:	4623      	mov	r3, r4
 800e10e:	4650      	mov	r0, sl
 800e110:	4621      	mov	r1, r4
 800e112:	f7f2 fa41 	bl	8000598 <__aeabi_dmul>
 800e116:	4606      	mov	r6, r0
 800e118:	460f      	mov	r7, r1
 800e11a:	4602      	mov	r2, r0
 800e11c:	460b      	mov	r3, r1
 800e11e:	4650      	mov	r0, sl
 800e120:	4621      	mov	r1, r4
 800e122:	f7f2 fa39 	bl	8000598 <__aeabi_dmul>
 800e126:	a33e      	add	r3, pc, #248	; (adr r3, 800e220 <__kernel_sin+0x138>)
 800e128:	e9d3 2300 	ldrd	r2, r3, [r3]
 800e12c:	4680      	mov	r8, r0
 800e12e:	4689      	mov	r9, r1
 800e130:	4630      	mov	r0, r6
 800e132:	4639      	mov	r1, r7
 800e134:	f7f2 fa30 	bl	8000598 <__aeabi_dmul>
 800e138:	a33b      	add	r3, pc, #236	; (adr r3, 800e228 <__kernel_sin+0x140>)
 800e13a:	e9d3 2300 	ldrd	r2, r3, [r3]
 800e13e:	f7f2 f873 	bl	8000228 <__aeabi_dsub>
 800e142:	4632      	mov	r2, r6
 800e144:	463b      	mov	r3, r7
 800e146:	f7f2 fa27 	bl	8000598 <__aeabi_dmul>
 800e14a:	a339      	add	r3, pc, #228	; (adr r3, 800e230 <__kernel_sin+0x148>)
 800e14c:	e9d3 2300 	ldrd	r2, r3, [r3]
 800e150:	f7f2 f86c 	bl	800022c <__adddf3>
 800e154:	4632      	mov	r2, r6
 800e156:	463b      	mov	r3, r7
 800e158:	f7f2 fa1e 	bl	8000598 <__aeabi_dmul>
 800e15c:	a336      	add	r3, pc, #216	; (adr r3, 800e238 <__kernel_sin+0x150>)
 800e15e:	e9d3 2300 	ldrd	r2, r3, [r3]
 800e162:	f7f2 f861 	bl	8000228 <__aeabi_dsub>
 800e166:	4632      	mov	r2, r6
 800e168:	463b      	mov	r3, r7
 800e16a:	f7f2 fa15 	bl	8000598 <__aeabi_dmul>
 800e16e:	a334      	add	r3, pc, #208	; (adr r3, 800e240 <__kernel_sin+0x158>)
 800e170:	e9d3 2300 	ldrd	r2, r3, [r3]
 800e174:	f7f2 f85a 	bl	800022c <__adddf3>
 800e178:	e9cd 0102 	strd	r0, r1, [sp, #8]
 800e17c:	b9dd      	cbnz	r5, 800e1b6 <__kernel_sin+0xce>
 800e17e:	4602      	mov	r2, r0
 800e180:	460b      	mov	r3, r1
 800e182:	4630      	mov	r0, r6
 800e184:	4639      	mov	r1, r7
 800e186:	f7f2 fa07 	bl	8000598 <__aeabi_dmul>
 800e18a:	a32f      	add	r3, pc, #188	; (adr r3, 800e248 <__kernel_sin+0x160>)
 800e18c:	e9d3 2300 	ldrd	r2, r3, [r3]
 800e190:	f7f2 f84a 	bl	8000228 <__aeabi_dsub>
 800e194:	4642      	mov	r2, r8
 800e196:	464b      	mov	r3, r9
 800e198:	f7f2 f9fe 	bl	8000598 <__aeabi_dmul>
 800e19c:	4602      	mov	r2, r0
 800e19e:	460b      	mov	r3, r1
 800e1a0:	4650      	mov	r0, sl
 800e1a2:	4621      	mov	r1, r4
 800e1a4:	f7f2 f842 	bl	800022c <__adddf3>
 800e1a8:	4682      	mov	sl, r0
 800e1aa:	460c      	mov	r4, r1
 800e1ac:	4650      	mov	r0, sl
 800e1ae:	4621      	mov	r1, r4
 800e1b0:	b006      	add	sp, #24
 800e1b2:	e8bd 87f0 	ldmia.w	sp!, {r4, r5, r6, r7, r8, r9, sl, pc}
 800e1b6:	e9dd 0100 	ldrd	r0, r1, [sp]
 800e1ba:	4b25      	ldr	r3, [pc, #148]	; (800e250 <__kernel_sin+0x168>)
 800e1bc:	2200      	movs	r2, #0
 800e1be:	f7f2 f9eb 	bl	8000598 <__aeabi_dmul>
 800e1c2:	e9dd 2302 	ldrd	r2, r3, [sp, #8]
 800e1c6:	e9cd 0104 	strd	r0, r1, [sp, #16]
 800e1ca:	4640      	mov	r0, r8
 800e1cc:	4649      	mov	r1, r9
 800e1ce:	f7f2 f9e3 	bl	8000598 <__aeabi_dmul>
 800e1d2:	4602      	mov	r2, r0
 800e1d4:	460b      	mov	r3, r1
 800e1d6:	e9dd 0104 	ldrd	r0, r1, [sp, #16]
 800e1da:	f7f2 f825 	bl	8000228 <__aeabi_dsub>
 800e1de:	4632      	mov	r2, r6
 800e1e0:	463b      	mov	r3, r7
 800e1e2:	f7f2 f9d9 	bl	8000598 <__aeabi_dmul>
 800e1e6:	e9dd 2300 	ldrd	r2, r3, [sp]
 800e1ea:	f7f2 f81d 	bl	8000228 <__aeabi_dsub>
 800e1ee:	a316      	add	r3, pc, #88	; (adr r3, 800e248 <__kernel_sin+0x160>)
 800e1f0:	e9d3 2300 	ldrd	r2, r3, [r3]
 800e1f4:	4606      	mov	r6, r0
 800e1f6:	460f      	mov	r7, r1
 800e1f8:	4640      	mov	r0, r8
 800e1fa:	4649      	mov	r1, r9
 800e1fc:	f7f2 f9cc 	bl	8000598 <__aeabi_dmul>
 800e200:	4602      	mov	r2, r0
 800e202:	460b      	mov	r3, r1
 800e204:	4630      	mov	r0, r6
 800e206:	4639      	mov	r1, r7
 800e208:	f7f2 f810 	bl	800022c <__adddf3>
 800e20c:	4602      	mov	r2, r0
 800e20e:	460b      	mov	r3, r1
 800e210:	4650      	mov	r0, sl
 800e212:	4621      	mov	r1, r4
 800e214:	f7f2 f808 	bl	8000228 <__aeabi_dsub>
 800e218:	e7c6      	b.n	800e1a8 <__kernel_sin+0xc0>
 800e21a:	bf00      	nop
 800e21c:	f3af 8000 	nop.w
 800e220:	5acfd57c 	.word	0x5acfd57c
 800e224:	3de5d93a 	.word	0x3de5d93a
 800e228:	8a2b9ceb 	.word	0x8a2b9ceb
 800e22c:	3e5ae5e6 	.word	0x3e5ae5e6
 800e230:	57b1fe7d 	.word	0x57b1fe7d
 800e234:	3ec71de3 	.word	0x3ec71de3
 800e238:	19c161d5 	.word	0x19c161d5
 800e23c:	3f2a01a0 	.word	0x3f2a01a0
 800e240:	1110f8a6 	.word	0x1110f8a6
 800e244:	3f811111 	.word	0x3f811111
 800e248:	55555549 	.word	0x55555549
 800e24c:	3fc55555 	.word	0x3fc55555
 800e250:	3fe00000 	.word	0x3fe00000
 800e254:	00000000 	.word	0x00000000

0800e258 <atan>:
 800e258:	e92d 4ff8 	stmdb	sp!, {r3, r4, r5, r6, r7, r8, r9, sl, fp, lr}
 800e25c:	4bb6      	ldr	r3, [pc, #728]	; (800e538 <atan+0x2e0>)
 800e25e:	f021 4600 	bic.w	r6, r1, #2147483648	; 0x80000000
 800e262:	429e      	cmp	r6, r3
 800e264:	4604      	mov	r4, r0
 800e266:	460d      	mov	r5, r1
 800e268:	468b      	mov	fp, r1
 800e26a:	dd17      	ble.n	800e29c <atan+0x44>
 800e26c:	4bb3      	ldr	r3, [pc, #716]	; (800e53c <atan+0x2e4>)
 800e26e:	429e      	cmp	r6, r3
 800e270:	dc01      	bgt.n	800e276 <atan+0x1e>
 800e272:	d109      	bne.n	800e288 <atan+0x30>
 800e274:	b140      	cbz	r0, 800e288 <atan+0x30>
 800e276:	4622      	mov	r2, r4
 800e278:	462b      	mov	r3, r5
 800e27a:	4620      	mov	r0, r4
 800e27c:	4629      	mov	r1, r5
 800e27e:	f7f1 ffd5 	bl	800022c <__adddf3>
 800e282:	4604      	mov	r4, r0
 800e284:	460d      	mov	r5, r1
 800e286:	e005      	b.n	800e294 <atan+0x3c>
 800e288:	f1bb 0f00 	cmp.w	fp, #0
 800e28c:	4cac      	ldr	r4, [pc, #688]	; (800e540 <atan+0x2e8>)
 800e28e:	f300 8121 	bgt.w	800e4d4 <atan+0x27c>
 800e292:	4dac      	ldr	r5, [pc, #688]	; (800e544 <atan+0x2ec>)
 800e294:	4620      	mov	r0, r4
 800e296:	4629      	mov	r1, r5
 800e298:	e8bd 8ff8 	ldmia.w	sp!, {r3, r4, r5, r6, r7, r8, r9, sl, fp, pc}
 800e29c:	4baa      	ldr	r3, [pc, #680]	; (800e548 <atan+0x2f0>)
 800e29e:	429e      	cmp	r6, r3
 800e2a0:	dc11      	bgt.n	800e2c6 <atan+0x6e>
 800e2a2:	f1a3 73de 	sub.w	r3, r3, #29097984	; 0x1bc0000
 800e2a6:	429e      	cmp	r6, r3
 800e2a8:	dc0a      	bgt.n	800e2c0 <atan+0x68>
 800e2aa:	a38b      	add	r3, pc, #556	; (adr r3, 800e4d8 <atan+0x280>)
 800e2ac:	e9d3 2300 	ldrd	r2, r3, [r3]
 800e2b0:	f7f1 ffbc 	bl	800022c <__adddf3>
 800e2b4:	4ba5      	ldr	r3, [pc, #660]	; (800e54c <atan+0x2f4>)
 800e2b6:	2200      	movs	r2, #0
 800e2b8:	f7f2 fbfe 	bl	8000ab8 <__aeabi_dcmpgt>
 800e2bc:	2800      	cmp	r0, #0
 800e2be:	d1e9      	bne.n	800e294 <atan+0x3c>
 800e2c0:	f04f 3aff 	mov.w	sl, #4294967295	; 0xffffffff
 800e2c4:	e027      	b.n	800e316 <atan+0xbe>
 800e2c6:	f000 f951 	bl	800e56c <fabs>
 800e2ca:	4ba1      	ldr	r3, [pc, #644]	; (800e550 <atan+0x2f8>)
 800e2cc:	429e      	cmp	r6, r3
 800e2ce:	4604      	mov	r4, r0
 800e2d0:	460d      	mov	r5, r1
 800e2d2:	f300 80b8 	bgt.w	800e446 <atan+0x1ee>
 800e2d6:	f5a3 2350 	sub.w	r3, r3, #851968	; 0xd0000
 800e2da:	429e      	cmp	r6, r3
 800e2dc:	f300 809c 	bgt.w	800e418 <atan+0x1c0>
 800e2e0:	4602      	mov	r2, r0
 800e2e2:	460b      	mov	r3, r1
 800e2e4:	f7f1 ffa2 	bl	800022c <__adddf3>
 800e2e8:	4b98      	ldr	r3, [pc, #608]	; (800e54c <atan+0x2f4>)
 800e2ea:	2200      	movs	r2, #0
 800e2ec:	f7f1 ff9c 	bl	8000228 <__aeabi_dsub>
 800e2f0:	2200      	movs	r2, #0
 800e2f2:	4606      	mov	r6, r0
 800e2f4:	460f      	mov	r7, r1
 800e2f6:	f04f 4380 	mov.w	r3, #1073741824	; 0x40000000
 800e2fa:	4620      	mov	r0, r4
 800e2fc:	4629      	mov	r1, r5
 800e2fe:	f7f1 ff95 	bl	800022c <__adddf3>
 800e302:	4602      	mov	r2, r0
 800e304:	460b      	mov	r3, r1
 800e306:	4630      	mov	r0, r6
 800e308:	4639      	mov	r1, r7
 800e30a:	f7f2 fa6f 	bl	80007ec <__aeabi_ddiv>
 800e30e:	f04f 0a00 	mov.w	sl, #0
 800e312:	4604      	mov	r4, r0
 800e314:	460d      	mov	r5, r1
 800e316:	4622      	mov	r2, r4
 800e318:	462b      	mov	r3, r5
 800e31a:	4620      	mov	r0, r4
 800e31c:	4629      	mov	r1, r5
 800e31e:	f7f2 f93b 	bl	8000598 <__aeabi_dmul>
 800e322:	4602      	mov	r2, r0
 800e324:	460b      	mov	r3, r1
 800e326:	4680      	mov	r8, r0
 800e328:	4689      	mov	r9, r1
 800e32a:	f7f2 f935 	bl	8000598 <__aeabi_dmul>
 800e32e:	a36c      	add	r3, pc, #432	; (adr r3, 800e4e0 <atan+0x288>)
 800e330:	e9d3 2300 	ldrd	r2, r3, [r3]
 800e334:	4606      	mov	r6, r0
 800e336:	460f      	mov	r7, r1
 800e338:	f7f2 f92e 	bl	8000598 <__aeabi_dmul>
 800e33c:	a36a      	add	r3, pc, #424	; (adr r3, 800e4e8 <atan+0x290>)
 800e33e:	e9d3 2300 	ldrd	r2, r3, [r3]
 800e342:	f7f1 ff73 	bl	800022c <__adddf3>
 800e346:	4632      	mov	r2, r6
 800e348:	463b      	mov	r3, r7
 800e34a:	f7f2 f925 	bl	8000598 <__aeabi_dmul>
 800e34e:	a368      	add	r3, pc, #416	; (adr r3, 800e4f0 <atan+0x298>)
 800e350:	e9d3 2300 	ldrd	r2, r3, [r3]
 800e354:	f7f1 ff6a 	bl	800022c <__adddf3>
 800e358:	4632      	mov	r2, r6
 800e35a:	463b      	mov	r3, r7
 800e35c:	f7f2 f91c 	bl	8000598 <__aeabi_dmul>
 800e360:	a365      	add	r3, pc, #404	; (adr r3, 800e4f8 <atan+0x2a0>)
 800e362:	e9d3 2300 	ldrd	r2, r3, [r3]
 800e366:	f7f1 ff61 	bl	800022c <__adddf3>
 800e36a:	4632      	mov	r2, r6
 800e36c:	463b      	mov	r3, r7
 800e36e:	f7f2 f913 	bl	8000598 <__aeabi_dmul>
 800e372:	a363      	add	r3, pc, #396	; (adr r3, 800e500 <atan+0x2a8>)
 800e374:	e9d3 2300 	ldrd	r2, r3, [r3]
 800e378:	f7f1 ff58 	bl	800022c <__adddf3>
 800e37c:	4632      	mov	r2, r6
 800e37e:	463b      	mov	r3, r7
 800e380:	f7f2 f90a 	bl	8000598 <__aeabi_dmul>
 800e384:	a360      	add	r3, pc, #384	; (adr r3, 800e508 <atan+0x2b0>)
 800e386:	e9d3 2300 	ldrd	r2, r3, [r3]
 800e38a:	f7f1 ff4f 	bl	800022c <__adddf3>
 800e38e:	4642      	mov	r2, r8
 800e390:	464b      	mov	r3, r9
 800e392:	f7f2 f901 	bl	8000598 <__aeabi_dmul>
 800e396:	a35e      	add	r3, pc, #376	; (adr r3, 800e510 <atan+0x2b8>)
 800e398:	e9d3 2300 	ldrd	r2, r3, [r3]
 800e39c:	4680      	mov	r8, r0
 800e39e:	4689      	mov	r9, r1
 800e3a0:	4630      	mov	r0, r6
 800e3a2:	4639      	mov	r1, r7
 800e3a4:	f7f2 f8f8 	bl	8000598 <__aeabi_dmul>
 800e3a8:	a35b      	add	r3, pc, #364	; (adr r3, 800e518 <atan+0x2c0>)
 800e3aa:	e9d3 2300 	ldrd	r2, r3, [r3]
 800e3ae:	f7f1 ff3b 	bl	8000228 <__aeabi_dsub>
 800e3b2:	4632      	mov	r2, r6
 800e3b4:	463b      	mov	r3, r7
 800e3b6:	f7f2 f8ef 	bl	8000598 <__aeabi_dmul>
 800e3ba:	a359      	add	r3, pc, #356	; (adr r3, 800e520 <atan+0x2c8>)
 800e3bc:	e9d3 2300 	ldrd	r2, r3, [r3]
 800e3c0:	f7f1 ff32 	bl	8000228 <__aeabi_dsub>
 800e3c4:	4632      	mov	r2, r6
 800e3c6:	463b      	mov	r3, r7
 800e3c8:	f7f2 f8e6 	bl	8000598 <__aeabi_dmul>
 800e3cc:	a356      	add	r3, pc, #344	; (adr r3, 800e528 <atan+0x2d0>)
 800e3ce:	e9d3 2300 	ldrd	r2, r3, [r3]
 800e3d2:	f7f1 ff29 	bl	8000228 <__aeabi_dsub>
 800e3d6:	4632      	mov	r2, r6
 800e3d8:	463b      	mov	r3, r7
 800e3da:	f7f2 f8dd 	bl	8000598 <__aeabi_dmul>
 800e3de:	a354      	add	r3, pc, #336	; (adr r3, 800e530 <atan+0x2d8>)
 800e3e0:	e9d3 2300 	ldrd	r2, r3, [r3]
 800e3e4:	f7f1 ff20 	bl	8000228 <__aeabi_dsub>
 800e3e8:	4632      	mov	r2, r6
 800e3ea:	463b      	mov	r3, r7
 800e3ec:	f7f2 f8d4 	bl	8000598 <__aeabi_dmul>
 800e3f0:	4602      	mov	r2, r0
 800e3f2:	460b      	mov	r3, r1
 800e3f4:	4640      	mov	r0, r8
 800e3f6:	4649      	mov	r1, r9
 800e3f8:	f7f1 ff18 	bl	800022c <__adddf3>
 800e3fc:	4622      	mov	r2, r4
 800e3fe:	462b      	mov	r3, r5
 800e400:	f7f2 f8ca 	bl	8000598 <__aeabi_dmul>
 800e404:	f1ba 3fff 	cmp.w	sl, #4294967295	; 0xffffffff
 800e408:	4602      	mov	r2, r0
 800e40a:	460b      	mov	r3, r1
 800e40c:	d144      	bne.n	800e498 <atan+0x240>
 800e40e:	4620      	mov	r0, r4
 800e410:	4629      	mov	r1, r5
 800e412:	f7f1 ff09 	bl	8000228 <__aeabi_dsub>
 800e416:	e734      	b.n	800e282 <atan+0x2a>
 800e418:	4b4c      	ldr	r3, [pc, #304]	; (800e54c <atan+0x2f4>)
 800e41a:	2200      	movs	r2, #0
 800e41c:	f7f1 ff04 	bl	8000228 <__aeabi_dsub>
 800e420:	4b4a      	ldr	r3, [pc, #296]	; (800e54c <atan+0x2f4>)
 800e422:	4606      	mov	r6, r0
 800e424:	460f      	mov	r7, r1
 800e426:	2200      	movs	r2, #0
 800e428:	4620      	mov	r0, r4
 800e42a:	4629      	mov	r1, r5
 800e42c:	f7f1 fefe 	bl	800022c <__adddf3>
 800e430:	4602      	mov	r2, r0
 800e432:	460b      	mov	r3, r1
 800e434:	4630      	mov	r0, r6
 800e436:	4639      	mov	r1, r7
 800e438:	f7f2 f9d8 	bl	80007ec <__aeabi_ddiv>
 800e43c:	f04f 0a01 	mov.w	sl, #1
 800e440:	4604      	mov	r4, r0
 800e442:	460d      	mov	r5, r1
 800e444:	e767      	b.n	800e316 <atan+0xbe>
 800e446:	4b43      	ldr	r3, [pc, #268]	; (800e554 <atan+0x2fc>)
 800e448:	429e      	cmp	r6, r3
 800e44a:	da1a      	bge.n	800e482 <atan+0x22a>
 800e44c:	4b42      	ldr	r3, [pc, #264]	; (800e558 <atan+0x300>)
 800e44e:	2200      	movs	r2, #0
 800e450:	f7f1 feea 	bl	8000228 <__aeabi_dsub>
 800e454:	4b40      	ldr	r3, [pc, #256]	; (800e558 <atan+0x300>)
 800e456:	4606      	mov	r6, r0
 800e458:	460f      	mov	r7, r1
 800e45a:	2200      	movs	r2, #0
 800e45c:	4620      	mov	r0, r4
 800e45e:	4629      	mov	r1, r5
 800e460:	f7f2 f89a 	bl	8000598 <__aeabi_dmul>
 800e464:	4b39      	ldr	r3, [pc, #228]	; (800e54c <atan+0x2f4>)
 800e466:	2200      	movs	r2, #0
 800e468:	f7f1 fee0 	bl	800022c <__adddf3>
 800e46c:	4602      	mov	r2, r0
 800e46e:	460b      	mov	r3, r1
 800e470:	4630      	mov	r0, r6
 800e472:	4639      	mov	r1, r7
 800e474:	f7f2 f9ba 	bl	80007ec <__aeabi_ddiv>
 800e478:	f04f 0a02 	mov.w	sl, #2
 800e47c:	4604      	mov	r4, r0
 800e47e:	460d      	mov	r5, r1
 800e480:	e749      	b.n	800e316 <atan+0xbe>
 800e482:	4602      	mov	r2, r0
 800e484:	460b      	mov	r3, r1
 800e486:	2000      	movs	r0, #0
 800e488:	4934      	ldr	r1, [pc, #208]	; (800e55c <atan+0x304>)
 800e48a:	f7f2 f9af 	bl	80007ec <__aeabi_ddiv>
 800e48e:	f04f 0a03 	mov.w	sl, #3
 800e492:	4604      	mov	r4, r0
 800e494:	460d      	mov	r5, r1
 800e496:	e73e      	b.n	800e316 <atan+0xbe>
 800e498:	4b31      	ldr	r3, [pc, #196]	; (800e560 <atan+0x308>)
 800e49a:	4e32      	ldr	r6, [pc, #200]	; (800e564 <atan+0x30c>)
 800e49c:	eb06 06ca 	add.w	r6, r6, sl, lsl #3
 800e4a0:	eb03 0aca 	add.w	sl, r3, sl, lsl #3
 800e4a4:	e9da 2300 	ldrd	r2, r3, [sl]
 800e4a8:	f7f1 febe 	bl	8000228 <__aeabi_dsub>
 800e4ac:	4622      	mov	r2, r4
 800e4ae:	462b      	mov	r3, r5
 800e4b0:	f7f1 feba 	bl	8000228 <__aeabi_dsub>
 800e4b4:	4602      	mov	r2, r0
 800e4b6:	460b      	mov	r3, r1
 800e4b8:	e9d6 0100 	ldrd	r0, r1, [r6]
 800e4bc:	f7f1 feb4 	bl	8000228 <__aeabi_dsub>
 800e4c0:	f1bb 0f00 	cmp.w	fp, #0
 800e4c4:	4604      	mov	r4, r0
 800e4c6:	460d      	mov	r5, r1
 800e4c8:	f6bf aee4 	bge.w	800e294 <atan+0x3c>
 800e4cc:	f101 4300 	add.w	r3, r1, #2147483648	; 0x80000000
 800e4d0:	461d      	mov	r5, r3
 800e4d2:	e6df      	b.n	800e294 <atan+0x3c>
 800e4d4:	4d24      	ldr	r5, [pc, #144]	; (800e568 <atan+0x310>)
 800e4d6:	e6dd      	b.n	800e294 <atan+0x3c>
 800e4d8:	8800759c 	.word	0x8800759c
 800e4dc:	7e37e43c 	.word	0x7e37e43c
 800e4e0:	e322da11 	.word	0xe322da11
 800e4e4:	3f90ad3a 	.word	0x3f90ad3a
 800e4e8:	24760deb 	.word	0x24760deb
 800e4ec:	3fa97b4b 	.word	0x3fa97b4b
 800e4f0:	a0d03d51 	.word	0xa0d03d51
 800e4f4:	3fb10d66 	.word	0x3fb10d66
 800e4f8:	c54c206e 	.word	0xc54c206e
 800e4fc:	3fb745cd 	.word	0x3fb745cd
 800e500:	920083ff 	.word	0x920083ff
 800e504:	3fc24924 	.word	0x3fc24924
 800e508:	5555550d 	.word	0x5555550d
 800e50c:	3fd55555 	.word	0x3fd55555
 800e510:	2c6a6c2f 	.word	0x2c6a6c2f
 800e514:	bfa2b444 	.word	0xbfa2b444
 800e518:	52defd9a 	.word	0x52defd9a
 800e51c:	3fadde2d 	.word	0x3fadde2d
 800e520:	af749a6d 	.word	0xaf749a6d
 800e524:	3fb3b0f2 	.word	0x3fb3b0f2
 800e528:	fe231671 	.word	0xfe231671
 800e52c:	3fbc71c6 	.word	0x3fbc71c6
 800e530:	9998ebc4 	.word	0x9998ebc4
 800e534:	3fc99999 	.word	0x3fc99999
 800e538:	440fffff 	.word	0x440fffff
 800e53c:	7ff00000 	.word	0x7ff00000
 800e540:	54442d18 	.word	0x54442d18
 800e544:	bff921fb 	.word	0xbff921fb
 800e548:	3fdbffff 	.word	0x3fdbffff
 800e54c:	3ff00000 	.word	0x3ff00000
 800e550:	3ff2ffff 	.word	0x3ff2ffff
 800e554:	40038000 	.word	0x40038000
 800e558:	3ff80000 	.word	0x3ff80000
 800e55c:	bff00000 	.word	0xbff00000
 800e560:	08011440 	.word	0x08011440
 800e564:	08011420 	.word	0x08011420
 800e568:	3ff921fb 	.word	0x3ff921fb

0800e56c <fabs>:
 800e56c:	f021 4100 	bic.w	r1, r1, #2147483648	; 0x80000000
 800e570:	4770      	bx	lr
 800e572:	0000      	movs	r0, r0
 800e574:	0000      	movs	r0, r0
	...

0800e578 <floor>:
 800e578:	e92d 43f8 	stmdb	sp!, {r3, r4, r5, r6, r7, r8, r9, lr}
 800e57c:	f3c1 580a 	ubfx	r8, r1, #20, #11
 800e580:	f2a8 36ff 	subw	r6, r8, #1023	; 0x3ff
 800e584:	2e13      	cmp	r6, #19
 800e586:	4602      	mov	r2, r0
 800e588:	460b      	mov	r3, r1
 800e58a:	4607      	mov	r7, r0
 800e58c:	460c      	mov	r4, r1
 800e58e:	4605      	mov	r5, r0
 800e590:	dc33      	bgt.n	800e5fa <floor+0x82>
 800e592:	2e00      	cmp	r6, #0
 800e594:	da14      	bge.n	800e5c0 <floor+0x48>
 800e596:	a334      	add	r3, pc, #208	; (adr r3, 800e668 <floor+0xf0>)
 800e598:	e9d3 2300 	ldrd	r2, r3, [r3]
 800e59c:	f7f1 fe46 	bl	800022c <__adddf3>
 800e5a0:	2200      	movs	r2, #0
 800e5a2:	2300      	movs	r3, #0
 800e5a4:	f7f2 fa88 	bl	8000ab8 <__aeabi_dcmpgt>
 800e5a8:	b138      	cbz	r0, 800e5ba <floor+0x42>
 800e5aa:	2c00      	cmp	r4, #0
 800e5ac:	da58      	bge.n	800e660 <floor+0xe8>
 800e5ae:	f024 4300 	bic.w	r3, r4, #2147483648	; 0x80000000
 800e5b2:	431d      	orrs	r5, r3
 800e5b4:	d001      	beq.n	800e5ba <floor+0x42>
 800e5b6:	4c2e      	ldr	r4, [pc, #184]	; (800e670 <floor+0xf8>)
 800e5b8:	2500      	movs	r5, #0
 800e5ba:	4623      	mov	r3, r4
 800e5bc:	462f      	mov	r7, r5
 800e5be:	e025      	b.n	800e60c <floor+0x94>
 800e5c0:	4a2c      	ldr	r2, [pc, #176]	; (800e674 <floor+0xfc>)
 800e5c2:	fa42 f806 	asr.w	r8, r2, r6
 800e5c6:	ea01 0208 	and.w	r2, r1, r8
 800e5ca:	4302      	orrs	r2, r0
 800e5cc:	d01e      	beq.n	800e60c <floor+0x94>
 800e5ce:	a326      	add	r3, pc, #152	; (adr r3, 800e668 <floor+0xf0>)
 800e5d0:	e9d3 2300 	ldrd	r2, r3, [r3]
 800e5d4:	f7f1 fe2a 	bl	800022c <__adddf3>
 800e5d8:	2200      	movs	r2, #0
 800e5da:	2300      	movs	r3, #0
 800e5dc:	f7f2 fa6c 	bl	8000ab8 <__aeabi_dcmpgt>
 800e5e0:	2800      	cmp	r0, #0
 800e5e2:	d0ea      	beq.n	800e5ba <floor+0x42>
 800e5e4:	2c00      	cmp	r4, #0
 800e5e6:	bfbe      	ittt	lt
 800e5e8:	f44f 1380 	movlt.w	r3, #1048576	; 0x100000
 800e5ec:	fa43 f606 	asrlt.w	r6, r3, r6
 800e5f0:	19a4      	addlt	r4, r4, r6
 800e5f2:	ea24 0408 	bic.w	r4, r4, r8
 800e5f6:	2500      	movs	r5, #0
 800e5f8:	e7df      	b.n	800e5ba <floor+0x42>
 800e5fa:	2e33      	cmp	r6, #51	; 0x33
 800e5fc:	dd0a      	ble.n	800e614 <floor+0x9c>
 800e5fe:	f5b6 6f80 	cmp.w	r6, #1024	; 0x400
 800e602:	d103      	bne.n	800e60c <floor+0x94>
 800e604:	f7f1 fe12 	bl	800022c <__adddf3>
 800e608:	4607      	mov	r7, r0
 800e60a:	460b      	mov	r3, r1
 800e60c:	4638      	mov	r0, r7
 800e60e:	4619      	mov	r1, r3
 800e610:	e8bd 83f8 	ldmia.w	sp!, {r3, r4, r5, r6, r7, r8, r9, pc}
 800e614:	f2a8 4813 	subw	r8, r8, #1043	; 0x413
 800e618:	f04f 32ff 	mov.w	r2, #4294967295	; 0xffffffff
 800e61c:	fa22 f808 	lsr.w	r8, r2, r8
 800e620:	ea18 0f00 	tst.w	r8, r0
 800e624:	d0f2      	beq.n	800e60c <floor+0x94>
 800e626:	a310      	add	r3, pc, #64	; (adr r3, 800e668 <floor+0xf0>)
 800e628:	e9d3 2300 	ldrd	r2, r3, [r3]
 800e62c:	f7f1 fdfe 	bl	800022c <__adddf3>
 800e630:	2200      	movs	r2, #0
 800e632:	2300      	movs	r3, #0
 800e634:	f7f2 fa40 	bl	8000ab8 <__aeabi_dcmpgt>
 800e638:	2800      	cmp	r0, #0
 800e63a:	d0be      	beq.n	800e5ba <floor+0x42>
 800e63c:	2c00      	cmp	r4, #0
 800e63e:	da02      	bge.n	800e646 <floor+0xce>
 800e640:	2e14      	cmp	r6, #20
 800e642:	d103      	bne.n	800e64c <floor+0xd4>
 800e644:	3401      	adds	r4, #1
 800e646:	ea25 0508 	bic.w	r5, r5, r8
 800e64a:	e7b6      	b.n	800e5ba <floor+0x42>
 800e64c:	2301      	movs	r3, #1
 800e64e:	f1c6 0634 	rsb	r6, r6, #52	; 0x34
 800e652:	fa03 f606 	lsl.w	r6, r3, r6
 800e656:	4435      	add	r5, r6
 800e658:	42bd      	cmp	r5, r7
 800e65a:	bf38      	it	cc
 800e65c:	18e4      	addcc	r4, r4, r3
 800e65e:	e7f2      	b.n	800e646 <floor+0xce>
 800e660:	2500      	movs	r5, #0
 800e662:	462c      	mov	r4, r5
 800e664:	e7a9      	b.n	800e5ba <floor+0x42>
 800e666:	bf00      	nop
 800e668:	8800759c 	.word	0x8800759c
 800e66c:	7e37e43c 	.word	0x7e37e43c
 800e670:	bff00000 	.word	0xbff00000
 800e674:	000fffff 	.word	0x000fffff

0800e678 <scalbn>:
 800e678:	b5f8      	push	{r3, r4, r5, r6, r7, lr}
 800e67a:	f3c1 560a 	ubfx	r6, r1, #20, #11
 800e67e:	4604      	mov	r4, r0
 800e680:	460d      	mov	r5, r1
 800e682:	4617      	mov	r7, r2
 800e684:	460b      	mov	r3, r1
 800e686:	b996      	cbnz	r6, 800e6ae <scalbn+0x36>
 800e688:	f021 4300 	bic.w	r3, r1, #2147483648	; 0x80000000
 800e68c:	4303      	orrs	r3, r0
 800e68e:	d039      	beq.n	800e704 <scalbn+0x8c>
 800e690:	4b33      	ldr	r3, [pc, #204]	; (800e760 <scalbn+0xe8>)
 800e692:	2200      	movs	r2, #0
 800e694:	f7f1 ff80 	bl	8000598 <__aeabi_dmul>
 800e698:	4b32      	ldr	r3, [pc, #200]	; (800e764 <scalbn+0xec>)
 800e69a:	429f      	cmp	r7, r3
 800e69c:	4604      	mov	r4, r0
 800e69e:	460d      	mov	r5, r1
 800e6a0:	da0f      	bge.n	800e6c2 <scalbn+0x4a>
 800e6a2:	a32b      	add	r3, pc, #172	; (adr r3, 800e750 <scalbn+0xd8>)
 800e6a4:	e9d3 2300 	ldrd	r2, r3, [r3]
 800e6a8:	f7f1 ff76 	bl	8000598 <__aeabi_dmul>
 800e6ac:	e006      	b.n	800e6bc <scalbn+0x44>
 800e6ae:	f240 72ff 	movw	r2, #2047	; 0x7ff
 800e6b2:	4296      	cmp	r6, r2
 800e6b4:	d10a      	bne.n	800e6cc <scalbn+0x54>
 800e6b6:	4602      	mov	r2, r0
 800e6b8:	f7f1 fdb8 	bl	800022c <__adddf3>
 800e6bc:	4604      	mov	r4, r0
 800e6be:	460d      	mov	r5, r1
 800e6c0:	e020      	b.n	800e704 <scalbn+0x8c>
 800e6c2:	460b      	mov	r3, r1
 800e6c4:	f3c1 510a 	ubfx	r1, r1, #20, #11
 800e6c8:	f1a1 0636 	sub.w	r6, r1, #54	; 0x36
 800e6cc:	19b9      	adds	r1, r7, r6
 800e6ce:	f240 72fe 	movw	r2, #2046	; 0x7fe
 800e6d2:	4291      	cmp	r1, r2
 800e6d4:	dd0e      	ble.n	800e6f4 <scalbn+0x7c>
 800e6d6:	f005 4400 	and.w	r4, r5, #2147483648	; 0x80000000
 800e6da:	f044 41fc 	orr.w	r1, r4, #2113929216	; 0x7e000000
 800e6de:	f441 115f 	orr.w	r1, r1, #3653632	; 0x37c000
 800e6e2:	f441 5110 	orr.w	r1, r1, #9216	; 0x2400
 800e6e6:	a31c      	add	r3, pc, #112	; (adr r3, 800e758 <scalbn+0xe0>)
 800e6e8:	e9d3 2300 	ldrd	r2, r3, [r3]
 800e6ec:	481e      	ldr	r0, [pc, #120]	; (800e768 <scalbn+0xf0>)
 800e6ee:	f041 013c 	orr.w	r1, r1, #60	; 0x3c
 800e6f2:	e7d9      	b.n	800e6a8 <scalbn+0x30>
 800e6f4:	2900      	cmp	r1, #0
 800e6f6:	dd08      	ble.n	800e70a <scalbn+0x92>
 800e6f8:	f023 43ff 	bic.w	r3, r3, #2139095040	; 0x7f800000
 800e6fc:	f423 03e0 	bic.w	r3, r3, #7340032	; 0x700000
 800e700:	ea43 5501 	orr.w	r5, r3, r1, lsl #20
 800e704:	4620      	mov	r0, r4
 800e706:	4629      	mov	r1, r5
 800e708:	bdf8      	pop	{r3, r4, r5, r6, r7, pc}
 800e70a:	f111 0f35 	cmn.w	r1, #53	; 0x35
 800e70e:	da12      	bge.n	800e736 <scalbn+0xbe>
 800e710:	f24c 3350 	movw	r3, #50000	; 0xc350
 800e714:	429f      	cmp	r7, r3
 800e716:	ea4f 73d5 	mov.w	r3, r5, lsr #31
 800e71a:	ea4f 74c3 	mov.w	r4, r3, lsl #31
 800e71e:	dcdc      	bgt.n	800e6da <scalbn+0x62>
 800e720:	f044 71d2 	orr.w	r1, r4, #27525120	; 0x1a40000
 800e724:	f441 31b7 	orr.w	r1, r1, #93696	; 0x16e00
 800e728:	a309      	add	r3, pc, #36	; (adr r3, 800e750 <scalbn+0xd8>)
 800e72a:	e9d3 2300 	ldrd	r2, r3, [r3]
 800e72e:	480f      	ldr	r0, [pc, #60]	; (800e76c <scalbn+0xf4>)
 800e730:	f041 011f 	orr.w	r1, r1, #31
 800e734:	e7b8      	b.n	800e6a8 <scalbn+0x30>
 800e736:	f023 43ff 	bic.w	r3, r3, #2139095040	; 0x7f800000
 800e73a:	3136      	adds	r1, #54	; 0x36
 800e73c:	f423 03e0 	bic.w	r3, r3, #7340032	; 0x700000
 800e740:	ea43 5501 	orr.w	r5, r3, r1, lsl #20
 800e744:	4620      	mov	r0, r4
 800e746:	4b0a      	ldr	r3, [pc, #40]	; (800e770 <scalbn+0xf8>)
 800e748:	4629      	mov	r1, r5
 800e74a:	2200      	movs	r2, #0
 800e74c:	e7ac      	b.n	800e6a8 <scalbn+0x30>
 800e74e:	bf00      	nop
 800e750:	c2f8f359 	.word	0xc2f8f359
 800e754:	01a56e1f 	.word	0x01a56e1f
 800e758:	8800759c 	.word	0x8800759c
 800e75c:	7e37e43c 	.word	0x7e37e43c
 800e760:	43500000 	.word	0x43500000
 800e764:	ffff3cb0 	.word	0xffff3cb0
 800e768:	8800759c 	.word	0x8800759c
 800e76c:	c2f8f359 	.word	0xc2f8f359
 800e770:	3c900000 	.word	0x3c900000

0800e774 <__errno>:
 800e774:	4b01      	ldr	r3, [pc, #4]	; (800e77c <__errno+0x8>)
 800e776:	6818      	ldr	r0, [r3, #0]
 800e778:	4770      	bx	lr
 800e77a:	bf00      	nop
 800e77c:	20000070 	.word	0x20000070

0800e780 <_close>:
 800e780:	4b02      	ldr	r3, [pc, #8]	; (800e78c <_close+0xc>)
 800e782:	2258      	movs	r2, #88	; 0x58
 800e784:	601a      	str	r2, [r3, #0]
 800e786:	f04f 30ff 	mov.w	r0, #4294967295	; 0xffffffff
 800e78a:	4770      	bx	lr
 800e78c:	20001210 	.word	0x20001210

0800e790 <_fstat>:
 800e790:	4b02      	ldr	r3, [pc, #8]	; (800e79c <_fstat+0xc>)
 800e792:	2258      	movs	r2, #88	; 0x58
 800e794:	601a      	str	r2, [r3, #0]
 800e796:	f04f 30ff 	mov.w	r0, #4294967295	; 0xffffffff
 800e79a:	4770      	bx	lr
 800e79c:	20001210 	.word	0x20001210

0800e7a0 <_getpid>:
 800e7a0:	4b02      	ldr	r3, [pc, #8]	; (800e7ac <_getpid+0xc>)
 800e7a2:	2258      	movs	r2, #88	; 0x58
 800e7a4:	601a      	str	r2, [r3, #0]
 800e7a6:	f04f 30ff 	mov.w	r0, #4294967295	; 0xffffffff
 800e7aa:	4770      	bx	lr
 800e7ac:	20001210 	.word	0x20001210

0800e7b0 <_isatty>:
 800e7b0:	4b02      	ldr	r3, [pc, #8]	; (800e7bc <_isatty+0xc>)
 800e7b2:	2258      	movs	r2, #88	; 0x58
 800e7b4:	601a      	str	r2, [r3, #0]
 800e7b6:	2000      	movs	r0, #0
 800e7b8:	4770      	bx	lr
 800e7ba:	bf00      	nop
 800e7bc:	20001210 	.word	0x20001210

0800e7c0 <_kill>:
 800e7c0:	4b02      	ldr	r3, [pc, #8]	; (800e7cc <_kill+0xc>)
 800e7c2:	2258      	movs	r2, #88	; 0x58
 800e7c4:	601a      	str	r2, [r3, #0]
 800e7c6:	f04f 30ff 	mov.w	r0, #4294967295	; 0xffffffff
 800e7ca:	4770      	bx	lr
 800e7cc:	20001210 	.word	0x20001210

0800e7d0 <_lseek>:
 800e7d0:	4b02      	ldr	r3, [pc, #8]	; (800e7dc <_lseek+0xc>)
 800e7d2:	2258      	movs	r2, #88	; 0x58
 800e7d4:	601a      	str	r2, [r3, #0]
 800e7d6:	f04f 30ff 	mov.w	r0, #4294967295	; 0xffffffff
 800e7da:	4770      	bx	lr
 800e7dc:	20001210 	.word	0x20001210

0800e7e0 <_read>:
 800e7e0:	4b02      	ldr	r3, [pc, #8]	; (800e7ec <_read+0xc>)
 800e7e2:	2258      	movs	r2, #88	; 0x58
 800e7e4:	601a      	str	r2, [r3, #0]
 800e7e6:	f04f 30ff 	mov.w	r0, #4294967295	; 0xffffffff
 800e7ea:	4770      	bx	lr
 800e7ec:	20001210 	.word	0x20001210

0800e7f0 <_sbrk>:
 800e7f0:	4a04      	ldr	r2, [pc, #16]	; (800e804 <_sbrk+0x14>)
 800e7f2:	6811      	ldr	r1, [r2, #0]
 800e7f4:	4603      	mov	r3, r0
 800e7f6:	b909      	cbnz	r1, 800e7fc <_sbrk+0xc>
 800e7f8:	4903      	ldr	r1, [pc, #12]	; (800e808 <_sbrk+0x18>)
 800e7fa:	6011      	str	r1, [r2, #0]
 800e7fc:	6810      	ldr	r0, [r2, #0]
 800e7fe:	4403      	add	r3, r0
 800e800:	6013      	str	r3, [r2, #0]
 800e802:	4770      	bx	lr
 800e804:	20001214 	.word	0x20001214
 800e808:	20001218 	.word	0x20001218

0800e80c <_write>:
 800e80c:	4b02      	ldr	r3, [pc, #8]	; (800e818 <_write+0xc>)
 800e80e:	2258      	movs	r2, #88	; 0x58
 800e810:	601a      	str	r2, [r3, #0]
 800e812:	f04f 30ff 	mov.w	r0, #4294967295	; 0xffffffff
 800e816:	4770      	bx	lr
 800e818:	20001210 	.word	0x20001210

0800e81c <_exit>:
 800e81c:	e7fe      	b.n	800e81c <_exit>
	...

0800e820 <_init>:
 800e820:	b5f8      	push	{r3, r4, r5, r6, r7, lr}
 800e822:	bf00      	nop
 800e824:	bcf8      	pop	{r3, r4, r5, r6, r7}
 800e826:	bc08      	pop	{r3}
 800e828:	469e      	mov	lr, r3
 800e82a:	4770      	bx	lr

0800e82c <_fini>:
 800e82c:	b5f8      	push	{r3, r4, r5, r6, r7, lr}
 800e82e:	bf00      	nop
 800e830:	bcf8      	pop	{r3, r4, r5, r6, r7}
 800e832:	bc08      	pop	{r3}
 800e834:	469e      	mov	lr, r3
 800e836:	4770      	bx	lr
